

Microchip Technology PIC18 LITE Macro Assembler V1.30 build 55553 
                                                                                               Tue Jun 10 16:06:42 2014

Microchip Technology Omniscient Code Generator (Lite mode) build 55553
     1                           	processor	18F47J13
     2                           	fnconf	rparam,??,?,0
     3                           	opt	pw 120
     4                           	opt	lm
     5                           	psect	idataCOMRAM,global,class=CODE,delta=1
     6                           	psect	idataBANK0,global,class=CODE,delta=1
     7                           	psect	mediumconst,global,reloc=2,class=MEDIUMCONST,delta=1
     8                           	psect	cinit,global,reloc=2,class=CODE,delta=1
     9                           	psect	bssCOMRAM,global,class=COMRAM,space=1,delta=1
    10                           	psect	dataCOMRAM,global,class=COMRAM,space=1,delta=1
    11                           	psect	bssBANK0,global,class=BANK0,space=1,delta=1
    12                           	psect	dataBANK0,global,class=BANK0,space=1,delta=1
    13                           	psect	bssBANK1,global,class=BANK1,space=1,delta=1
    14                           	psect	bssBANK2,global,class=BANK2,space=1,delta=1
    15                           	psect	bssBIGRAM,global,class=BIGRAM,space=1,delta=1
    16                           	psect	cstackBANK1,global,class=BANK1,space=1,delta=1
    17                           	psect	cstackBANK0,global,class=BANK0,space=1,delta=1
    18                           	psect	cstackCOMRAM,global,class=COMRAM,space=1,delta=1
    19                           	psect	text0,global,reloc=2,class=CODE,delta=1
    20                           	psect	text1,global,reloc=2,class=CODE,delta=1
    21                           	psect	text2,global,reloc=2,class=CODE,delta=1
    22                           	psect	text3,global,reloc=2,class=CODE,delta=1
    23                           	psect	text4,global,reloc=2,class=CODE,delta=1
    24                           	psect	text5,global,reloc=2,class=CODE,delta=1
    25                           	psect	text6,global,reloc=2,class=CODE,delta=1
    26                           	psect	text7,global,reloc=2,class=CODE,delta=1
    27                           	psect	text8,global,reloc=2,class=CODE,delta=1
    28                           	psect	text9,global,reloc=2,class=CODE,delta=1
    29                           	psect	text10,global,reloc=2,class=CODE,delta=1
    30                           	psect	text11,global,reloc=2,class=CODE,delta=1
    31                           	psect	text12,global,reloc=2,class=CODE,delta=1
    32                           	psect	text13,global,reloc=2,class=CODE,delta=1
    33                           	psect	text14,global,reloc=2,class=CODE,delta=1
    34                           	psect	text15,global,reloc=2,class=CODE,delta=1
    35                           	psect	text16,global,reloc=2,class=CODE,delta=1
    36                           	psect	text17,global,reloc=2,class=CODE,delta=1
    37                           	psect	text18,global,reloc=2,class=CODE,delta=1
    38                           	psect	text19,global,reloc=2,class=CODE,delta=1
    39                           	psect	text20,global,reloc=2,class=CODE,delta=1
    40                           	psect	text21,global,reloc=2,class=CODE,delta=1
    41                           	psect	text22,global,reloc=2,class=CODE,delta=1
    42                           	psect	text23,global,reloc=2,class=CODE,delta=1
    43                           	psect	text24,global,reloc=2,class=CODE,delta=1
    44                           	psect	text25,global,reloc=2,class=CODE,delta=1
    45                           	psect	text26,global,reloc=2,class=CODE,delta=1
    46                           	psect	text27,global,reloc=2,class=CODE,delta=1
    47                           	psect	text28,global,reloc=2,class=CODE,delta=1
    48                           	psect	text29,global,reloc=2,class=CODE,delta=1
    49                           	psect	text30,global,reloc=2,class=CODE,delta=1
    50                           	psect	text31,global,reloc=2,class=CODE,delta=1
    51                           	psect	text32,global,reloc=2,class=CODE,delta=1
    52                           	psect	intcodelo,global,reloc=2,class=CODE,delta=1
    53                           	psect	intcode,global,reloc=2,class=CODE,delta=1
    54                           	psect	intcode_body,global,reloc=2,class=CODE,delta=1
    55                           	psect	text35,global,reloc=2,class=CODE,delta=1
    56                           	psect	text36,global,reloc=2,class=CODE,delta=1
    57                           	psect	intsave_regs,global,class=BIGRAM,space=1,delta=1
    58                           	psect	rparam,global,class=COMRAM,space=1,delta=1
    59  0000                     
    60                           	psect	idataCOMRAM
    61  014FFC                     __pidataCOMRAM:
    62                           	opt stack 0
    63                           
    64                           ;initializer for _VpowerSensor
    65  014FFC  01                 	db	1
    66                           
    67                           	psect	idataBANK0
    68  014FFA                     __pidataBANK0:
    69                           	opt stack 0
    70                           
    71                           ;initializer for _VOK
    72  014FFA  01                 	db	1
    73                           
    74                           ;initializer for _timeRE
    75  014FFB  01                 	db	1
    76  0000                     _ANCON0bits	set	3912
    77  0000                     _EECON2	set	4007
    78  0000                     _INTCON2bits	set	4081
    79  0000                     _INTCONbits	set	4082
    80  0000                     _PIE1bits	set	3997
    81  0000                     _PIE3bits	set	4003
    82  0000                     _PIR1bits	set	3998
    83  0000                     _PIR3bits	set	4004
    84  0000                     _PORTBbits	set	3969
    85  0000                     _PORTCbits	set	3970
    86  0000                     _PPSCON	set	3775
    87  0000                     _RCONbits	set	4048
    88  0000                     _RCREG1	set	4015
    89  0000                     _RCREG2	set	4010
    90  0000                     _RCSTA1	set	4012
    91  0000                     _RCSTA1bits	set	4012
    92  0000                     _RCSTA2	set	3996
    93  0000                     _RCSTA2bits	set	3996
    94  0000                     _RPINR16	set	3831
    95  0000                     _RPOR8	set	3784
    96  0000                     _RTCCAL	set	3902
    97  0000                     _RTCCFG	set	3903
    98  0000                     _RTCCFGbits	set	3903
    99  0000                     _SPBRG1	set	4016
   100  0000                     _SPBRG2	set	4011
   101  0000                     _SPBRGH1	set	3967
   102  0000                     _SPBRGH2	set	3965
   103  0000                     _T0CON	set	4053
   104  0000                     _T0CONbits	set	4053
   105  0000                     _T1CONbits	set	4045
   106  0000                     _TMR0H	set	4055
   107  0000                     _TMR0L	set	4054
   108  0000                     _TRISAbits	set	3986
   109  0000                     _TRISBbits	set	3987
   110  0000                     _TRISCbits	set	3988
   111  0000                     _TXREG1	set	4014
   112  0000                     _TXREG2	set	4009
   113  0000                     _TXSTA1	set	4013
   114  0000                     _TXSTA1bits	set	4013
   115  0000                     _TXSTA2	set	4008
   116  0000                     _TXSTA2bits	set	4008
   117                           
   118                           	psect	mediumconst
   119  00FD90                     __pmediumconst:
   120                           	opt stack 0
   121  00FD90  00                 	db	0
   122  00FD91                     __stringdata:
   123                           	opt stack 0
   124  00FD91                     STR_120:
   125  00FD91  41                 	db	65	;'A'
   126  00FD92  54                 	db	84	;'T'
   127  00FD93  2B                 	db	43
   128  00FD94  48                 	db	72	;'H'
   129  00FD95  54                 	db	84	;'T'
   130  00FD96  54                 	db	84	;'T'
   131  00FD97  50                 	db	80	;'P'
   132  00FD98  50                 	db	80	;'P'
   133  00FD99  41                 	db	65	;'A'
   134  00FD9A  52                 	db	82	;'R'
   135  00FD9B  41                 	db	65	;'A'
   136  00FD9C  3D                 	db	61	;'='
   137  00FD9D  22                 	db	34
   138  00FD9E  43                 	db	67	;'C'
   139  00FD9F  4F                 	db	79	;'O'
   140  00FDA0  4E                 	db	78	;'N'
   141  00FDA1  54                 	db	84	;'T'
   142  00FDA2  45                 	db	69	;'E'
   143  00FDA3  4E                 	db	78	;'N'
   144  00FDA4  54                 	db	84	;'T'
   145  00FDA5  22                 	db	34
   146  00FDA6  2C                 	db	44
   147  00FDA7  22                 	db	34
   148  00FDA8  61                 	db	97	;'a'
   149  00FDA9  70                 	db	112	;'p'
   150  00FDAA  70                 	db	112	;'p'
   151  00FDAB  6C                 	db	108	;'l'
   152  00FDAC  69                 	db	105	;'i'
   153  00FDAD  63                 	db	99	;'c'
   154  00FDAE  61                 	db	97	;'a'
   155  00FDAF  74                 	db	116	;'t'
   156  00FDB0  69                 	db	105	;'i'
   157  00FDB1  6F                 	db	111	;'o'
   158  00FDB2  6E                 	db	110	;'n'
   159  00FDB3  2F                 	db	47
   160  00FDB4  78                 	db	120	;'x'
   161  00FDB5  2D                 	db	45
   162  00FDB6  77                 	db	119	;'w'
   163  00FDB7  77                 	db	119	;'w'
   164  00FDB8  77                 	db	119	;'w'
   165  00FDB9  2D                 	db	45
   166  00FDBA  66                 	db	102	;'f'
   167  00FDBB  6F                 	db	111	;'o'
   168  00FDBC  72                 	db	114	;'r'
   169  00FDBD  6D                 	db	109	;'m'
   170  00FDBE  2D                 	db	45
   171  00FDBF  75                 	db	117	;'u'
   172  00FDC0  72                 	db	114	;'r'
   173  00FDC1  6C                 	db	108	;'l'
   174  00FDC2  65                 	db	101	;'e'
   175  00FDC3  6E                 	db	110	;'n'
   176  00FDC4  63                 	db	99	;'c'
   177  00FDC5  6F                 	db	111	;'o'
   178  00FDC6  64                 	db	100	;'d'
   179  00FDC7  65                 	db	101	;'e'
   180  00FDC8  64                 	db	100	;'d'
   181  00FDC9  22                 	db	34
   182  00FDCA  00                 	db	0
   183  00FDCB                     STR_119:
   184  00FDCB  41                 	db	65	;'A'
   185  00FDCC  54                 	db	84	;'T'
   186  00FDCD  2B                 	db	43
   187  00FDCE  48                 	db	72	;'H'
   188  00FDCF  54                 	db	84	;'T'
   189  00FDD0  54                 	db	84	;'T'
   190  00FDD1  50                 	db	80	;'P'
   191  00FDD2  50                 	db	80	;'P'
   192  00FDD3  41                 	db	65	;'A'
   193  00FDD4  52                 	db	82	;'R'
   194  00FDD5  41                 	db	65	;'A'
   195  00FDD6  3D                 	db	61	;'='
   196  00FDD7  22                 	db	34
   197  00FDD8  55                 	db	85	;'U'
   198  00FDD9  52                 	db	82	;'R'
   199  00FDDA  4C                 	db	76	;'L'
   200  00FDDB  22                 	db	34
   201  00FDDC  2C                 	db	44
   202  00FDDD  22                 	db	34
   203  00FDDE  63                 	db	99	;'c'
   204  00FDDF  6C                 	db	108	;'l'
   205  00FDE0  6F                 	db	111	;'o'
   206  00FDE1  75                 	db	117	;'u'
   207  00FDE2  64                 	db	100	;'d'
   208  00FDE3  69                 	db	105	;'i'
   209  00FDE4  61                 	db	97	;'a'
   210  00FDE5  70                 	db	112	;'p'
   211  00FDE6  72                 	db	114	;'r'
   212  00FDE7  6F                 	db	111	;'o'
   213  00FDE8  6A                 	db	106	;'j'
   214  00FDE9  65                 	db	101	;'e'
   215  00FDEA  63                 	db	99	;'c'
   216  00FDEB  74                 	db	116	;'t'
   217  00FDEC  2E                 	db	46
   218  00FDED  6F                 	db	111	;'o'
   219  00FDEE  72                 	db	114	;'r'
   220  00FDEF  67                 	db	103	;'g'
   221  00FDF0  2F                 	db	47
   222  00FDF1  64                 	db	100	;'d'
   223  00FDF2  61                 	db	97	;'a'
   224  00FDF3  74                 	db	116	;'t'
   225  00FDF4  61                 	db	97	;'a'
   226  00FDF5  2F                 	db	47
   227  00FDF6  22                 	db	34
   228  00FDF7  00                 	db	0
   229  00FDF8                     STR_113:
   230  00FDF8  41                 	db	65	;'A'
   231  00FDF9  54                 	db	84	;'T'
   232  00FDFA  2B                 	db	43
   233  00FDFB  53                 	db	83	;'S'
   234  00FDFC  41                 	db	65	;'A'
   235  00FDFD  50                 	db	80	;'P'
   236  00FDFE  42                 	db	66	;'B'
   237  00FDFF  52                 	db	82	;'R'
   238  00FE00  3D                 	db	61	;'='
   239  00FE01  33                 	db	51	;'3'
   240  00FE02  2C                 	db	44
   241  00FE03  31                 	db	49	;'1'
   242  00FE04  2C                 	db	44
   243  00FE05  22                 	db	34
   244  00FE06  41                 	db	65	;'A'
   245  00FE07  50                 	db	80	;'P'
   246  00FE08  4E                 	db	78	;'N'
   247  00FE09  22                 	db	34
   248  00FE0A  2C                 	db	44
   249  00FE0B  22                 	db	34
   250  00FE0C  74                 	db	116	;'t'
   251  00FE0D  69                 	db	105	;'i'
   252  00FE0E  6D                 	db	109	;'m'
   253  00FE0F  2E                 	db	46
   254  00FE10  62                 	db	98	;'b'
   255  00FE11  72                 	db	114	;'r'
   256  00FE12  22                 	db	34
   257  00FE13  00                 	db	0
   258  00FE14                     STR_114:
   259  00FE14  41                 	db	65	;'A'
   260  00FE15  54                 	db	84	;'T'
   261  00FE16  2B                 	db	43
   262  00FE17  53                 	db	83	;'S'
   263  00FE18  41                 	db	65	;'A'
   264  00FE19  50                 	db	80	;'P'
   265  00FE1A  42                 	db	66	;'B'
   266  00FE1B  52                 	db	82	;'R'
   267  00FE1C  3D                 	db	61	;'='
   268  00FE1D  33                 	db	51	;'3'
   269  00FE1E  2C                 	db	44
   270  00FE1F  31                 	db	49	;'1'
   271  00FE20  2C                 	db	44
   272  00FE21  22                 	db	34
   273  00FE22  55                 	db	85	;'U'
   274  00FE23  53                 	db	83	;'S'
   275  00FE24  45                 	db	69	;'E'
   276  00FE25  52                 	db	82	;'R'
   277  00FE26  22                 	db	34
   278  00FE27  2C                 	db	44
   279  00FE28  22                 	db	34
   280  00FE29  74                 	db	116	;'t'
   281  00FE2A  69                 	db	105	;'i'
   282  00FE2B  6D                 	db	109	;'m'
   283  00FE2C  22                 	db	34
   284  00FE2D  00                 	db	0
   285  00FE2E                     STR_115:
   286  00FE2E  41                 	db	65	;'A'
   287  00FE2F  54                 	db	84	;'T'
   288  00FE30  2B                 	db	43
   289  00FE31  53                 	db	83	;'S'
   290  00FE32  41                 	db	65	;'A'
   291  00FE33  50                 	db	80	;'P'
   292  00FE34  42                 	db	66	;'B'
   293  00FE35  52                 	db	82	;'R'
   294  00FE36  3D                 	db	61	;'='
   295  00FE37  33                 	db	51	;'3'
   296  00FE38  2C                 	db	44
   297  00FE39  31                 	db	49	;'1'
   298  00FE3A  2C                 	db	44
   299  00FE3B  22                 	db	34
   300  00FE3C  50                 	db	80	;'P'
   301  00FE3D  57                 	db	87	;'W'
   302  00FE3E  44                 	db	68	;'D'
   303  00FE3F  22                 	db	34
   304  00FE40  2C                 	db	44
   305  00FE41  22                 	db	34
   306  00FE42  74                 	db	116	;'t'
   307  00FE43  69                 	db	105	;'i'
   308  00FE44  6D                 	db	109	;'m'
   309  00FE45  22                 	db	34
   310  00FE46  00                 	db	0
   311  00FE47                     STR_10:
   312  00FE47  64                 	db	100	;'d'
   313  00FE48  61                 	db	97	;'a'
   314  00FE49  74                 	db	116	;'t'
   315  00FE4A  61                 	db	97	;'a'
   316  00FE4B  3D                 	db	61	;'='
   317  00FE4C  7B                 	db	123
   318  00FE4D  22                 	db	34
   319  00FE4E  73                 	db	115	;'s'
   320  00FE4F  74                 	db	116	;'t'
   321  00FE50  61                 	db	97	;'a'
   322  00FE51  74                 	db	116	;'t'
   323  00FE52  69                 	db	105	;'i'
   324  00FE53  6F                 	db	111	;'o'
   325  00FE54  6E                 	db	110	;'n'
   326  00FE55  6D                 	db	109	;'m'
   327  00FE56  65                 	db	101	;'e'
   328  00FE57  73                 	db	115	;'s'
   329  00FE58  73                 	db	115	;'s'
   330  00FE59  61                 	db	97	;'a'
   331  00FE5A  67                 	db	103	;'g'
   332  00FE5B  65                 	db	101	;'e'
   333  00FE5C  22                 	db	34
   334  00FE5D  3A                 	db	58	;':'
   335  00FE5E  7B                 	db	123
   336  00FE5F  00                 	db	0
   337  00FE60                     STR_110:
   338  00FE60  5D                 	db	93	;']'
   339  00FE61  7D                 	db	125
   340  00FE62  7D                 	db	125
   341  00FE63  20                 	db	32
   342  00FE64  20                 	db	32
   343  00FE65  20                 	db	32
   344  00FE66  20                 	db	32
   345  00FE67  20                 	db	32
   346  00FE68  20                 	db	32
   347  00FE69  20                 	db	32
   348  00FE6A  20                 	db	32
   349  00FE6B  20                 	db	32
   350  00FE6C  20                 	db	32
   351  00FE6D  20                 	db	32
   352  00FE6E  20                 	db	32
   353  00FE6F  20                 	db	32
   354  00FE70  20                 	db	32
   355  00FE71  20                 	db	32
   356  00FE72  20                 	db	32
   357  00FE73  20                 	db	32
   358  00FE74  20                 	db	32
   359  00FE75  00                 	db	0
   360  00FE76                     STR_118:
   361  00FE76  41                 	db	65	;'A'
   362  00FE77  54                 	db	84	;'T'
   363  00FE78  2B                 	db	43
   364  00FE79  48                 	db	72	;'H'
   365  00FE7A  54                 	db	84	;'T'
   366  00FE7B  54                 	db	84	;'T'
   367  00FE7C  50                 	db	80	;'P'
   368  00FE7D  50                 	db	80	;'P'
   369  00FE7E  41                 	db	65	;'A'
   370  00FE7F  52                 	db	82	;'R'
   371  00FE80  41                 	db	65	;'A'
   372  00FE81  3D                 	db	61	;'='
   373  00FE82  22                 	db	34
   374  00FE83  43                 	db	67	;'C'
   375  00FE84  49                 	db	73	;'I'
   376  00FE85  44                 	db	68	;'D'
   377  00FE86  22                 	db	34
   378  00FE87  2C                 	db	44
   379  00FE88  31                 	db	49	;'1'
   380  00FE89  00                 	db	0
   381  00FE8A                     STR_15:
   382  00FE8A  22                 	db	34
   383  00FE8B  2C                 	db	44
   384  00FE8C  22                 	db	34
   385  00FE8D  73                 	db	115	;'s'
   386  00FE8E  74                 	db	116	;'t'
   387  00FE8F  61                 	db	97	;'a'
   388  00FE90  74                 	db	116	;'t'
   389  00FE91  69                 	db	105	;'i'
   390  00FE92  6F                 	db	111	;'o'
   391  00FE93  6E                 	db	110	;'n'
   392  00FE94  69                 	db	105	;'i'
   393  00FE95  64                 	db	100	;'d'
   394  00FE96  22                 	db	34
   395  00FE97  3A                 	db	58	;':'
   396  00FE98  22                 	db	34
   397  00FE99  00                 	db	0
   398  00FE9A                     STR_38:
   399  00FE9A  22                 	db	34
   400  00FE9B  2C                 	db	44
   401  00FE9C  22                 	db	34
   402  00FE9D  76                 	db	118	;'v'
   403  00FE9E  61                 	db	97	;'a'
   404  00FE9F  6C                 	db	108	;'l'
   405  00FEA0  75                 	db	117	;'u'
   406  00FEA1  65                 	db	101	;'e'
   407  00FEA2  74                 	db	116	;'t'
   408  00FEA3  79                 	db	121	;'y'
   409  00FEA4  70                 	db	112	;'p'
   410  00FEA5  65                 	db	101	;'e'
   411  00FEA6  22                 	db	34
   412  00FEA7  3A                 	db	58	;':'
   413  00FEA8  22                 	db	34
   414  00FEA9  00                 	db	0
   415  00FEAA                     STR_19:
   416  00FEAA  22                 	db	34
   417  00FEAB  2C                 	db	44
   418  00FEAC  22                 	db	34
   419  00FEAD  65                 	db	101	;'e'
   420  00FEAE  76                 	db	118	;'v'
   421  00FEAF  65                 	db	101	;'e'
   422  00FEB0  6E                 	db	110	;'n'
   423  00FEB1  74                 	db	116	;'t'
   424  00FEB2  74                 	db	116	;'t'
   425  00FEB3  79                 	db	121	;'y'
   426  00FEB4  70                 	db	112	;'p'
   427  00FEB5  65                 	db	101	;'e'
   428  00FEB6  22                 	db	34
   429  00FEB7  3A                 	db	58	;':'
   430  00FEB8  22                 	db	34
   431  00FEB9  00                 	db	0
   432  00FEBA                     STR_25:
   433  00FEBA  7B                 	db	123
   434  00FEBB  22                 	db	34
   435  00FEBC  73                 	db	115	;'s'
   436  00FEBD  65                 	db	101	;'e'
   437  00FEBE  6E                 	db	110	;'n'
   438  00FEBF  73                 	db	115	;'s'
   439  00FEC0  6F                 	db	111	;'o'
   440  00FEC1  72                 	db	114	;'r'
   441  00FEC2  75                 	db	117	;'u'
   442  00FEC3  6E                 	db	110	;'n'
   443  00FEC4  69                 	db	105	;'i'
   444  00FEC5  74                 	db	116	;'t'
   445  00FEC6  22                 	db	34
   446  00FEC7  3A                 	db	58	;':'
   447  00FEC8  22                 	db	34
   448  00FEC9  00                 	db	0
   449  00FECA  41                 	db	65	;'A'
   450  00FECB  54                 	db	84	;'T'
   451  00FECC  2B                 	db	43
   452  00FECD  48                 	db	72	;'H'
   453  00FECE  54                 	db	84	;'T'
   454  00FECF  54                 	db	84	;'T'
   455  00FED0  50                 	db	80	;'P'
   456  00FED1  41                 	db	65	;'A'
   457  00FED2  43                 	db	67	;'C'
   458  00FED3  54                 	db	84	;'T'
   459  00FED4  49                 	db	73	;'I'
   460  00FED5  4F                 	db	79	;'O'
   461  00FED6  4E                 	db	78	;'N'
   462  00FED7  3D                 	db	61	;'='
   463  00FED8  30                 	db	48	;'0'
   464  00FED9  00                 	db	0
   465  00FEDA                     STR_8:
   466  00FEDA  41                 	db	65	;'A'
   467  00FEDB  54                 	db	84	;'T'
   468  00FEDC  2B                 	db	43
   469  00FEDD  48                 	db	72	;'H'
   470  00FEDE  54                 	db	84	;'T'
   471  00FEDF  54                 	db	84	;'T'
   472  00FEE0  50                 	db	80	;'P'
   473  00FEE1  41                 	db	65	;'A'
   474  00FEE2  43                 	db	67	;'C'
   475  00FEE3  54                 	db	84	;'T'
   476  00FEE4  49                 	db	73	;'I'
   477  00FEE5  4F                 	db	79	;'O'
   478  00FEE6  4E                 	db	78	;'N'
   479  00FEE7  3D                 	db	61	;'='
   480  00FEE8  31                 	db	49	;'1'
   481  00FEE9  00                 	db	0
   482  00FEEA                     STR_35:
   483  00FEEA  22                 	db	34
   484  00FEEB  2C                 	db	44
   485  00FEEC  22                 	db	34
   486  00FEED  64                 	db	100	;'d'
   487  00FEEE  61                 	db	97	;'a'
   488  00FEEF  74                 	db	116	;'t'
   489  00FEF0  65                 	db	101	;'e'
   490  00FEF1  74                 	db	116	;'t'
   491  00FEF2  69                 	db	105	;'i'
   492  00FEF3  6D                 	db	109	;'m'
   493  00FEF4  65                 	db	101	;'e'
   494  00FEF5  22                 	db	34
   495  00FEF6  3A                 	db	58	;':'
   496  00FEF7  22                 	db	34
   497  00FEF8  00                 	db	0
   498  00FEF9                     STR_21:
   499  00FEF9  72                 	db	114	;'r'
   500  00FEFA  65                 	db	101	;'e'
   501  00FEFB  67                 	db	103	;'g'
   502  00FEFC  75                 	db	117	;'u'
   503  00FEFD  6C                 	db	108	;'l'
   504  00FEFE  61                 	db	97	;'a'
   505  00FEFF  72                 	db	114	;'r'
   506  00FF00  72                 	db	114	;'r'
   507  00FF01  65                 	db	101	;'e'
   508  00FF02  61                 	db	97	;'a'
   509  00FF03  64                 	db	100	;'d'
   510  00FF04  69                 	db	105	;'i'
   511  00FF05  6E                 	db	110	;'n'
   512  00FF06  67                 	db	103	;'g'
   513  00FF07  00                 	db	0
   514  00FF08                     STR_116:
   515  00FF08  41                 	db	65	;'A'
   516  00FF09  54                 	db	84	;'T'
   517  00FF0A  2B                 	db	43
   518  00FF0B  53                 	db	83	;'S'
   519  00FF0C  41                 	db	65	;'A'
   520  00FF0D  50                 	db	80	;'P'
   521  00FF0E  42                 	db	66	;'B'
   522  00FF0F  52                 	db	82	;'R'
   523  00FF10  3D                 	db	61	;'='
   524  00FF11  31                 	db	49	;'1'
   525  00FF12  2C                 	db	44
   526  00FF13  31                 	db	49	;'1'
   527  00FF14  00                 	db	0
   528  00FF15                     STR_6:
   529  00FF15  41                 	db	65	;'A'
   530  00FF16  54                 	db	84	;'T'
   531  00FF17  2B                 	db	43
   532  00FF18  48                 	db	72	;'H'
   533  00FF19  54                 	db	84	;'T'
   534  00FF1A  54                 	db	84	;'T'
   535  00FF1B  50                 	db	80	;'P'
   536  00FF1C  44                 	db	68	;'D'
   537  00FF1D  41                 	db	65	;'A'
   538  00FF1E  54                 	db	84	;'T'
   539  00FF1F  41                 	db	65	;'A'
   540  00FF20  3D                 	db	61	;'='
   541  00FF21  00                 	db	0
   542  00FF22                     STR_42:
   543  00FF22  22                 	db	34
   544  00FF23  2C                 	db	44
   545  00FF24  22                 	db	34
   546  00FF25  76                 	db	118	;'v'
   547  00FF26  61                 	db	97	;'a'
   548  00FF27  6C                 	db	108	;'l'
   549  00FF28  75                 	db	117	;'u'
   550  00FF29  65                 	db	101	;'e'
   551  00FF2A  22                 	db	34
   552  00FF2B  3A                 	db	58	;':'
   553  00FF2C  22                 	db	34
   554  00FF2D  00                 	db	0
   555  00FF2E                     STR_111:
   556  00FF2E  41                 	db	65	;'A'
   557  00FF2F  54                 	db	84	;'T'
   558  00FF30  2B                 	db	43
   559  00FF31  49                 	db	73	;'I'
   560  00FF32  50                 	db	80	;'P'
   561  00FF33  52                 	db	82	;'R'
   562  00FF34  3D                 	db	61	;'='
   563  00FF35  39                 	db	57	;'9'
   564  00FF36  36                 	db	54	;'6'
   565  00FF37  30                 	db	48	;'0'
   566  00FF38  30                 	db	48	;'0'
   567  00FF39  00                 	db	0
   568  00FF3A  41                 	db	65	;'A'
   569  00FF3B  54                 	db	84	;'T'
   570  00FF3C  2B                 	db	43
   571  00FF3D  48                 	db	72	;'H'
   572  00FF3E  54                 	db	84	;'T'
   573  00FF3F  54                 	db	84	;'T'
   574  00FF40  50                 	db	80	;'P'
   575  00FF41  52                 	db	82	;'R'
   576  00FF42  45                 	db	69	;'E'
   577  00FF43  41                 	db	65	;'A'
   578  00FF44  44                 	db	68	;'D'
   579  00FF45  00                 	db	0
   580  00FF46  41                 	db	65	;'A'
   581  00FF47  54                 	db	84	;'T'
   582  00FF48  2B                 	db	43
   583  00FF49  48                 	db	72	;'H'
   584  00FF4A  54                 	db	84	;'T'
   585  00FF4B  54                 	db	84	;'T'
   586  00FF4C  50                 	db	80	;'P'
   587  00FF4D  54                 	db	84	;'T'
   588  00FF4E  45                 	db	69	;'E'
   589  00FF4F  52                 	db	82	;'R'
   590  00FF50  4D                 	db	77	;'M'
   591  00FF51  00                 	db	0
   592  00FF52                     STR_117:
   593  00FF52  41                 	db	65	;'A'
   594  00FF53  54                 	db	84	;'T'
   595  00FF54  2B                 	db	43
   596  00FF55  48                 	db	72	;'H'
   597  00FF56  54                 	db	84	;'T'
   598  00FF57  54                 	db	84	;'T'
   599  00FF58  50                 	db	80	;'P'
   600  00FF59  49                 	db	73	;'I'
   601  00FF5A  4E                 	db	78	;'N'
   602  00FF5B  49                 	db	73	;'I'
   603  00FF5C  54                 	db	84	;'T'
   604  00FF5D  00                 	db	0
   605  00FF5E                     STR_23:
   606  00FF5E  22                 	db	34
   607  00FF5F  2C                 	db	44
   608  00FF60  22                 	db	34
   609  00FF61  65                 	db	101	;'e'
   610  00FF62  76                 	db	118	;'v'
   611  00FF63  65                 	db	101	;'e'
   612  00FF64  6E                 	db	110	;'n'
   613  00FF65  74                 	db	116	;'t'
   614  00FF66  22                 	db	34
   615  00FF67  3A                 	db	58	;':'
   616  00FF68  5B                 	db	91	;'['
   617  00FF69  00                 	db	0
   618  00FF6A                     STR_29:
   619  00FF6A  22                 	db	34
   620  00FF6B  2C                 	db	44
   621  00FF6C  22                 	db	34
   622  00FF6D  64                 	db	100	;'d'
   623  00FF6E  61                 	db	97	;'a'
   624  00FF6F  74                 	db	116	;'t'
   625  00FF70  61                 	db	97	;'a'
   626  00FF71  22                 	db	34
   627  00FF72  3A                 	db	58	;':'
   628  00FF73  5B                 	db	91	;'['
   629  00FF74  00                 	db	0
   630  00FF75                     STR_33:
   631  00FF75  73                 	db	115	;'s'
   632  00FF76  75                 	db	117	;'u'
   633  00FF77  30                 	db	48	;'0'
   634  00FF78  30                 	db	48	;'0'
   635  00FF79  30                 	db	48	;'0'
   636  00FF7A  33                 	db	51	;'3'
   637  00FF7B  2D                 	db	45
   638  00FF7C  30                 	db	48	;'0'
   639  00FF7D  31                 	db	49	;'1'
   640  00FF7E  00                 	db	0
   641  00FF7F                     STR_56:
   642  00FF7F  73                 	db	115	;'s'
   643  00FF80  75                 	db	117	;'u'
   644  00FF81  30                 	db	48	;'0'
   645  00FF82  30                 	db	48	;'0'
   646  00FF83  30                 	db	48	;'0'
   647  00FF84  32                 	db	50	;'2'
   648  00FF85  5F                 	db	95	;'_'
   649  00FF86  30                 	db	48	;'0'
   650  00FF87  31                 	db	49	;'1'
   651  00FF88  00                 	db	0
   652  00FF89                     STR_79:
   653  00FF89  73                 	db	115	;'s'
   654  00FF8A  75                 	db	117	;'u'
   655  00FF8B  30                 	db	48	;'0'
   656  00FF8C  30                 	db	48	;'0'
   657  00FF8D  30                 	db	48	;'0'
   658  00FF8E  34                 	db	52	;'4'
   659  00FF8F  5F                 	db	95	;'_'
   660  00FF90  30                 	db	48	;'0'
   661  00FF91  31                 	db	49	;'1'
   662  00FF92  00                 	db	0
   663  00FF93                     STR_95:
   664  00FF93  73                 	db	115	;'s'
   665  00FF94  75                 	db	117	;'u'
   666  00FF95  30                 	db	48	;'0'
   667  00FF96  30                 	db	48	;'0'
   668  00FF97  30                 	db	48	;'0'
   669  00FF98  34                 	db	52	;'4'
   670  00FF99  5F                 	db	95	;'_'
   671  00FF9A  30                 	db	48	;'0'
   672  00FF9B  32                 	db	50	;'2'
   673  00FF9C  00                 	db	0
   674  00FF9D                     STR_5:
   675  00FF9D  41                 	db	65	;'A'
   676  00FF9E  54                 	db	84	;'T'
   677  00FF9F  2B                 	db	43
   678  00FFA0  43                 	db	67	;'C'
   679  00FFA1  43                 	db	67	;'C'
   680  00FFA2  4C                 	db	76	;'L'
   681  00FFA3  4B                 	db	75	;'K'
   682  00FFA4  3F                 	db	63	;'?'
   683  00FFA5  00                 	db	0
   684  00FFA6                     STR_1:
   685  00FFA6  64                 	db	100	;'d'
   686  00FFA7  65                 	db	101	;'e'
   687  00FFA8  70                 	db	112	;'p'
   688  00FFA9  61                 	db	97	;'a'
   689  00FFAA  72                 	db	114	;'r'
   690  00FFAB  74                 	db	116	;'t'
   691  00FFAC  20                 	db	32
   692  00FFAD  0D                 	db	13
   693  00FFAE  00                 	db	0
   694  00FFAF                     STR_31:
   695  00FFAF  7B                 	db	123
   696  00FFB0  22                 	db	34
   697  00FFB1  69                 	db	105	;'i'
   698  00FFB2  64                 	db	100	;'d'
   699  00FFB3  22                 	db	34
   700  00FFB4  3A                 	db	58	;':'
   701  00FFB5  22                 	db	34
   702  00FFB6  00                 	db	0
   703  00FFB7                     STR_124:
   704  00FFB7  28                 	db	40
   705  00FFB8  6E                 	db	110	;'n'
   706  00FFB9  75                 	db	117	;'u'
   707  00FFBA  6C                 	db	108	;'l'
   708  00FFBB  6C                 	db	108	;'l'
   709  00FFBC  29                 	db	41
   710  00FFBD  00                 	db	0
   711  00FFBE                     STR_50:
   712  00FFBE  73                 	db	115	;'s'
   713  00FFBF  75                 	db	117	;'u'
   714  00FFC0  30                 	db	48	;'0'
   715  00FFC1  30                 	db	48	;'0'
   716  00FFC2  30                 	db	48	;'0'
   717  00FFC3  32                 	db	50	;'2'
   718  00FFC4  00                 	db	0
   719  00FFC5                     STR_17:
   720  00FFC5  62                 	db	98	;'b'
   721  00FFC6  72                 	db	114	;'r'
   722  00FFC7  61                 	db	97	;'a'
   723  00FFC8  30                 	db	48	;'0'
   724  00FFC9  30                 	db	48	;'0'
   725  00FFCA  32                 	db	50	;'2'
   726  00FFCB  00                 	db	0
   727  00FFCC                     STR_27:
   728  00FFCC  73                 	db	115	;'s'
   729  00FFCD  75                 	db	117	;'u'
   730  00FFCE  30                 	db	48	;'0'
   731  00FFCF  30                 	db	48	;'0'
   732  00FFD0  30                 	db	48	;'0'
   733  00FFD1  33                 	db	51	;'3'
   734  00FFD2  00                 	db	0
   735  00FFD3                     STR_73:
   736  00FFD3  73                 	db	115	;'s'
   737  00FFD4  75                 	db	117	;'u'
   738  00FFD5  30                 	db	48	;'0'
   739  00FFD6  30                 	db	48	;'0'
   740  00FFD7  30                 	db	48	;'0'
   741  00FFD8  34                 	db	52	;'4'
   742  00FFD9  00                 	db	0
   743  00FFDA                     STR_46:
   744  00FFDA  25                 	db	37
   745  00FFDB  73                 	db	115	;'s'
   746  00FFDC  5D                 	db	93	;']'
   747  00FFDD  7D                 	db	125
   748  00FFDE  2C                 	db	44
   749  00FFDF  00                 	db	0
   750  00FFE0                     STR_7:
   751  00FFE0  32                 	db	50	;'2'
   752  00FFE1  30                 	db	48	;'0'
   753  00FFE2  30                 	db	48	;'0'
   754  00FFE3  30                 	db	48	;'0'
   755  00FFE4  30                 	db	48	;'0'
   756  00FFE5  00                 	db	0
   757  00FFE6                     STR_9:
   758  00FFE6  25                 	db	37
   759  00FFE7  73                 	db	115	;'s'
   760  00FFE8  25                 	db	37
   761  00FFE9  73                 	db	115	;'s'
   762  00FFEA  00                 	db	0
   763  00FFEB                     STR_40:
   764  00FFEB  61                 	db	97	;'a'
   765  00FFEC  73                 	db	115	;'s'
   766  00FFED  69                 	db	105	;'i'
   767  00FFEE  73                 	db	115	;'s'
   768  00FFEF  00                 	db	0
   769  00FFF0                     STR_108:
   770  00FFF0  25                 	db	37
   771  00FFF1  73                 	db	115	;'s'
   772  00FFF2  5D                 	db	93	;']'
   773  00FFF3  7D                 	db	125
   774  00FFF4  00                 	db	0
   775  00FFF5                     STR_45:
   776  00FFF5  22                 	db	34
   777  00FFF6  7D                 	db	125
   778  00FFF7  2C                 	db	44
   779  00FFF8  00                 	db	0
   780  00FFF9                     STR_3:
   781  00FFF9  61                 	db	97	;'a'
   782  00FFFA  00                 	db	0
   783  00FFFB                     STR_2:
   784  00FFFB  62                 	db	98	;'b'
   785  00FFFC  00                 	db	0
   786  00FFFD                     STR_4:
   787  00FFFD  72                 	db	114	;'r'
   788  00FFFE  00                 	db	0
   789  00FFFF                     __end_of__stringdata:
   790                           	opt stack 0
   791                           
   792                           ; #config settings
   793  00FFFF  00                 	db	0	; dummy byte at the end
   794  0000                     
   795                           	psect	cinit
   796  014C7A                     __pcinit:
   797                           	opt stack 0
   798  014C7A                     start_initialization:
   799                           	opt stack 0
   800  014C7A                     __initialization:
   801                           	opt stack 0
   802                           
   803                           ; Clear objects allocated to BIGRAM (2900 bytes)
   804  014C7A  EE02  F080         	lfsr	0,__pbssBIGRAM
   805  014C7E  EE1B F054          	lfsr	1,2900
   806  014C82                     clear_0:
   807  014C82  6AEE               	clrf	postinc0,c
   808  014C84  50E5               	movf	postdec1,w,c
   809  014C86  50E1               	movf	fsr1l,w,c
   810  014C88  E1FC               	bnz	clear_0
   811  014C8A  50E2               	movf	fsr1h,w,c
   812  014C8C  E1FA               	bnz	clear_0
   813                           
   814                           ; Clear objects allocated to BANK2 (128 bytes)
   815  014C8E  EE02  F000         	lfsr	0,__pbssBANK2
   816  014C92  0E80               	movlw	128
   817  014C94                     clear_1:
   818  014C94  6AEE               	clrf	postinc0,c
   819  014C96  06E8               	decf	wreg,f,c
   820  014C98  E1FD               	bnz	clear_1
   821                           
   822                           ; Clear objects allocated to BANK1 (188 bytes)
   823  014C9A  EE01  F000         	lfsr	0,__pbssBANK1
   824  014C9E  0EBC               	movlw	188
   825  014CA0                     clear_2:
   826  014CA0  6AEE               	clrf	postinc0,c
   827  014CA2  06E8               	decf	wreg,f,c
   828  014CA4  E1FD               	bnz	clear_2
   829                           
   830                           ; Clear objects allocated to BANK0 (98 bytes)
   831  014CA6  EE00  F060         	lfsr	0,__pbssBANK0
   832  014CAA  0E62               	movlw	98
   833  014CAC                     clear_3:
   834  014CAC  6AEE               	clrf	postinc0,c
   835  014CAE  06E8               	decf	wreg,f,c
   836  014CB0  E1FD               	bnz	clear_3
   837                           
   838                           ; Clear objects allocated to COMRAM (31 bytes)
   839  014CB2  EE00  F021         	lfsr	0,__pbssCOMRAM
   840  014CB6  0E1F               	movlw	31
   841  014CB8                     clear_4:
   842  014CB8  6AEE               	clrf	postinc0,c
   843  014CBA  06E8               	decf	wreg,f,c
   844  014CBC  E1FD               	bnz	clear_4
   845                           
   846                           ; Initialize objects allocated to BANK0 (2 bytes)
   847                           ; load TBLPTR registers with __pidataBANK0
   848  014CBE  0EFA               	movlw	low __pidataBANK0
   849  014CC0  6EF6               	movwf	tblptrl,c
   850  014CC2  0E4F               	movlw	high __pidataBANK0
   851  014CC4  6EF7               	movwf	tblptrh,c
   852  014CC6  0E01               	movlw	low (__pidataBANK0 shr (0+16))
   853  014CC8  6EF8               	movwf	tblptru,c
   854  014CCA  0009               	tblrd		*+	;fetch initializer
   855  014CCC  CFF5 F0F0          	movff	tablat,__pdataBANK0
   856  014CD0  0009               	tblrd		*+	;fetch initializer
   857  014CD2  CFF5 F0F1          	movff	tablat,__pdataBANK0+1
   858                           
   859                           ; Initialize objects allocated to COMRAM (1 bytes)
   860                           ; load TBLPTR registers with __pidataCOMRAM
   861  014CD6  0EFC               	movlw	low __pidataCOMRAM
   862  014CD8  6EF6               	movwf	tblptrl,c
   863  014CDA  0E4F               	movlw	high __pidataCOMRAM
   864  014CDC  6EF7               	movwf	tblptrh,c
   865  014CDE  0E01               	movlw	low (__pidataCOMRAM shr (0+16))
   866  014CE0  6EF8               	movwf	tblptru,c
   867  014CE2  0009               	tblrd		*+	;fetch initializer
   868  014CE4  CFF5 F040          	movff	tablat,__pdataCOMRAM
   869  014CE8                     end_of_initialization:
   870                           	opt stack 0
   871  014CE8                     __end_of__initialization:
   872                           	opt stack 0
   873  014CE8  0100               	movlb	0
   874  014CEA  EFEF  F0A0         	goto	_main	;jump to C main() function
   875                           tblptru	equ	0xFF8
   876                           tblptrh	equ	0xFF7
   877                           tblptrl	equ	0xFF6
   878                           tablat	equ	0xFF5
   879                           postinc0	equ	0xFEE
   880                           wreg	equ	0xFE8
   881                           postdec1	equ	0xFE5
   882                           fsr1h	equ	0xFE2
   883                           fsr1l	equ	0xFE1
   884                           
   885                           	psect	bssCOMRAM
   886  000021                     __pbssCOMRAM:
   887                           	opt stack 0
   888  000021                     _Ctime:
   889                           	opt stack 0
   890  000021                     	ds	2
   891  000023                     _buffer1Write:
   892                           	opt stack 0
   893  000023                     	ds	2
   894  000025                     _buffer2Write:
   895                           	opt stack 0
   896  000025                     	ds	2
   897  000027                     _compteurTimer0:
   898                           	opt stack 0
   899  000027                     	ds	2
   900  000029                     _idReceived:
   901                           	opt stack 0
   902  000029                     	ds	2
   903  00002B                     _mcStartGSM:
   904                           	opt stack 0
   905  00002B                     	ds	2
   906  00002D                     _nbOfChar:
   907                           	opt stack 0
   908  00002D                     	ds	2
   909  00002F                     _USART1_Status:
   910                           	opt stack 0
   911  00002F                     	ds	1
   912  000030                     _USART2_Status:
   913                           	opt stack 0
   914  000030                     	ds	1
   915  000031                     _VERROR_E:
   916                           	opt stack 0
   917  000031                     	ds	1
   918  000032                     _VERROR_O:
   919                           	opt stack 0
   920  000032                     	ds	1
   921  000033                     _VERROR_R:
   922                           	opt stack 0
   923  000033                     	ds	1
   924  000034                     _VKA:
   925                           	opt stack 0
   926  000034                     	ds	1
   927  000035                     _VO:
   928                           	opt stack 0
   929  000035                     	ds	1
   930  000036                     _VSOH:
   931                           	opt stack 0
   932  000036                     	ds	1
   933  000037                     _VSOok:
   934                           	opt stack 0
   935  000037                     	ds	1
   936  000038                     _VstartReady:
   937                           	opt stack 0
   938  000038                     	ds	1
   939  000039                     _Vstarta:
   940                           	opt stack 0
   941  000039                     	ds	1
   942  00003A                     _Vstartd:
   943                           	opt stack 0
   944  00003A                     	ds	1
   945  00003B                     _Vstarte:
   946                           	opt stack 0
   947  00003B                     	ds	1
   948  00003C                     _howtimeIsIt:
   949                           	opt stack 0
   950  00003C                     	ds	1
   951  00003D                     _rx:
   952                           	opt stack 0
   953  00003D                     	ds	1
   954  00003E                     _rx2:
   955                           	opt stack 0
   956  00003E                     	ds	1
   957  00003F                     _takeTime:
   958                           	opt stack 0
   959  00003F                     	ds	1
   960                           tblptru	equ	0xFF8
   961                           tblptrh	equ	0xFF7
   962                           tblptrl	equ	0xFF6
   963                           tablat	equ	0xFF5
   964                           postinc0	equ	0xFEE
   965                           wreg	equ	0xFE8
   966                           postdec1	equ	0xFE5
   967                           fsr1h	equ	0xFE2
   968                           fsr1l	equ	0xFE1
   969                           
   970                           	psect	dataCOMRAM
   971  000040                     __pdataCOMRAM:
   972                           	opt stack 0
   973  000040                     _VpowerSensor:
   974                           	opt stack 0
   975  000040                     	ds	1
   976                           tblptru	equ	0xFF8
   977                           tblptrh	equ	0xFF7
   978                           tblptrl	equ	0xFF6
   979                           tablat	equ	0xFF5
   980                           postinc0	equ	0xFEE
   981                           wreg	equ	0xFE8
   982                           postdec1	equ	0xFE5
   983                           fsr1h	equ	0xFE2
   984                           fsr1l	equ	0xFE1
   985                           
   986                           	psect	bssBANK0
   987  000060                     __pbssBANK0:
   988                           	opt stack 0
   989  000060                     STrLengh@F9790:
   990                           	opt stack 0
   991  000060                     	ds	10
   992  00006A                     sendJsonDO@F9779:
   993                           	opt stack 0
   994  00006A                     	ds	10
   995  000074                     POST@F9759:
   996                           	opt stack 0
   997  000074                     	ds	4
   998  000078                     _ChecksumReceived:
   999                           	opt stack 0
  1000  000078                     	ds	2
  1001  00007A                     _buffer1Read:
  1002                           	opt stack 0
  1003  00007A                     	ds	2
  1004  00007C                     _buffer2Read:
  1005                           	opt stack 0
  1006  00007C                     	ds	2
  1007  00007E                     _checksumtoChesck:
  1008                           	opt stack 0
  1009  00007E                     	ds	2
  1010  000080                     _dataLenghtoReceived:
  1011                           	opt stack 0
  1012  000080                     	ds	2
  1013  000082                     _mcPostGSM:
  1014                           	opt stack 0
  1015  000082                     	ds	2
  1016  000084                     _nbFrameDO:
  1017                           	opt stack 0
  1018  000084                     	ds	2
  1019  000086                     _nbFrameEC:
  1020                           	opt stack 0
  1021  000086                     	ds	2
  1022  000088                     _nbFramePH:
  1023                           	opt stack 0
  1024  000088                     	ds	2
  1025  00008A                     _nbFrameTDS:
  1026                           	opt stack 0
  1027  00008A                     	ds	2
  1028  00008C                     _readingTime:
  1029                           	opt stack 0
  1030  00008C                     	ds	2
  1031  00008E                     _valuTestCheckSum:
  1032                           	opt stack 0
  1033  00008E                     	ds	2
  1034  000090                     _virguleRecu:
  1035                           	opt stack 0
  1036  000090                     	ds	2
  1037  000092                     _VFC:
  1038                           	opt stack 0
  1039  000092                     	ds	1
  1040  000093                     _VPH:
  1041                           	opt stack 0
  1042  000093                     	ds	1
  1043  000094                     _VPOST:
  1044                           	opt stack 0
  1045  000094                     	ds	1
  1046  000095                     _Vg:
  1047                           	opt stack 0
  1048  000095                     	ds	1
  1049  000096                     _Vo:
  1050                           	opt stack 0
  1051  000096                     	ds	1
  1052  000097                     _Vq:
  1053                           	opt stack 0
  1054  000097                     	ds	1
  1055  000098                     _VtrameReceived:
  1056                           	opt stack 0
  1057  000098                     	ds	1
  1058  000099                     _Vu:
  1059                           	opt stack 0
  1060  000099                     	ds	1
  1061  00009A                     _Vy:
  1062                           	opt stack 0
  1063  00009A                     	ds	1
  1064  00009B                     _timetoPost:
  1065                           	opt stack 0
  1066  00009B                     	ds	27
  1067  0000B6                     _timetoPost2:
  1068                           	opt stack 0
  1069  0000B6                     	ds	10
  1070  0000C0                     _CtoS:
  1071                           	opt stack 0
  1072  0000C0                     	ds	2
  1073                           tblptru	equ	0xFF8
  1074                           tblptrh	equ	0xFF7
  1075                           tblptrl	equ	0xFF6
  1076                           tablat	equ	0xFF5
  1077                           postinc0	equ	0xFEE
  1078                           wreg	equ	0xFE8
  1079                           postdec1	equ	0xFE5
  1080                           fsr1h	equ	0xFE2
  1081                           fsr1l	equ	0xFE1
  1082                           
  1083                           	psect	dataBANK0
  1084  0000F0                     __pdataBANK0:
  1085                           	opt stack 0
  1086  0000F0                     _VOK:
  1087                           	opt stack 0
  1088  0000F0                     	ds	1
  1089  0000F1                     _timeRE:
  1090                           	opt stack 0
  1091  0000F1                     	ds	1
  1092                           tblptru	equ	0xFF8
  1093                           tblptrh	equ	0xFF7
  1094                           tblptrl	equ	0xFF6
  1095                           tablat	equ	0xFF5
  1096                           postinc0	equ	0xFEE
  1097                           wreg	equ	0xFE8
  1098                           postdec1	equ	0xFE5
  1099                           fsr1h	equ	0xFE2
  1100                           fsr1l	equ	0xFE1
  1101                           
  1102                           	psect	bssBANK1
  1103  000100                     __pbssBANK1:
  1104                           	opt stack 0
  1105  000100                     _bufferint1:
  1106                           	opt stack 0
  1107  000100                     	ds	128
  1108  000180                     _timeReceived:
  1109                           	opt stack 0
  1110  000180                     	ds	30
  1111  00019E                     _trameToParse:
  1112                           	opt stack 0
  1113  00019E                     	ds	30
  1114                           tblptru	equ	0xFF8
  1115                           tblptrh	equ	0xFF7
  1116                           tblptrl	equ	0xFF6
  1117                           tablat	equ	0xFF5
  1118                           postinc0	equ	0xFEE
  1119                           wreg	equ	0xFE8
  1120                           postdec1	equ	0xFE5
  1121                           fsr1h	equ	0xFE2
  1122                           fsr1l	equ	0xFE1
  1123                           
  1124                           	psect	bssBANK2
  1125  000200                     __pbssBANK2:
  1126                           	opt stack 0
  1127  000200                     _bufferint2:
  1128                           	opt stack 0
  1129  000200                     	ds	128
  1130                           tblptru	equ	0xFF8
  1131                           tblptrh	equ	0xFF7
  1132                           tblptrl	equ	0xFF6
  1133                           tablat	equ	0xFF5
  1134                           postinc0	equ	0xFEE
  1135                           wreg	equ	0xFE8
  1136                           postdec1	equ	0xFE5
  1137                           fsr1h	equ	0xFE2
  1138                           fsr1l	equ	0xFE1
  1139                           
  1140                           	psect	bssBIGRAM
  1141  000280                     __pbssBIGRAM:
  1142                           	opt stack 0
  1143  000280                     _dataToSend:
  1144                           	opt stack 0
  1145  000280                     	ds	1500
  1146  00085C                     _my_FrameReceived:
  1147                           	opt stack 0
  1148  00085C                     	ds	1400
  1149                           tblptru	equ	0xFF8
  1150                           tblptrh	equ	0xFF7
  1151                           tblptrl	equ	0xFF6
  1152                           tablat	equ	0xFF5
  1153                           postinc0	equ	0xFEE
  1154                           wreg	equ	0xFE8
  1155                           postdec1	equ	0xFE5
  1156                           fsr1h	equ	0xFE2
  1157                           fsr1l	equ	0xFE1
  1158                           
  1159                           	psect	cstackBANK1
  1160  0001BC                     __pcstackBANK1:
  1161                           	opt stack 0
  1162  0001BC                     sendJsonDO@bufferTEMPO:
  1163                           	opt stack 0
  1164                           
  1165                           ; 10 bytes @ 0x0
  1166  0001BC                     	ds	10
  1167  0001C6                     sendJsonDO@nbdataI:
  1168                           	opt stack 0
  1169                           
  1170                           ; 2 bytes @ 0xA
  1171  0001C6                     	ds	2
  1172  0001C8                     sendJsonDO@nbdataIPH:
  1173                           	opt stack 0
  1174                           
  1175                           ; 2 bytes @ 0xC
  1176  0001C8                     	ds	2
  1177  0001CA                     sendJsonDO@nbdataIEC:
  1178                           	opt stack 0
  1179                           
  1180                           ; 2 bytes @ 0xE
  1181  0001CA                     	ds	2
  1182  0001CC                     sendJsonDO@nbdataITDS:
  1183                           	opt stack 0
  1184                           
  1185                           ; 2 bytes @ 0x10
  1186  0001CC                     	ds	2
  1187  0001CE                     sendJsonDO@l:
  1188                           	opt stack 0
  1189                           
  1190                           ; 2 bytes @ 0x12
  1191  0001CE                     	ds	2
  1192  0001D0                     sendJsonDO@l_1439:
  1193                           	opt stack 0
  1194                           
  1195                           ; 2 bytes @ 0x14
  1196  0001D0                     	ds	2
  1197  0001D2                     sendJsonDO@l_1464:
  1198                           	opt stack 0
  1199                           
  1200                           ; 2 bytes @ 0x16
  1201  0001D2                     	ds	2
  1202  0001D4                     sendJsonDO@l_1482:
  1203                           	opt stack 0
  1204                           
  1205                           ; 2 bytes @ 0x18
  1206  0001D4                     	ds	2
  1207  0001D6                     sendJsonDO@erase:
  1208                           	opt stack 0
  1209                           
  1210                           ; 2 bytes @ 0x1A
  1211  0001D6                     	ds	2
  1212  0001D8                     sendJsonDO@erase_1454:
  1213                           	opt stack 0
  1214                           
  1215                           ; 2 bytes @ 0x1C
  1216  0001D8                     	ds	2
  1217  0001DA                     sendJsonDO@erase_1479:
  1218                           	opt stack 0
  1219                           
  1220                           ; 2 bytes @ 0x1E
  1221  0001DA                     	ds	2
  1222  0001DC                     sendJsonDO@erase_1497:
  1223                           	opt stack 0
  1224                           
  1225                           ; 2 bytes @ 0x20
  1226  0001DC                     	ds	2
  1227  0001DE                     sendJsonDO@boardDO:
  1228                           	opt stack 0
  1229                           
  1230                           ; 2 bytes @ 0x22
  1231  0001DE                     	ds	2
  1232  0001E0                     sendJsonDO@boardPH:
  1233                           	opt stack 0
  1234                           
  1235                           ; 2 bytes @ 0x24
  1236  0001E0                     	ds	2
  1237  0001E2                     sendJsonDO@boardEC:
  1238                           	opt stack 0
  1239                           
  1240                           ; 2 bytes @ 0x26
  1241  0001E2                     	ds	2
  1242  0001E4                     sendJsonDO@boardTDS:
  1243                           	opt stack 0
  1244                           
  1245                           ; 2 bytes @ 0x28
  1246  0001E4                     	ds	2
  1247                           tblptru	equ	0xFF8
  1248                           tblptrh	equ	0xFF7
  1249                           tblptrl	equ	0xFF6
  1250                           tablat	equ	0xFF5
  1251                           postinc0	equ	0xFEE
  1252                           wreg	equ	0xFE8
  1253                           postdec1	equ	0xFE5
  1254                           fsr1h	equ	0xFE2
  1255                           fsr1l	equ	0xFE1
  1256                           
  1257                           	psect	cstackBANK0
  1258  0000C2                     __pcstackBANK0:
  1259                           	opt stack 0
  1260  0000C2                     ??_firstStartGSM:
  1261  0000C2                     ?___lwdiv:
  1262                           	opt stack 0
  1263  0000C2                     ?___lwmod:
  1264                           	opt stack 0
  1265  0000C2                     ?___wmul:
  1266                           	opt stack 0
  1267  0000C2                     Write1USART@data:
  1268                           	opt stack 0
  1269  0000C2                     Write2USART@data:
  1270                           	opt stack 0
  1271  0000C2                     Open1USART@spbrg:
  1272                           	opt stack 0
  1273  0000C2                     Open2USART@spbrg:
  1274                           	opt stack 0
  1275  0000C2                     ___lwdiv@dividend:
  1276                           	opt stack 0
  1277  0000C2                     ___lwmod@dividend:
  1278                           	opt stack 0
  1279  0000C2                     ___wmul@multiplier:
  1280                           	opt stack 0
  1281                           
  1282                           ; 2 bytes @ 0x0
  1283  0000C2                     	ds	1
  1284  0000C3                     send_char1USART@text1:
  1285                           	opt stack 0
  1286  0000C3                     send_char2USART@text2:
  1287                           	opt stack 0
  1288                           
  1289                           ; 1 bytes @ 0x1
  1290  0000C3                     	ds	1
  1291  0000C4                     ??_Open1USART:
  1292  0000C4                     ??_Open2USART:
  1293  0000C4                     writeUsart1Trame@datas2:
  1294                           	opt stack 0
  1295  0000C4                     ___lwdiv@divisor:
  1296                           	opt stack 0
  1297  0000C4                     ___lwmod@divisor:
  1298                           	opt stack 0
  1299  0000C4                     ___wmul@multiplicand:
  1300                           	opt stack 0
  1301                           
  1302                           ; 2 bytes @ 0x2
  1303  0000C4                     	ds	2
  1304  0000C6                     ??___lwdiv:
  1305  0000C6                     ??___lwmod:
  1306  0000C6                     writeUsart1Trame@datatime:
  1307                           	opt stack 0
  1308  0000C6                     ___wmul@product:
  1309                           	opt stack 0
  1310                           
  1311                           ; 2 bytes @ 0x4
  1312  0000C6                     	ds	1
  1313  0000C7                     Open1USART@config:
  1314                           	opt stack 0
  1315  0000C7                     Open2USART@config:
  1316                           	opt stack 0
  1317  0000C7                     ___lwdiv@counter:
  1318                           	opt stack 0
  1319  0000C7                     ___lwmod@counter:
  1320                           	opt stack 0
  1321                           
  1322                           ; 1 bytes @ 0x5
  1323  0000C7                     	ds	1
  1324  0000C8                     ??_usartConfig:
  1325  0000C8                     ??_usartConfig2:
  1326  0000C8                     ?_strlen:
  1327                           	opt stack 0
  1328  0000C8                     ?_sprintf:
  1329                           	opt stack 0
  1330  0000C8                     writeUsart1Trame@id:
  1331                           	opt stack 0
  1332  0000C8                     sprintf@sp:
  1333                           	opt stack 0
  1334  0000C8                     ___lwdiv@quotient:
  1335                           	opt stack 0
  1336  0000C8                     strlen@s:
  1337                           	opt stack 0
  1338                           
  1339                           ; 2 bytes @ 0x6
  1340  0000C8                     	ds	1
  1341  0000C9                     usartConfig@baudRate:
  1342                           	opt stack 0
  1343  0000C9                     usartConfig2@baudRate:
  1344                           	opt stack 0
  1345                           
  1346                           ; 1 bytes @ 0x7
  1347  0000C9                     	ds	1
  1348  0000CA                     ??_strlen:
  1349  0000CA                     ??_writeUsart1Trame:
  1350  0000CA                     usartConfig@USART1config:
  1351                           	opt stack 0
  1352  0000CA                     usartConfig2@USART2config:
  1353                           	opt stack 0
  1354  0000CA                     commun_delaiMS@ms:
  1355                           	opt stack 0
  1356  0000CA                     sprintf@f:
  1357                           	opt stack 0
  1358  0000CA                     utoa@buf:
  1359                           	opt stack 0
  1360                           
  1361                           ; 2 bytes @ 0x8
  1362  0000CA                     	ds	2
  1363  0000CC                     ??_commun_delaiMS:
  1364  0000CC                     utoa@val:
  1365                           	opt stack 0
  1366  0000CC                     strlen@cp:
  1367                           	opt stack 0
  1368                           
  1369                           ; 2 bytes @ 0xA
  1370  0000CC                     	ds	1
  1371  0000CD                     commun_delaiMS@i:
  1372                           	opt stack 0
  1373                           
  1374                           ; 2 bytes @ 0xB
  1375  0000CD                     	ds	1
  1376  0000CE                     ??_executeBuffer:
  1377  0000CE                     ??_ClearMemory:
  1378  0000CE                     ??_readbuffer:
  1379  0000CE                     writeUsart2@datas:
  1380                           	opt stack 0
  1381  0000CE                     writeUsart1@datas1:
  1382                           	opt stack 0
  1383  0000CE                     utoa@base:
  1384                           	opt stack 0
  1385                           
  1386                           ; 2 bytes @ 0xC
  1387  0000CE                     	ds	1
  1388  0000CF                     writeUsart1Trame@dataLengh:
  1389                           	opt stack 0
  1390                           
  1391                           ; 2 bytes @ 0xD
  1392  0000CF                     	ds	1
  1393  0000D0                     ??_writeUsart1:
  1394  0000D0                     ??_writeUsart2:
  1395  0000D0                     ??_sprintf:
  1396  0000D0                     utoa@v:
  1397                           	opt stack 0
  1398                           
  1399                           ; 2 bytes @ 0xE
  1400  0000D0                     	ds	1
  1401  0000D1                     writeUsart1Trame@checksum:
  1402                           	opt stack 0
  1403                           
  1404                           ; 2 bytes @ 0xF
  1405  0000D1                     	ds	1
  1406  0000D2                     sprintf@flag:
  1407                           	opt stack 0
  1408  0000D2                     utoa@c:
  1409                           	opt stack 0
  1410  0000D2                     ClearMemory@erase:
  1411                           	opt stack 0
  1412  0000D2                     writeUsart2@lengh:
  1413                           	opt stack 0
  1414  0000D2                     writeUsart1@lengh:
  1415                           	opt stack 0
  1416                           
  1417                           ; 2 bytes @ 0x10
  1418  0000D2                     	ds	1
  1419  0000D3                     readbuffer@erase:
  1420                           	opt stack 0
  1421  0000D3                     executeBuffer@w:
  1422                           	opt stack 0
  1423  0000D3                     writeUsart1Trame@lengh:
  1424                           	opt stack 0
  1425  0000D3                     sprintf@ap:
  1426                           	opt stack 0
  1427  0000D3                     itoa@buf:
  1428                           	opt stack 0
  1429                           
  1430                           ; 2 bytes @ 0x11
  1431  0000D3                     	ds	1
  1432  0000D4                     ??_startGSM:
  1433  0000D4                     ClearMemory@erase_1122:
  1434                           	opt stack 0
  1435                           
  1436                           ; 2 bytes @ 0x12
  1437  0000D4                     	ds	1
  1438  0000D5                     ??_sendGSM:
  1439  0000D5                     sprintf@c:
  1440                           	opt stack 0
  1441  0000D5                     readbuffer@erase_1712:
  1442                           	opt stack 0
  1443  0000D5                     executeBuffer@y:
  1444                           	opt stack 0
  1445  0000D5                     itoa@val:
  1446                           	opt stack 0
  1447                           
  1448                           ; 2 bytes @ 0x13
  1449  0000D5                     	ds	1
  1450  0000D6                     ClearMemory@erase_1123:
  1451                           	opt stack 0
  1452  0000D6                     sprintf@_val:
  1453                           	opt stack 0
  1454                           
  1455                           ; 4 bytes @ 0x14
  1456  0000D6                     	ds	1
  1457  0000D7                     readbuffer@erase_1713:
  1458                           	opt stack 0
  1459  0000D7                     itoa@base:
  1460                           	opt stack 0
  1461                           
  1462                           ; 2 bytes @ 0x15
  1463  0000D7                     	ds	1
  1464  0000D8                     ClearMemory@erase_1124:
  1465                           	opt stack 0
  1466                           
  1467                           ; 2 bytes @ 0x16
  1468  0000D8                     	ds	1
  1469  0000D9                     readbuffer@erase_1714:
  1470                           	opt stack 0
  1471  0000D9                     itoa@cp:
  1472                           	opt stack 0
  1473                           
  1474                           ; 2 bytes @ 0x17
  1475  0000D9                     	ds	1
  1476  0000DA                     ??_sendJsonDO:
  1477  0000DA                     ClearMemory@g:
  1478                           	opt stack 0
  1479                           
  1480                           ; 2 bytes @ 0x18
  1481  0000DA                     	ds	1
  1482  0000DB                     readbuffer@br1:
  1483                           	opt stack 0
  1484                           
  1485                           ; 1 bytes @ 0x19
  1486  0000DB                     	ds	1
  1487  0000DC                     readbuffer@g:
  1488                           	opt stack 0
  1489                           
  1490                           ; 2 bytes @ 0x1A
  1491  0000DC                     	ds	2
  1492  0000DE                     readbuffer@br2:
  1493                           	opt stack 0
  1494                           
  1495                           ; 1 bytes @ 0x1C
  1496  0000DE                     	ds	1
  1497  0000DF                     ??_POST:
  1498                           
  1499                           ; 0 bytes @ 0x1D
  1500  0000DF                     	ds	1
  1501  0000E0                     POST@STrLenghC:
  1502                           	opt stack 0
  1503                           
  1504                           ; 4 bytes @ 0x1E
  1505  0000E0                     	ds	4
  1506  0000E4                     POST@STrLenghI:
  1507                           	opt stack 0
  1508                           
  1509                           ; 2 bytes @ 0x22
  1510  0000E4                     	ds	2
  1511  0000E6                     POST@erase:
  1512                           	opt stack 0
  1513                           
  1514                           ; 2 bytes @ 0x24
  1515  0000E6                     	ds	2
  1516  0000E8                     POST@v:
  1517                           	opt stack 0
  1518                           
  1519                           ; 2 bytes @ 0x26
  1520  0000E8                     	ds	2
  1521  0000EA                     
  1522                           ; 2 bytes @ 0x28
  1523  0000EA                     	ds	2
  1524  0000EC                     
  1525                           ; 3 bytes @ 0x2A
  1526  0000EC                     	ds	3
  1527  0000EF                     ??_main:
  1528                           
  1529                           ; 0 bytes @ 0x2D
  1530  0000EF                     	ds	1
  1531                           tblptru	equ	0xFF8
  1532                           tblptrh	equ	0xFF7
  1533                           tblptrl	equ	0xFF6
  1534                           tablat	equ	0xFF5
  1535                           postinc0	equ	0xFEE
  1536                           wreg	equ	0xFE8
  1537                           postdec1	equ	0xFE5
  1538                           fsr1h	equ	0xFE2
  1539                           fsr1l	equ	0xFE1
  1540                           
  1541                           	psect	cstackCOMRAM
  1542  000001                     __pcstackCOMRAM:
  1543                           	opt stack 0
  1544  000001                     ??_low_isr:
  1545  000001                     
  1546                           ; 1 bytes @ 0x0
  1547  000001                     	ds	17
  1548  000012                     Read1USART@data:
  1549                           	opt stack 0
  1550  000012                     Read2USART@data:
  1551                           	opt stack 0
  1552                           
  1553                           ; 1 bytes @ 0x11
  1554  000012                     	ds	1
  1555  000013                     ??_high_isr:
  1556                           
  1557                           ; 0 bytes @ 0x12
  1558  000013                     	ds	14
  1559                           tblptru	equ	0xFF8
  1560                           tblptrh	equ	0xFF7
  1561                           tblptrl	equ	0xFF6
  1562                           tablat	equ	0xFF5
  1563                           postinc0	equ	0xFEE
  1564                           wreg	equ	0xFE8
  1565                           postdec1	equ	0xFE5
  1566                           fsr1h	equ	0xFE2
  1567                           fsr1l	equ	0xFE1
  1568                           
  1569 ;;
  1570 ;;Main: autosize = 0, tempsize = 1, incstack = 0, save=0
  1571 ;;
  1572 ;; *************** function _main *****************
  1573 ;; Defined at:
  1574 ;;		line 23 in file "main.c"
  1575 ;; Parameters:    Size  Location     Type
  1576 ;;  argc            2   40[BANK0 ] int 
  1577 ;;  argv            3   42[BANK0 ] PTR PTR unsigned char 
  1578 ;; Auto vars:     Size  Location     Type
  1579 ;;		None
  1580 ;; Return value:  Size  Location     Type
  1581 ;;                  2   40[BANK0 ] int 
  1582 ;; Registers used:
  1583 ;;		wreg, fsr0l, fsr0h, fsr1l, fsr1h, fsr1l, fsr1h, fsr2l, fsr2h, status,2, status,0, pclat, btemp, btemp+1, btemp+2, bt
      +emp+3, btemp+4, btemp+5, btemp+6, btemp+7, btemp+8, btemp+9, btemp+10, btemp+11, tosl, structret, tblptrl, tblptrh, tblp
      +tru, prodl, prodh, bsr, cstack
  1584 ;; Tracked objects:
  1585 ;;		On entry : 0/0
  1586 ;;		On exit  : 0/0
  1587 ;;		Unchanged: 0/0
  1588 ;; Data sizes:     COMRAM   BANK0   BANK1   BANK2   BANK3   BANK4   BANK5   BANK6   BANK7   BANK8   BANK9  BANK10  BANK1
      +1  BANK12  BANK13  BANK14
  1589 ;;      Params:         0       5       0       0       0       0       0       0       0       0       0       0       
      +0       0       0       0
  1590 ;;      Locals:         0       0       0       0       0       0       0       0       0       0       0       0       
      +0       0       0       0
  1591 ;;      Temps:          0       1       0       0       0       0       0       0       0       0       0       0       
      +0       0       0       0
  1592 ;;      Totals:         0       6       0       0       0       0       0       0       0       0       0       0       
      +0       0       0       0
  1593 ;;Total ram usage:        6 bytes
  1594 ;; Hardware stack levels required when called:    7
  1595 ;; This function calls:
  1596 ;;		_ClearMemory
  1597 ;;		_POST
  1598 ;;		_RtccInitClock
  1599 ;;		_commun_initialisationRegistres
  1600 ;;		_executeBuffer
  1601 ;;		_firstStartGSM
  1602 ;;		_initialisation_ActiverTimer0
  1603 ;;		_readbuffer
  1604 ;;		_sendGSM
  1605 ;;		_startGSM
  1606 ;;		_usartConfig
  1607 ;;		_usartConfig2
  1608 ;;		_writeUsart1
  1609 ;; This function is called by:
  1610 ;;		Startup code after reset
  1611 ;; This function uses a non-reentrant model
  1612 ;;
  1613                           
  1614                           	psect	text0
  1615  0141DE                     __ptext0:
  1616                           	opt stack 0
  1617  0141DE                     _main:
  1618                           	opt stack 24
  1619                           
  1620                           ;main.c: 26: commun_initialisationRegistres();
  1621                           
  1622                           ;incstack = 0
  1623  0141DE  ECB7  F0A7         	call	_commun_initialisationRegistres	;wreg free
  1624                           
  1625                           ;main.c: 27: initialisation_ActiverTimer0();
  1626  0141E2  EC88  F0A7         	call	_initialisation_ActiverTimer0	;wreg free
  1627                           
  1628                           ;main.c: 28: usartConfig();
  1629  0141E6  EC4A  F0A7         	call	_usartConfig	;wreg free
  1630                           
  1631                           ;main.c: 29: usartConfig2();
  1632  0141EA  EC77  F0A6         	call	_usartConfig2	;wreg free
  1633                           
  1634                           ;main.c: 30: RtccInitClock();
  1635  0141EE  EC71  F0A7         	call	_RtccInitClock	;wreg free
  1636                           
  1637                           ;main.c: 31: writeUsart1((char*)"depart \r");
  1638  0141F2  0EFF               	movlw	high STR_1
  1639  0141F4  0100               	movlb	0	; () banked
  1640  0141F6  0100               	movlb	0	; () banked
  1641  0141F8  6FCF               	movwf	(writeUsart1@datas1+1)& (0+255),b
  1642  0141FA  0EA6               	movlw	low STR_1
  1643  0141FC  0100               	movlb	0	; () banked
  1644  0141FE  0100               	movlb	0	; () banked
  1645  014200  6FCE               	movwf	writeUsart1@datas1& (0+255),b
  1646  014202  ECF1  F0A2         	call	_writeUsart1	;wreg free
  1647                           
  1648                           ;main.c: 32: firstStartGSM();
  1649  014206  EC7D  F0A5         	call	_firstStartGSM	;wreg free
  1650  01420A                     l6740:
  1651                           
  1652                           ;main.c: 35: {
  1653                           ;main.c: 36: if(buffer1Write == buffer1Read && buffer2Write == buffer2Read)
  1654  01420A  0100               	movlb	0	; () banked
  1655  01420C  0100               	movlb	0	; () banked
  1656  01420E  517B               	movf	(_buffer1Read+1)& (0+255),w,b
  1657  014210  1824               	xorwf	_buffer1Write+1,w,c
  1658  014212  E104               	bnz	u4945
  1659  014214  0100               	movlb	0	; () banked
  1660  014216  0100               	movlb	0	; () banked
  1661  014218  517A               	movf	_buffer1Read& (0+255),w,b
  1662  01421A  1823               	xorwf	_buffer1Write,w,c
  1663  01421C                     u4945:
  1664  01421C  A4D8               	btfss	status,2,c
  1665  01421E  D09B               	goto	l6788
  1666                           
  1667                           ; BSR set to: 0
  1668  014220  0100               	movlb	0	; () banked
  1669  014222  0100               	movlb	0	; () banked
  1670  014224  517D               	movf	(_buffer2Read+1)& (0+255),w,b
  1671  014226  1826               	xorwf	_buffer2Write+1,w,c
  1672  014228  E104               	bnz	u4955
  1673  01422A  0100               	movlb	0	; () banked
  1674  01422C  0100               	movlb	0	; () banked
  1675  01422E  517C               	movf	_buffer2Read& (0+255),w,b
  1676  014230  1825               	xorwf	_buffer2Write,w,c
  1677  014232                     u4955:
  1678  014232  A4D8               	btfss	status,2,c
  1679  014234  D090               	goto	l6788
  1680                           
  1681                           ; BSR set to: 0
  1682                           ;main.c: 37: {
  1683                           ;main.c: 38: if(readingTime>14400)
  1684  014236  0100               	movlb	0	; () banked
  1685  014238  0100               	movlb	0	; () banked
  1686  01423A  518D               	movf	(_readingTime+1)& (0+255),w,b
  1687  01423C  0A80               	xorlw	128
  1688  01423E  0F48               	addlw	-184
  1689  014240  0E41               	movlw	65
  1690  014242  B4D8               	btfsc	status,2,c
  1691  014244  5D8C               	subwf	_readingTime& (0+255),w,b
  1692  014246  A0D8               	btfss	status,0,c
  1693  014248  D009               	goto	l6750
  1694                           
  1695                           ; BSR set to: 0
  1696                           ;main.c: 39: {
  1697                           ;main.c: 40: readingTime = 0;
  1698  01424A  0E00               	movlw	0
  1699  01424C  0100               	movlb	0	; () banked
  1700  01424E  0100               	movlb	0	; () banked
  1701  014250  6F8D               	movwf	(_readingTime+1)& (0+255),b
  1702  014252  0E00               	movlw	0
  1703  014254  0100               	movlb	0	; () banked
  1704  014256  6F8C               	movwf	_readingTime& (0+255),b
  1705                           
  1706                           ; BSR set to: 0
  1707                           ;main.c: 41: sendGSM();
  1708  014258  ECD7  F0A3         	call	_sendGSM	;wreg free
  1709  01425C                     l6750:
  1710                           
  1711                           ;main.c: 42: }
  1712                           ;main.c: 43: if(VtrameReceived)
  1713  01425C  0100               	movlb	0	; () banked
  1714  01425E  0100               	movlb	0	; () banked
  1715  014260  5198               	movf	_VtrameReceived& (0+255),w,b
  1716  014262  B4D8               	btfsc	status,2,c
  1717  014264  D00A               	goto	l6756
  1718                           
  1719                           ; BSR set to: 0
  1720                           ;main.c: 44: {
  1721                           ;main.c: 45: executeBuffer();
  1722  014266  EC9E  F091         	call	_executeBuffer	;wreg free
  1723                           
  1724                           ;main.c: 46: VtrameReceived = 0;
  1725  01426A  0100               	movlb	0	; () banked
  1726  01426C  6FEF               	movwf	??_main& (0+255),b
  1727  01426E  0E00               	movlw	0
  1728  014270  0100               	movlb	0	; () banked
  1729  014272  0100               	movlb	0	; () banked
  1730  014274  6F98               	movwf	_VtrameReceived& (0+255),b
  1731  014276  0100               	movlb	0	; () banked
  1732  014278  51EF               	movf	??_main& (0+255),w,b
  1733  01427A                     l6756:
  1734                           
  1735                           ; BSR set to: 0
  1736                           ;main.c: 47: }
  1737                           ;main.c: 48: if(Vg)
  1738  01427A  0100               	movlb	0	; () banked
  1739  01427C  0100               	movlb	0	; () banked
  1740  01427E  5195               	movf	_Vg& (0+255),w,b
  1741  014280  B4D8               	btfsc	status,2,c
  1742  014282  D040               	goto	l6766
  1743                           
  1744                           ; BSR set to: 0
  1745                           ;main.c: 49: {
  1746                           ;main.c: 50: Vy = 0;
  1747  014284  0100               	movlb	0	; () banked
  1748  014286  6FEF               	movwf	??_main& (0+255),b
  1749  014288  0E00               	movlw	0
  1750  01428A  0100               	movlb	0	; () banked
  1751  01428C  0100               	movlb	0	; () banked
  1752  01428E  6F9A               	movwf	_Vy& (0+255),b
  1753  014290  0100               	movlb	0	; () banked
  1754  014292  51EF               	movf	??_main& (0+255),w,b
  1755                           
  1756                           ;main.c: 51: VPOST = 1;
  1757  014294  0100               	movlb	0	; () banked
  1758  014296  6FEF               	movwf	??_main& (0+255),b
  1759  014298  0E01               	movlw	1
  1760  01429A  0100               	movlb	0	; () banked
  1761  01429C  0100               	movlb	0	; () banked
  1762  01429E  6F94               	movwf	_VPOST& (0+255),b
  1763  0142A0  0100               	movlb	0	; () banked
  1764  0142A2  51EF               	movf	??_main& (0+255),w,b
  1765                           
  1766                           ;main.c: 52: Vg = 0;
  1767  0142A4  0100               	movlb	0	; () banked
  1768  0142A6  6FEF               	movwf	??_main& (0+255),b
  1769  0142A8  0E00               	movlw	0
  1770  0142AA  0100               	movlb	0	; () banked
  1771  0142AC  0100               	movlb	0	; () banked
  1772  0142AE  6F95               	movwf	_Vg& (0+255),b
  1773  0142B0  0100               	movlb	0	; () banked
  1774  0142B2  51EF               	movf	??_main& (0+255),w,b
  1775                           
  1776                           ;main.c: 53: VOK = 0;
  1777  0142B4  0100               	movlb	0	; () banked
  1778  0142B6  6FEF               	movwf	??_main& (0+255),b
  1779  0142B8  0E00               	movlw	0
  1780  0142BA  0100               	movlb	0	; () banked
  1781  0142BC  0100               	movlb	0	; () banked
  1782  0142BE  6FF0               	movwf	_VOK& (0+255),b
  1783  0142C0  0100               	movlb	0	; () banked
  1784  0142C2  51EF               	movf	??_main& (0+255),w,b
  1785                           
  1786                           ;main.c: 54: VPH = 0;
  1787  0142C4  0100               	movlb	0	; () banked
  1788  0142C6  6FEF               	movwf	??_main& (0+255),b
  1789  0142C8  0E00               	movlw	0
  1790  0142CA  0100               	movlb	0	; () banked
  1791  0142CC  0100               	movlb	0	; () banked
  1792  0142CE  6F93               	movwf	_VPH& (0+255),b
  1793  0142D0  0100               	movlb	0	; () banked
  1794  0142D2  51EF               	movf	??_main& (0+255),w,b
  1795                           
  1796                           ;main.c: 55: VFC = 0;
  1797  0142D4  0100               	movlb	0	; () banked
  1798  0142D6  6FEF               	movwf	??_main& (0+255),b
  1799  0142D8  0E00               	movlw	0
  1800  0142DA  0100               	movlb	0	; () banked
  1801  0142DC  0100               	movlb	0	; () banked
  1802  0142DE  6F92               	movwf	_VFC& (0+255),b
  1803  0142E0  0100               	movlb	0	; () banked
  1804  0142E2  51EF               	movf	??_main& (0+255),w,b
  1805                           
  1806                           ; BSR set to: 0
  1807                           ;main.c: 56: mcPostGSM =9;
  1808  0142E4  0E00               	movlw	0
  1809  0142E6  0100               	movlb	0	; () banked
  1810  0142E8  0100               	movlb	0	; () banked
  1811  0142EA  6F83               	movwf	(_mcPostGSM+1)& (0+255),b
  1812  0142EC  0E09               	movlw	9
  1813  0142EE  0100               	movlb	0	; () banked
  1814  0142F0  6F82               	movwf	_mcPostGSM& (0+255),b
  1815                           
  1816                           ; BSR set to: 0
  1817                           ;main.c: 57: mcStartGSM = 0;
  1818  0142F2  0E00               	movlw	0
  1819  0142F4  6E2C               	movwf	_mcStartGSM+1,c
  1820  0142F6  0E00               	movlw	0
  1821  0142F8  6E2B               	movwf	_mcStartGSM,c
  1822                           
  1823                           ; BSR set to: 0
  1824                           ;main.c: 58: compteurTimer0 = 0;
  1825  0142FA  0E00               	movlw	0
  1826  0142FC  6E28               	movwf	_compteurTimer0+1,c
  1827  0142FE  0E00               	movlw	0
  1828  014300  6E27               	movwf	_compteurTimer0,c
  1829                           
  1830                           ;main.c: 59: }
  1831  014302  D00F               	goto	l6772
  1832  014304                     l6766:
  1833                           
  1834                           ; BSR set to: 0
  1835                           ;main.c: 60: else if(Vq)
  1836  014304  0100               	movlb	0	; () banked
  1837  014306  0100               	movlb	0	; () banked
  1838  014308  5197               	movf	_Vq& (0+255),w,b
  1839  01430A  B4D8               	btfsc	status,2,c
  1840  01430C  D00A               	goto	l6772
  1841                           
  1842                           ; BSR set to: 0
  1843                           ;main.c: 61: {
  1844                           ;main.c: 62: ClearMemory();
  1845  01430E  ECDF  F09C         	call	_ClearMemory	;wreg free
  1846                           
  1847                           ;main.c: 63: Vq = 0;
  1848  014312  0100               	movlb	0	; () banked
  1849  014314  6FEF               	movwf	??_main& (0+255),b
  1850  014316  0E00               	movlw	0
  1851  014318  0100               	movlb	0	; () banked
  1852  01431A  0100               	movlb	0	; () banked
  1853  01431C  6F97               	movwf	_Vq& (0+255),b
  1854  01431E  0100               	movlb	0	; () banked
  1855  014320  51EF               	movf	??_main& (0+255),w,b
  1856  014322                     l6772:
  1857                           
  1858                           ; BSR set to: 0
  1859                           ;main.c: 64: }
  1860                           ;main.c: 66: if(Vy)
  1861  014322  0100               	movlb	0	; () banked
  1862  014324  0100               	movlb	0	; () banked
  1863  014326  519A               	movf	_Vy& (0+255),w,b
  1864  014328  A4D8               	btfss	status,2,c
  1865                           
  1866                           ; BSR set to: 0
  1867                           ;main.c: 67: {
  1868                           ;main.c: 68: startGSM();
  1869  01432A  ECF1  F099         	call	_startGSM	;wreg free
  1870                           
  1871                           ;main.c: 69: }
  1872                           ;main.c: 70: if(VPOST)
  1873  01432E  0100               	movlb	0	; () banked
  1874  014330  0100               	movlb	0	; () banked
  1875  014332  5194               	movf	_VPOST& (0+255),w,b
  1876  014334  A4D8               	btfss	status,2,c
  1877                           
  1878                           ; BSR set to: 0
  1879                           ;main.c: 71: {
  1880                           ;main.c: 72: POST();
  1881  014336  ECF4  F096         	call	_POST	;wreg free
  1882                           
  1883                           ;main.c: 73: }
  1884                           ;main.c: 74: if(Vo)
  1885  01433A  0100               	movlb	0	; () banked
  1886  01433C  0100               	movlb	0	; () banked
  1887  01433E  5196               	movf	_Vo& (0+255),w,b
  1888  014340  A4D8               	btfss	status,2,c
  1889                           
  1890                           ; BSR set to: 0
  1891                           ;main.c: 75: {
  1892                           ;main.c: 76: sendGSM();
  1893  014342  ECD7  F0A3         	call	_sendGSM	;wreg free
  1894                           
  1895                           ;main.c: 77: }
  1896                           ;main.c: 79: if(Vu)
  1897  014346  0100               	movlb	0	; () banked
  1898  014348  0100               	movlb	0	; () banked
  1899  01434A  5199               	movf	_Vu& (0+255),w,b
  1900  01434C  B4D8               	btfsc	status,2,c
  1901  01434E  D75D               	goto	l6740
  1902                           
  1903                           ; BSR set to: 0
  1904                           ;main.c: 80: {
  1905                           ;main.c: 81: usartConfig2();
  1906  014350  EC77  F0A6         	call	_usartConfig2	;wreg free
  1907  014354  D75A               	goto	l6740
  1908  014356                     l6788:
  1909                           
  1910                           ;main.c: 84: else
  1911                           ;main.c: 85: {
  1912                           ;main.c: 86: readbuffer();
  1913  014356  EC42  F08B         	call	_readbuffer	;wreg free
  1914  01435A  D757               	goto	l6740
  1915  01435C                     __end_of_main:
  1916                           	opt stack 0
  1917                           tblptru	equ	0xFF8
  1918                           tblptrh	equ	0xFF7
  1919                           tblptrl	equ	0xFF6
  1920                           tablat	equ	0xFF5
  1921                           postinc0	equ	0xFEE
  1922                           wreg	equ	0xFE8
  1923                           postdec1	equ	0xFE5
  1924                           fsr1h	equ	0xFE2
  1925                           fsr1l	equ	0xFE1
  1926                           status	equ	0xFD8
  1927                           
  1928 ;; *************** function _writeUsart1 *****************
  1929 ;; Defined at:
  1930 ;;		line 33 in file "usart.c"
  1931 ;; Parameters:    Size  Location     Type
  1932 ;;  datas1          2   12[BANK0 ] PTR unsigned char 
  1933 ;;		 -> STR_1(9), 
  1934 ;; Auto vars:     Size  Location     Type
  1935 ;;  lengh           2   16[BANK0 ] int 
  1936 ;; Return value:  Size  Location     Type
  1937 ;;		None               void
  1938 ;; Registers used:
  1939 ;;		wreg, fsr0l, fsr0h, status,2, status,0, tblptrl, tblptrh, tblptru, cstack
  1940 ;; Tracked objects:
  1941 ;;		On entry : 0/0
  1942 ;;		On exit  : 0/0
  1943 ;;		Unchanged: 0/0
  1944 ;; Data sizes:     COMRAM   BANK0   BANK1   BANK2   BANK3   BANK4   BANK5   BANK6   BANK7   BANK8   BANK9  BANK10  BANK1
      +1  BANK12  BANK13  BANK14
  1945 ;;      Params:         0       2       0       0       0       0       0       0       0       0       0       0       
      +0       0       0       0
  1946 ;;      Locals:         0       2       0       0       0       0       0       0       0       0       0       0       
      +0       0       0       0
  1947 ;;      Temps:          0       2       0       0       0       0       0       0       0       0       0       0       
      +0       0       0       0
  1948 ;;      Totals:         0       6       0       0       0       0       0       0       0       0       0       0       
      +0       0       0       0
  1949 ;;Total ram usage:        6 bytes
  1950 ;; Hardware stack levels used:    1
  1951 ;; Hardware stack levels required when called:    4
  1952 ;; This function calls:
  1953 ;;		_Write1USART
  1954 ;;		_strlen
  1955 ;; This function is called by:
  1956 ;;		_main
  1957 ;; This function uses a non-reentrant model
  1958 ;;
  1959                           
  1960                           	psect	text1
  1961  0145E2                     __ptext1:
  1962                           	opt stack 0
  1963  0145E2                     _writeUsart1:
  1964                           	opt stack 26
  1965                           
  1966                           ;usart.c: 35: int lengh = 0 ;
  1967                           
  1968                           ;incstack = 0
  1969  0145E2  0E00               	movlw	0
  1970  0145E4  0100               	movlb	0	; () banked
  1971  0145E6  0100               	movlb	0	; () banked
  1972  0145E8  6FD3               	movwf	(writeUsart1@lengh+1)& (0+255),b
  1973  0145EA  0E00               	movlw	0
  1974  0145EC  0100               	movlb	0	; () banked
  1975  0145EE  6FD2               	movwf	writeUsart1@lengh& (0+255),b
  1976                           
  1977                           ; BSR set to: 0
  1978                           ;usart.c: 37: if(strlen(datas1)-1<= 1000)
  1979  0145F0  0EFF               	movlw	255
  1980  0145F2  0100               	movlb	0	; () banked
  1981  0145F4  6FD0               	movwf	??_writeUsart1& (0+255),b
  1982  0145F6  0EFF               	movlw	255
  1983  0145F8  6FD1               	movwf	(??_writeUsart1+1)& (0+255),b
  1984  0145FA  0100               	movlb	0	; () banked
  1985  0145FC  0100               	movlb	0	; () banked
  1986  0145FE  C0CF  F0C9         	movff	writeUsart1@datas1+1,strlen@s+1
  1987  014602  0100               	movlb	0	; () banked
  1988  014604  0100               	movlb	0	; () banked
  1989  014606  C0CE  F0C8         	movff	writeUsart1@datas1,strlen@s
  1990  01460A  ECFF  F0A5         	call	_strlen	;wreg free
  1991  01460E  0100               	movlb	0	; () banked
  1992  014610  51D0               	movf	??_writeUsart1& (0+255),w,b
  1993  014612  0100               	movlb	0	; () banked
  1994  014614  0100               	movlb	0	; () banked
  1995  014616  27C8               	addwf	?_strlen& (0+255),f,b
  1996  014618  0100               	movlb	0	; () banked
  1997  01461A  51D1               	movf	(??_writeUsart1+1)& (0+255),w,b
  1998  01461C  0100               	movlb	0	; () banked
  1999  01461E  0100               	movlb	0	; () banked
  2000  014620  23C9               	addwfc	(?_strlen+1)& (0+255),f,b
  2001  014622  0EE9               	movlw	233
  2002  014624  0100               	movlb	0	; () banked
  2003  014626  0100               	movlb	0	; () banked
  2004  014628  5DC8               	subwf	?_strlen& (0+255),w,b
  2005  01462A  0E03               	movlw	3
  2006  01462C  0100               	movlb	0	; () banked
  2007  01462E  59C9               	subwfb	(?_strlen+1)& (0+255),w,b
  2008  014630  B0D8               	btfsc	status,0,c
  2009  014632  0012               	return	
  2010                           
  2011                           ; BSR set to: 0
  2012                           ;usart.c: 38: {
  2013                           ;usart.c: 39: for(lengh = 0;lengh <= strlen(datas1)-1;lengh++ )
  2014  014634  0E00               	movlw	0
  2015  014636  0100               	movlb	0	; () banked
  2016  014638  0100               	movlb	0	; () banked
  2017  01463A  6FD3               	movwf	(writeUsart1@lengh+1)& (0+255),b
  2018  01463C  0E00               	movlw	0
  2019  01463E  0100               	movlb	0	; () banked
  2020  014640  6FD2               	movwf	writeUsart1@lengh& (0+255),b
  2021  014642  D020               	goto	l6840
  2022  014644                     l1141:
  2023  014644  A2AD               	btfss	4013,1,c	;volatile
  2024  014646  D7FE               	goto	l1141
  2025                           
  2026                           ;usart.c: 42: Write1USART(datas1[lengh]);
  2027  014648  0100               	movlb	0	; () banked
  2028  01464A  C0CE  F0D0         	movff	writeUsart1@datas1,??_writeUsart1
  2029  01464E  0100               	movlb	0	; () banked
  2030  014650  C0CF  F0D1         	movff	writeUsart1@datas1+1,??_writeUsart1+1
  2031  014654  0100               	movlb	0	; () banked
  2032  014656  0100               	movlb	0	; () banked
  2033  014658  51D2               	movf	writeUsart1@lengh& (0+255),w,b
  2034  01465A  0100               	movlb	0	; () banked
  2035  01465C  27D0               	addwf	??_writeUsart1& (0+255),f,b
  2036  01465E  0100               	movlb	0	; () banked
  2037  014660  0100               	movlb	0	; () banked
  2038  014662  51D3               	movf	(writeUsart1@lengh+1)& (0+255),w,b
  2039  014664  0100               	movlb	0	; () banked
  2040  014666  23D1               	addwfc	(??_writeUsart1+1)& (0+255),f,b
  2041  014668  C0D0  FFF6         	movff	??_writeUsart1,tblptrl
  2042  01466C  C0D1  FFF7         	movff	??_writeUsart1+1,tblptrh
  2043  014670  0E00               	movlw	low (__mediumconst shr (0+16))
  2044  014672  6EF8               	movwf	tblptru,c
  2045  014674  0008               	tblrd		*
  2046  014676  50F5               	movf	tablat,w,c
  2047  014678  ECD9  F0A7         	call	_Write1USART
  2048  01467C  0100               	movlb	0	; () banked
  2049  01467E  0100               	movlb	0	; () banked
  2050  014680  4BD2               	infsnz	writeUsart1@lengh& (0+255),f,b
  2051  014682  2BD3               	incf	(writeUsart1@lengh+1)& (0+255),f,b
  2052  014684                     l6840:
  2053                           
  2054                           ; BSR set to: 0
  2055  014684  0EFF               	movlw	255
  2056  014686  0100               	movlb	0	; () banked
  2057  014688  6FD0               	movwf	??_writeUsart1& (0+255),b
  2058  01468A  0EFF               	movlw	255
  2059  01468C  6FD1               	movwf	(??_writeUsart1+1)& (0+255),b
  2060  01468E  0100               	movlb	0	; () banked
  2061  014690  0100               	movlb	0	; () banked
  2062  014692  C0CF  F0C9         	movff	writeUsart1@datas1+1,strlen@s+1
  2063  014696  0100               	movlb	0	; () banked
  2064  014698  0100               	movlb	0	; () banked
  2065  01469A  C0CE  F0C8         	movff	writeUsart1@datas1,strlen@s
  2066  01469E  ECFF  F0A5         	call	_strlen	;wreg free
  2067  0146A2  0100               	movlb	0	; () banked
  2068  0146A4  51D0               	movf	??_writeUsart1& (0+255),w,b
  2069  0146A6  0100               	movlb	0	; () banked
  2070  0146A8  0100               	movlb	0	; () banked
  2071  0146AA  27C8               	addwf	?_strlen& (0+255),f,b
  2072  0146AC  0100               	movlb	0	; () banked
  2073  0146AE  51D1               	movf	(??_writeUsart1+1)& (0+255),w,b
  2074  0146B0  0100               	movlb	0	; () banked
  2075  0146B2  0100               	movlb	0	; () banked
  2076  0146B4  23C9               	addwfc	(?_strlen+1)& (0+255),f,b
  2077  0146B6  0100               	movlb	0	; () banked
  2078  0146B8  0100               	movlb	0	; () banked
  2079  0146BA  51D2               	movf	writeUsart1@lengh& (0+255),w,b
  2080  0146BC  0100               	movlb	0	; () banked
  2081  0146BE  0100               	movlb	0	; () banked
  2082  0146C0  5DC8               	subwf	?_strlen& (0+255),w,b
  2083  0146C2  0100               	movlb	0	; () banked
  2084  0146C4  0100               	movlb	0	; () banked
  2085  0146C6  51D3               	movf	(writeUsart1@lengh+1)& (0+255),w,b
  2086  0146C8  0100               	movlb	0	; () banked
  2087  0146CA  0100               	movlb	0	; () banked
  2088  0146CC  59C9               	subwfb	(?_strlen+1)& (0+255),w,b
  2089  0146CE  A0D8               	btfss	status,0,c
  2090                           
  2091                           ; BSR set to: 0
  2092                           
  2093                           ; BSR set to: 0
  2094                           
  2095                           ; BSR set to: 0
  2096  0146D0  0012               	return	
  2097  0146D2  D7B8               	goto	l1141
  2098  0146D4                     __end_of_writeUsart1:
  2099                           	opt stack 0
  2100                           tblptru	equ	0xFF8
  2101                           tblptrh	equ	0xFF7
  2102                           tblptrl	equ	0xFF6
  2103                           tablat	equ	0xFF5
  2104                           postinc0	equ	0xFEE
  2105                           wreg	equ	0xFE8
  2106                           postdec1	equ	0xFE5
  2107                           fsr1h	equ	0xFE2
  2108                           fsr1l	equ	0xFE1
  2109                           status	equ	0xFD8
  2110                           
  2111 ;; *************** function _usartConfig2 *****************
  2112 ;; Defined at:
  2113 ;;		line 106 in file "main.c"
  2114 ;; Parameters:    Size  Location     Type
  2115 ;;		None
  2116 ;; Auto vars:     Size  Location     Type
  2117 ;;  USART2config    1    8[BANK0 ] unsigned char 
  2118 ;;  baudRate        1    7[BANK0 ] unsigned char 
  2119 ;; Return value:  Size  Location     Type
  2120 ;;		None               void
  2121 ;; Registers used:
  2122 ;;		wreg, status,2, cstack
  2123 ;; Tracked objects:
  2124 ;;		On entry : 0/0
  2125 ;;		On exit  : 0/0
  2126 ;;		Unchanged: 0/0
  2127 ;; Data sizes:     COMRAM   BANK0   BANK1   BANK2   BANK3   BANK4   BANK5   BANK6   BANK7   BANK8   BANK9  BANK10  BANK1
      +1  BANK12  BANK13  BANK14
  2128 ;;      Params:         0       0       0       0       0       0       0       0       0       0       0       0       
      +0       0       0       0
  2129 ;;      Locals:         0       2       0       0       0       0       0       0       0       0       0       0       
      +0       0       0       0
  2130 ;;      Temps:          0       1       0       0       0       0       0       0       0       0       0       0       
      +0       0       0       0
  2131 ;;      Totals:         0       3       0       0       0       0       0       0       0       0       0       0       
      +0       0       0       0
  2132 ;;Total ram usage:        3 bytes
  2133 ;; Hardware stack levels used:    1
  2134 ;; Hardware stack levels required when called:    4
  2135 ;; This function calls:
  2136 ;;		_Open2USART
  2137 ;; This function is called by:
  2138 ;;		_main
  2139 ;; This function uses a non-reentrant model
  2140 ;;
  2141                           
  2142                           	psect	text2
  2143  014CEE                     __ptext2:
  2144                           	opt stack 0
  2145  014CEE                     _usartConfig2:
  2146                           	opt stack 26
  2147                           
  2148                           ;main.c: 108: unsigned char USART2config = 0;
  2149                           
  2150                           ; BSR set to: 0
  2151                           ;incstack = 0
  2152  014CEE  0100               	movlb	0	; () banked
  2153  014CF0  6FC8               	movwf	??_usartConfig2& (0+255),b
  2154  014CF2  0E00               	movlw	0
  2155  014CF4  0100               	movlb	0	; () banked
  2156  014CF6  0100               	movlb	0	; () banked
  2157  014CF8  6FCA               	movwf	usartConfig2@USART2config& (0+255),b
  2158  014CFA  0100               	movlb	0	; () banked
  2159  014CFC  51C8               	movf	??_usartConfig2& (0+255),w,b
  2160                           
  2161                           ;main.c: 109: unsigned char baudRate = 25;
  2162  014CFE  0100               	movlb	0	; () banked
  2163  014D00  6FC8               	movwf	??_usartConfig2& (0+255),b
  2164  014D02  0E19               	movlw	25
  2165  014D04  0100               	movlb	0	; () banked
  2166  014D06  0100               	movlb	0	; () banked
  2167  014D08  6FC9               	movwf	usartConfig2@baudRate& (0+255),b
  2168  014D0A  0100               	movlb	0	; () banked
  2169  014D0C  51C8               	movf	??_usartConfig2& (0+255),w,b
  2170                           
  2171                           ; BSR set to: 0
  2172                           ;main.c: 112: PPSCON = 0x00;
  2173  014D0E  0E00               	movlw	0
  2174  014D10  010E               	movlb	14	; () banked
  2175  014D12  010E               	movlb	14	; () banked
  2176  014D14  6FBF               	movwf	191,b	;volatile
  2177                           
  2178                           ; BSR set to: 14
  2179                           ;main.c: 113: RPINR16 = 0x07;
  2180  014D16  0E07               	movlw	7
  2181  014D18  010E               	movlb	14	; () banked
  2182  014D1A  010E               	movlb	14	; () banked
  2183  014D1C  6FF7               	movwf	247,b	;volatile
  2184                           
  2185                           ; BSR set to: 14
  2186                           ;main.c: 114: RPOR8 = 0x06;
  2187  014D1E  0E06               	movlw	6
  2188  014D20  010E               	movlb	14	; () banked
  2189  014D22  010E               	movlb	14	; () banked
  2190  014D24  6FC8               	movwf	200,b	;volatile
  2191                           
  2192                           ; BSR set to: 14
  2193                           ;main.c: 115: PPSCON = 0x01;
  2194  014D26  0E01               	movlw	1
  2195  014D28  010E               	movlb	14	; () banked
  2196  014D2A  010E               	movlb	14	; () banked
  2197  014D2C  6FBF               	movwf	191,b	;volatile
  2198                           
  2199                           ; BSR set to: 14
  2200                           ;main.c: 116: ANCON0bits.PCFG0 = 1;
  2201  014D2E  010F               	movlb	15	; () banked
  2202  014D30  010F               	movlb	15	; () banked
  2203  014D32  8148               	bsf	72,0,b	;volatile
  2204                           
  2205                           ; BSR set to: 15
  2206                           ;main.c: 117: TRISAbits.TRISA1 = 0;
  2207  014D34  9292               	bcf	3986,1,c	;volatile
  2208                           
  2209                           ; BSR set to: 15
  2210                           ;main.c: 118: TRISAbits.TRISA0 = 1;
  2211  014D36  8092               	bsf	3986,0,c	;volatile
  2212                           
  2213                           ;main.c: 119: USART2config = 0b01111111 & 0b11111111 &
  2214                           ;main.c: 120: 0b11111110 & 0b11111101 & 0b11111111;
  2215  014D38  0100               	movlb	0	; () banked
  2216  014D3A  6FC8               	movwf	??_usartConfig2& (0+255),b
  2217  014D3C  0E7C               	movlw	124
  2218  014D3E  0100               	movlb	0	; () banked
  2219  014D40  0100               	movlb	0	; () banked
  2220  014D42  6FCA               	movwf	usartConfig2@USART2config& (0+255),b
  2221  014D44  0100               	movlb	0	; () banked
  2222  014D46  51C8               	movf	??_usartConfig2& (0+255),w,b
  2223                           
  2224                           ; BSR set to: 0
  2225                           ;main.c: 121: Open2USART(USART2config,baudRate);
  2226  014D48  0100               	movlb	0	; () banked
  2227  014D4A  0100               	movlb	0	; () banked
  2228  014D4C  C0C9  F0C2         	movff	usartConfig2@baudRate,Open2USART@spbrg
  2229  014D50  0100               	movlb	0	; () banked
  2230  014D52  0100               	movlb	0	; () banked
  2231  014D54  6BC3               	clrf	(Open2USART@spbrg+1)& (0+255),b
  2232  014D56  0100               	movlb	0	; () banked
  2233  014D58  0100               	movlb	0	; () banked
  2234  014D5A  51CA               	movf	usartConfig2@USART2config& (0+255),w,b
  2235  014D5C  EC3A  F0A5         	call	_Open2USART
  2236  014D60  0012               	return	
  2237  014D62                     __end_of_usartConfig2:
  2238                           	opt stack 0
  2239                           tblptru	equ	0xFF8
  2240                           tblptrh	equ	0xFF7
  2241                           tblptrl	equ	0xFF6
  2242                           tablat	equ	0xFF5
  2243                           postinc0	equ	0xFEE
  2244                           wreg	equ	0xFE8
  2245                           postdec1	equ	0xFE5
  2246                           fsr1h	equ	0xFE2
  2247                           fsr1l	equ	0xFE1
  2248                           status	equ	0xFD8
  2249                           
  2250 ;; *************** function _Open2USART *****************
  2251 ;; Defined at:
  2252 ;;		line 118 in file "C:\Program Files (x86)\Microchip\xc8\v1.30\sources\pic18\plib\USART\u2open.c"
  2253 ;; Parameters:    Size  Location     Type
  2254 ;;  config          1    wreg     unsigned char 
  2255 ;;  spbrg           2    0[BANK0 ] unsigned int 
  2256 ;; Auto vars:     Size  Location     Type
  2257 ;;  config          1    5[BANK0 ] unsigned char 
  2258 ;; Return value:  Size  Location     Type
  2259 ;;		None               void
  2260 ;; Registers used:
  2261 ;;		wreg, status,2
  2262 ;; Tracked objects:
  2263 ;;		On entry : 0/0
  2264 ;;		On exit  : 0/0
  2265 ;;		Unchanged: 0/0
  2266 ;; Data sizes:     COMRAM   BANK0   BANK1   BANK2   BANK3   BANK4   BANK5   BANK6   BANK7   BANK8   BANK9  BANK10  BANK1
      +1  BANK12  BANK13  BANK14
  2267 ;;      Params:         0       2       0       0       0       0       0       0       0       0       0       0       
      +0       0       0       0
  2268 ;;      Locals:         0       1       0       0       0       0       0       0       0       0       0       0       
      +0       0       0       0
  2269 ;;      Temps:          0       3       0       0       0       0       0       0       0       0       0       0       
      +0       0       0       0
  2270 ;;      Totals:         0       6       0       0       0       0       0       0       0       0       0       0       
      +0       0       0       0
  2271 ;;Total ram usage:        6 bytes
  2272 ;; Hardware stack levels used:    1
  2273 ;; Hardware stack levels required when called:    3
  2274 ;; This function calls:
  2275 ;;		Nothing
  2276 ;; This function is called by:
  2277 ;;		_usartConfig2
  2278 ;; This function uses a non-reentrant model
  2279 ;;
  2280                           
  2281                           	psect	text3
  2282  014A74                     __ptext3:
  2283                           	opt stack 0
  2284  014A74                     _Open2USART:
  2285                           	opt stack 26
  2286                           
  2287                           ;incstack = 0
  2288                           ;Open2USART@config stored from wreg
  2289  014A74  CFE8 F0C7          	movff	wreg,Open2USART@config
  2290  014A78  0E00               	movlw	0
  2291  014A7A  6EA8               	movwf	4008,c	;volatile
  2292  014A7C  0E00               	movlw	0
  2293  014A7E  6E9C               	movwf	3996,c	;volatile
  2294  014A80  0100               	movlb	0	; () banked
  2295  014A82  0100               	movlb	0	; () banked
  2296  014A84  B1C7               	btfsc	Open2USART@config& (0+255),0,b
  2297                           
  2298                           ; BSR set to: 0
  2299  014A86  88A8               	bsf	4008,4,c	;volatile
  2300                           
  2301                           ; BSR set to: 0
  2302                           
  2303                           ; BSR set to: 0
  2304  014A88  0100               	movlb	0	; () banked
  2305  014A8A  0100               	movlb	0	; () banked
  2306  014A8C  A3C7               	btfss	Open2USART@config& (0+255),1,b
  2307  014A8E  D002               	goto	l7822
  2308                           
  2309                           ; BSR set to: 0
  2310  014A90  8CA8               	bsf	4008,6,c	;volatile
  2311  014A92  8C9C               	bsf	3996,6,c	;volatile
  2312  014A94                     l7822:
  2313                           
  2314                           ; BSR set to: 0
  2315  014A94  0100               	movlb	0	; () banked
  2316  014A96  0100               	movlb	0	; () banked
  2317  014A98  B5C7               	btfsc	Open2USART@config& (0+255),2,b
  2318                           
  2319                           ; BSR set to: 0
  2320  014A9A  8EA8               	bsf	4008,7,c	;volatile
  2321                           
  2322                           ; BSR set to: 0
  2323                           
  2324                           ; BSR set to: 0
  2325  014A9C  0100               	movlb	0	; () banked
  2326  014A9E  0100               	movlb	0	; () banked
  2327  014AA0  A7C7               	btfss	Open2USART@config& (0+255),3,b
  2328  014AA2  D002               	goto	l1253
  2329                           
  2330                           ; BSR set to: 0
  2331  014AA4  889C               	bsf	3996,4,c	;volatile
  2332  014AA6  D001               	goto	l7830
  2333  014AA8                     l1253:
  2334                           
  2335                           ; BSR set to: 0
  2336  014AA8  8A9C               	bsf	3996,5,c	;volatile
  2337  014AAA                     l7830:
  2338                           
  2339                           ; BSR set to: 0
  2340  014AAA  0100               	movlb	0	; () banked
  2341  014AAC  0100               	movlb	0	; () banked
  2342  014AAE  A9C7               	btfss	Open2USART@config& (0+255),4,b
  2343  014AB0  D002               	goto	l1255
  2344                           
  2345                           ; BSR set to: 0
  2346  014AB2  84A8               	bsf	4008,2,c	;volatile
  2347  014AB4  D001               	goto	l7834
  2348  014AB6                     l1255:
  2349                           
  2350                           ; BSR set to: 0
  2351  014AB6  94A8               	bcf	4008,2,c	;volatile
  2352  014AB8                     l7834:
  2353                           
  2354                           ; BSR set to: 0
  2355  014AB8  0100               	movlb	0	; () banked
  2356  014ABA  0100               	movlb	0	; () banked
  2357  014ABC  BBC7               	btfsc	Open2USART@config& (0+255),5,b
  2358                           
  2359                           ; BSR set to: 0
  2360  014ABE  869C               	bsf	3996,3,c	;volatile
  2361                           
  2362                           ; BSR set to: 0
  2363                           
  2364                           ; BSR set to: 0
  2365  014AC0  0100               	movlb	0	; () banked
  2366  014AC2  0100               	movlb	0	; () banked
  2367  014AC4  ADC7               	btfss	Open2USART@config& (0+255),6,b
  2368  014AC6  D002               	goto	l1258
  2369                           
  2370                           ; BSR set to: 0
  2371  014AC8  8AA3               	bsf	4003,5,c	;volatile
  2372  014ACA  D001               	goto	l7842
  2373  014ACC                     l1258:
  2374                           
  2375                           ; BSR set to: 0
  2376  014ACC  9AA3               	bcf	4003,5,c	;volatile
  2377  014ACE                     l7842:
  2378                           
  2379                           ; BSR set to: 0
  2380  014ACE  0100               	movlb	0	; () banked
  2381  014AD0  0100               	movlb	0	; () banked
  2382  014AD2  AFC7               	btfss	Open2USART@config& (0+255),7,b
  2383  014AD4  D002               	goto	l1260
  2384                           
  2385                           ; BSR set to: 0
  2386  014AD6  88A3               	bsf	4003,4,c	;volatile
  2387  014AD8  D001               	goto	l1261
  2388  014ADA                     l1260:
  2389                           
  2390                           ; BSR set to: 0
  2391  014ADA  98A3               	bcf	4003,4,c	;volatile
  2392  014ADC                     l1261:
  2393                           
  2394                           ; BSR set to: 0
  2395  014ADC  C0C2  FFAB         	movff	Open2USART@spbrg,4011	;volatile
  2396                           
  2397                           ; BSR set to: 0
  2398  014AE0  0100               	movlb	0	; () banked
  2399  014AE2  C0C3  F0C4         	movff	Open2USART@spbrg+1,??_Open2USART
  2400  014AE6  C0C4  F0C5         	movff	??_Open2USART,??_Open2USART+1
  2401  014AEA  0100               	movlb	0	; () banked
  2402  014AEC  6BC6               	clrf	(??_Open2USART+2)& (0+255),b
  2403  014AEE  0100               	movlb	0	; () banked
  2404  014AF0  51C5               	movf	(??_Open2USART+1)& (0+255),w,b
  2405  014AF2  6E7D               	movwf	3965,c	;volatile
  2406                           
  2407                           ; BSR set to: 0
  2408  014AF4  8AA8               	bsf	4008,5,c	;volatile
  2409                           
  2410                           ; BSR set to: 0
  2411  014AF6  8E9C               	bsf	3996,7,c	;volatile
  2412                           
  2413                           ; BSR set to: 0
  2414  014AF8  0012               	return	
  2415  014AFA                     __end_of_Open2USART:
  2416                           	opt stack 0
  2417                           tblptru	equ	0xFF8
  2418                           tblptrh	equ	0xFF7
  2419                           tblptrl	equ	0xFF6
  2420                           tablat	equ	0xFF5
  2421                           postinc0	equ	0xFEE
  2422                           wreg	equ	0xFE8
  2423                           postdec1	equ	0xFE5
  2424                           fsr1h	equ	0xFE2
  2425                           fsr1l	equ	0xFE1
  2426                           status	equ	0xFD8
  2427                           
  2428 ;; *************** function _usartConfig *****************
  2429 ;; Defined at:
  2430 ;;		line 94 in file "main.c"
  2431 ;; Parameters:    Size  Location     Type
  2432 ;;		None
  2433 ;; Auto vars:     Size  Location     Type
  2434 ;;  USART1config    1    8[BANK0 ] unsigned char 
  2435 ;;  baudRate        1    7[BANK0 ] unsigned char 
  2436 ;; Return value:  Size  Location     Type
  2437 ;;		None               void
  2438 ;; Registers used:
  2439 ;;		wreg, status,2, cstack
  2440 ;; Tracked objects:
  2441 ;;		On entry : 0/0
  2442 ;;		On exit  : 0/0
  2443 ;;		Unchanged: 0/0
  2444 ;; Data sizes:     COMRAM   BANK0   BANK1   BANK2   BANK3   BANK4   BANK5   BANK6   BANK7   BANK8   BANK9  BANK10  BANK1
      +1  BANK12  BANK13  BANK14
  2445 ;;      Params:         0       0       0       0       0       0       0       0       0       0       0       0       
      +0       0       0       0
  2446 ;;      Locals:         0       2       0       0       0       0       0       0       0       0       0       0       
      +0       0       0       0
  2447 ;;      Temps:          0       1       0       0       0       0       0       0       0       0       0       0       
      +0       0       0       0
  2448 ;;      Totals:         0       3       0       0       0       0       0       0       0       0       0       0       
      +0       0       0       0
  2449 ;;Total ram usage:        3 bytes
  2450 ;; Hardware stack levels used:    1
  2451 ;; Hardware stack levels required when called:    4
  2452 ;; This function calls:
  2453 ;;		_Open1USART
  2454 ;; This function is called by:
  2455 ;;		_main
  2456 ;; This function uses a non-reentrant model
  2457 ;;
  2458                           
  2459                           	psect	text4
  2460  014E94                     __ptext4:
  2461                           	opt stack 0
  2462  014E94                     _usartConfig:
  2463                           	opt stack 26
  2464                           
  2465                           ;main.c: 96: unsigned char USART1config = 0;
  2466                           
  2467                           ; BSR set to: 0
  2468                           ;incstack = 0
  2469  014E94  0100               	movlb	0	; () banked
  2470  014E96  6FC8               	movwf	??_usartConfig& (0+255),b
  2471  014E98  0E00               	movlw	0
  2472  014E9A  0100               	movlb	0	; () banked
  2473  014E9C  0100               	movlb	0	; () banked
  2474  014E9E  6FCA               	movwf	usartConfig@USART1config& (0+255),b
  2475  014EA0  0100               	movlb	0	; () banked
  2476  014EA2  51C8               	movf	??_usartConfig& (0+255),w,b
  2477                           
  2478                           ;main.c: 97: unsigned char baudRate = 25;
  2479  014EA4  0100               	movlb	0	; () banked
  2480  014EA6  6FC8               	movwf	??_usartConfig& (0+255),b
  2481  014EA8  0E19               	movlw	25
  2482  014EAA  0100               	movlb	0	; () banked
  2483  014EAC  0100               	movlb	0	; () banked
  2484  014EAE  6FC9               	movwf	usartConfig@baudRate& (0+255),b
  2485  014EB0  0100               	movlb	0	; () banked
  2486  014EB2  51C8               	movf	??_usartConfig& (0+255),w,b
  2487                           
  2488                           ; BSR set to: 0
  2489                           ;main.c: 99: TRISCbits.TRISC6= 0;
  2490  014EB4  9C94               	bcf	3988,6,c	;volatile
  2491                           
  2492                           ; BSR set to: 0
  2493                           ;main.c: 100: TRISCbits.TRISC7 = 1;
  2494  014EB6  8E94               	bsf	3988,7,c	;volatile
  2495                           
  2496                           ;main.c: 101: USART1config = 0b01111111 & 0b11111111 &
  2497                           ;main.c: 102: 0b11111110 & 0b11111101 & 0b11111111;
  2498  014EB8  0100               	movlb	0	; () banked
  2499  014EBA  6FC8               	movwf	??_usartConfig& (0+255),b
  2500  014EBC  0E7C               	movlw	124
  2501  014EBE  0100               	movlb	0	; () banked
  2502  014EC0  0100               	movlb	0	; () banked
  2503  014EC2  6FCA               	movwf	usartConfig@USART1config& (0+255),b
  2504  014EC4  0100               	movlb	0	; () banked
  2505  014EC6  51C8               	movf	??_usartConfig& (0+255),w,b
  2506                           
  2507                           ; BSR set to: 0
  2508                           ;main.c: 103: Open1USART(USART1config,baudRate);
  2509  014EC8  0100               	movlb	0	; () banked
  2510  014ECA  0100               	movlb	0	; () banked
  2511  014ECC  C0C9  F0C2         	movff	usartConfig@baudRate,Open1USART@spbrg
  2512  014ED0  0100               	movlb	0	; () banked
  2513  014ED2  0100               	movlb	0	; () banked
  2514  014ED4  6BC3               	clrf	(Open1USART@spbrg+1)& (0+255),b
  2515  014ED6  0100               	movlb	0	; () banked
  2516  014ED8  0100               	movlb	0	; () banked
  2517  014EDA  51CA               	movf	usartConfig@USART1config& (0+255),w,b
  2518  014EDC  ECBF  F0A5         	call	_Open1USART
  2519  014EE0  0012               	return	
  2520  014EE2                     __end_of_usartConfig:
  2521                           	opt stack 0
  2522                           tblptru	equ	0xFF8
  2523                           tblptrh	equ	0xFF7
  2524                           tblptrl	equ	0xFF6
  2525                           tablat	equ	0xFF5
  2526                           postinc0	equ	0xFEE
  2527                           wreg	equ	0xFE8
  2528                           postdec1	equ	0xFE5
  2529                           fsr1h	equ	0xFE2
  2530                           fsr1l	equ	0xFE1
  2531                           status	equ	0xFD8
  2532                           
  2533 ;; *************** function _Open1USART *****************
  2534 ;; Defined at:
  2535 ;;		line 124 in file "C:\Program Files (x86)\Microchip\xc8\v1.30\sources\pic18\plib\USART\u1open.c"
  2536 ;; Parameters:    Size  Location     Type
  2537 ;;  config          1    wreg     unsigned char 
  2538 ;;  spbrg           2    0[BANK0 ] unsigned int 
  2539 ;; Auto vars:     Size  Location     Type
  2540 ;;  config          1    5[BANK0 ] unsigned char 
  2541 ;; Return value:  Size  Location     Type
  2542 ;;		None               void
  2543 ;; Registers used:
  2544 ;;		wreg, status,2
  2545 ;; Tracked objects:
  2546 ;;		On entry : 0/0
  2547 ;;		On exit  : 0/0
  2548 ;;		Unchanged: 0/0
  2549 ;; Data sizes:     COMRAM   BANK0   BANK1   BANK2   BANK3   BANK4   BANK5   BANK6   BANK7   BANK8   BANK9  BANK10  BANK1
      +1  BANK12  BANK13  BANK14
  2550 ;;      Params:         0       2       0       0       0       0       0       0       0       0       0       0       
      +0       0       0       0
  2551 ;;      Locals:         0       1       0       0       0       0       0       0       0       0       0       0       
      +0       0       0       0
  2552 ;;      Temps:          0       3       0       0       0       0       0       0       0       0       0       0       
      +0       0       0       0
  2553 ;;      Totals:         0       6       0       0       0       0       0       0       0       0       0       0       
      +0       0       0       0
  2554 ;;Total ram usage:        6 bytes
  2555 ;; Hardware stack levels used:    1
  2556 ;; Hardware stack levels required when called:    3
  2557 ;; This function calls:
  2558 ;;		Nothing
  2559 ;; This function is called by:
  2560 ;;		_usartConfig
  2561 ;; This function uses a non-reentrant model
  2562 ;;
  2563                           
  2564                           	psect	text5
  2565  014B7E                     __ptext5:
  2566                           	opt stack 0
  2567  014B7E                     _Open1USART:
  2568                           	opt stack 26
  2569                           
  2570                           ;incstack = 0
  2571                           ;Open1USART@config stored from wreg
  2572  014B7E  CFE8 F0C7          	movff	wreg,Open1USART@config
  2573  014B82  0E00               	movlw	0
  2574  014B84  6EAD               	movwf	4013,c	;volatile
  2575  014B86  0E00               	movlw	0
  2576  014B88  6EAC               	movwf	4012,c	;volatile
  2577  014B8A  0100               	movlb	0	; () banked
  2578  014B8C  0100               	movlb	0	; () banked
  2579  014B8E  B1C7               	btfsc	Open1USART@config& (0+255),0,b
  2580                           
  2581                           ; BSR set to: 0
  2582  014B90  88AD               	bsf	4013,4,c	;volatile
  2583                           
  2584                           ; BSR set to: 0
  2585                           
  2586                           ; BSR set to: 0
  2587  014B92  0100               	movlb	0	; () banked
  2588  014B94  0100               	movlb	0	; () banked
  2589  014B96  A3C7               	btfss	Open1USART@config& (0+255),1,b
  2590  014B98  D002               	goto	l7782
  2591                           
  2592                           ; BSR set to: 0
  2593  014B9A  8CAD               	bsf	4013,6,c	;volatile
  2594  014B9C  8CAC               	bsf	4012,6,c	;volatile
  2595  014B9E                     l7782:
  2596                           
  2597                           ; BSR set to: 0
  2598  014B9E  0100               	movlb	0	; () banked
  2599  014BA0  0100               	movlb	0	; () banked
  2600  014BA2  B5C7               	btfsc	Open1USART@config& (0+255),2,b
  2601                           
  2602                           ; BSR set to: 0
  2603  014BA4  8EAD               	bsf	4013,7,c	;volatile
  2604                           
  2605                           ; BSR set to: 0
  2606                           
  2607                           ; BSR set to: 0
  2608  014BA6  0100               	movlb	0	; () banked
  2609  014BA8  0100               	movlb	0	; () banked
  2610  014BAA  A7C7               	btfss	Open1USART@config& (0+255),3,b
  2611  014BAC  D002               	goto	l1201
  2612                           
  2613                           ; BSR set to: 0
  2614  014BAE  88AC               	bsf	4012,4,c	;volatile
  2615  014BB0  D001               	goto	l7790
  2616  014BB2                     l1201:
  2617                           
  2618                           ; BSR set to: 0
  2619  014BB2  8AAC               	bsf	4012,5,c	;volatile
  2620  014BB4                     l7790:
  2621                           
  2622                           ; BSR set to: 0
  2623  014BB4  0100               	movlb	0	; () banked
  2624  014BB6  0100               	movlb	0	; () banked
  2625  014BB8  B9C7               	btfsc	Open1USART@config& (0+255),4,b
  2626                           
  2627                           ; BSR set to: 0
  2628  014BBA  84AD               	bsf	4013,2,c	;volatile
  2629                           
  2630                           ; BSR set to: 0
  2631                           
  2632                           ; BSR set to: 0
  2633  014BBC  0100               	movlb	0	; () banked
  2634  014BBE  0100               	movlb	0	; () banked
  2635  014BC0  BBC7               	btfsc	Open1USART@config& (0+255),5,b
  2636                           
  2637                           ; BSR set to: 0
  2638  014BC2  86AC               	bsf	4012,3,c	;volatile
  2639                           
  2640                           ; BSR set to: 0
  2641                           
  2642                           ; BSR set to: 0
  2643  014BC4  0100               	movlb	0	; () banked
  2644  014BC6  0100               	movlb	0	; () banked
  2645  014BC8  ADC7               	btfss	Open1USART@config& (0+255),6,b
  2646  014BCA  D002               	goto	l1205
  2647                           
  2648                           ; BSR set to: 0
  2649  014BCC  8A9D               	bsf	3997,5,c	;volatile
  2650  014BCE  D001               	goto	l7802
  2651  014BD0                     l1205:
  2652                           
  2653                           ; BSR set to: 0
  2654  014BD0  9A9D               	bcf	3997,5,c	;volatile
  2655  014BD2                     l7802:
  2656                           
  2657                           ; BSR set to: 0
  2658  014BD2  0100               	movlb	0	; () banked
  2659  014BD4  0100               	movlb	0	; () banked
  2660  014BD6  AFC7               	btfss	Open1USART@config& (0+255),7,b
  2661  014BD8  D002               	goto	l1207
  2662                           
  2663                           ; BSR set to: 0
  2664  014BDA  889D               	bsf	3997,4,c	;volatile
  2665  014BDC  D001               	goto	l1208
  2666  014BDE                     l1207:
  2667                           
  2668                           ; BSR set to: 0
  2669  014BDE  989D               	bcf	3997,4,c	;volatile
  2670  014BE0                     l1208:
  2671                           
  2672                           ; BSR set to: 0
  2673  014BE0  C0C2  FFB0         	movff	Open1USART@spbrg,4016	;volatile
  2674                           
  2675                           ; BSR set to: 0
  2676  014BE4  0100               	movlb	0	; () banked
  2677  014BE6  C0C3  F0C4         	movff	Open1USART@spbrg+1,??_Open1USART
  2678  014BEA  C0C4  F0C5         	movff	??_Open1USART,??_Open1USART+1
  2679  014BEE  0100               	movlb	0	; () banked
  2680  014BF0  6BC6               	clrf	(??_Open1USART+2)& (0+255),b
  2681  014BF2  0100               	movlb	0	; () banked
  2682  014BF4  51C5               	movf	(??_Open1USART+1)& (0+255),w,b
  2683  014BF6  6E7F               	movwf	3967,c	;volatile
  2684                           
  2685                           ; BSR set to: 0
  2686  014BF8  8AAD               	bsf	4013,5,c	;volatile
  2687                           
  2688                           ; BSR set to: 0
  2689  014BFA  8EAC               	bsf	4012,7,c	;volatile
  2690                           
  2691                           ; BSR set to: 0
  2692  014BFC  0012               	return	
  2693  014BFE                     __end_of_Open1USART:
  2694                           	opt stack 0
  2695                           tblptru	equ	0xFF8
  2696                           tblptrh	equ	0xFF7
  2697                           tblptrl	equ	0xFF6
  2698                           tablat	equ	0xFF5
  2699                           postinc0	equ	0xFEE
  2700                           wreg	equ	0xFE8
  2701                           postdec1	equ	0xFE5
  2702                           fsr1h	equ	0xFE2
  2703                           fsr1l	equ	0xFE1
  2704                           status	equ	0xFD8
  2705                           
  2706 ;; *************** function _startGSM *****************
  2707 ;; Defined at:
  2708 ;;		line 347 in file "GSM.c"
  2709 ;; Parameters:    Size  Location     Type
  2710 ;;		None
  2711 ;; Auto vars:     Size  Location     Type
  2712 ;;		None
  2713 ;; Return value:  Size  Location     Type
  2714 ;;		None               void
  2715 ;; Registers used:
  2716 ;;		wreg, fsr0l, fsr0h, status,2, status,0, tblptrl, tblptrh, tblptru, cstack
  2717 ;; Tracked objects:
  2718 ;;		On entry : 0/0
  2719 ;;		On exit  : 0/0
  2720 ;;		Unchanged: 0/0
  2721 ;; Data sizes:     COMRAM   BANK0   BANK1   BANK2   BANK3   BANK4   BANK5   BANK6   BANK7   BANK8   BANK9  BANK10  BANK1
      +1  BANK12  BANK13  BANK14
  2722 ;;      Params:         0       0       0       0       0       0       0       0       0       0       0       0       
      +0       0       0       0
  2723 ;;      Locals:         0       0       0       0       0       0       0       0       0       0       0       0       
      +0       0       0       0
  2724 ;;      Temps:          0       1       0       0       0       0       0       0       0       0       0       0       
      +0       0       0       0
  2725 ;;      Totals:         0       1       0       0       0       0       0       0       0       0       0       0       
      +0       0       0       0
  2726 ;;Total ram usage:        1 bytes
  2727 ;; Hardware stack levels used:    1
  2728 ;; Hardware stack levels required when called:    5
  2729 ;; This function calls:
  2730 ;;		_Write1USART
  2731 ;;		_commun_delaiMS
  2732 ;;		_send_cr
  2733 ;;		_writeUsart2
  2734 ;; This function is called by:
  2735 ;;		_main
  2736 ;; This function uses a non-reentrant model
  2737 ;;
  2738                           
  2739                           	psect	text6
  2740  0133E2                     __ptext6:
  2741                           	opt stack 0
  2742  0133E2                     _startGSM:
  2743                           	opt stack 25
  2744                           
  2745                           ;GSM.c: 349: if(mcStartGSM ==20)
  2746                           
  2747                           ; BSR set to: 0
  2748                           ;incstack = 0
  2749  0133E2  502B               	movf	_mcStartGSM,w,c
  2750  0133E4  0A14               	xorlw	20
  2751  0133E6  102C               	iorwf	_mcStartGSM+1,w,c
  2752  0133E8  A4D8               	btfss	status,2,c
  2753  0133EA  D02F               	goto	l7066
  2754                           
  2755                           ;GSM.c: 350: {
  2756                           ;GSM.c: 351: VstartReady = 0;
  2757  0133EC  0100               	movlb	0	; () banked
  2758  0133EE  6FD4               	movwf	??_startGSM& (0+255),b
  2759  0133F0  0E00               	movlw	0
  2760  0133F2  6E38               	movwf	_VstartReady,c
  2761  0133F4  0100               	movlb	0	; () banked
  2762  0133F6  51D4               	movf	??_startGSM& (0+255),w,b
  2763                           
  2764                           ;GSM.c: 352: VOK = 0;
  2765  0133F8  0100               	movlb	0	; () banked
  2766  0133FA  6FD4               	movwf	??_startGSM& (0+255),b
  2767  0133FC  0E00               	movlw	0
  2768  0133FE  0100               	movlb	0	; () banked
  2769  013400  0100               	movlb	0	; () banked
  2770  013402  6FF0               	movwf	_VOK& (0+255),b
  2771  013404  0100               	movlb	0	; () banked
  2772  013406  51D4               	movf	??_startGSM& (0+255),w,b
  2773                           
  2774                           ; BSR set to: 0
  2775                           ;GSM.c: 353: mcStartGSM =2;
  2776  013408  0E00               	movlw	0
  2777  01340A  6E2C               	movwf	_mcStartGSM+1,c
  2778  01340C  0E02               	movlw	2
  2779  01340E  6E2B               	movwf	_mcStartGSM,c
  2780                           
  2781                           ; BSR set to: 0
  2782                           ;GSM.c: 354: writeUsart2((char*)"AT+IPR=9600");
  2783  013410  0EFF               	movlw	high STR_111
  2784  013412  0100               	movlb	0	; () banked
  2785  013414  0100               	movlb	0	; () banked
  2786  013416  6FCF               	movwf	(writeUsart2@datas+1)& (0+255),b
  2787  013418  0E2E               	movlw	low STR_111
  2788  01341A  0100               	movlb	0	; () banked
  2789  01341C  0100               	movlb	0	; () banked
  2790  01341E  6FCE               	movwf	writeUsart2@datas& (0+255),b
  2791  013420  EC40  F0A4         	call	_writeUsart2	;wreg free
  2792                           
  2793                           ;GSM.c: 355: commun_delaiMS((int)500);
  2794  013424  0E01               	movlw	1
  2795  013426  0100               	movlb	0	; () banked
  2796  013428  0100               	movlb	0	; () banked
  2797  01342A  6FCB               	movwf	(commun_delaiMS@ms+1)& (0+255),b
  2798  01342C  0EF4               	movlw	244
  2799  01342E  0100               	movlb	0	; () banked
  2800  013430  6FCA               	movwf	commun_delaiMS@ms& (0+255),b
  2801  013432  EC1A  F0A7         	call	_commun_delaiMS	;wreg free
  2802                           
  2803                           ;GSM.c: 356: send_cr();
  2804  013436  ECF7  F0A7         	call	_send_cr	;wreg free
  2805                           
  2806                           ;GSM.c: 357: mcStartGSM =10;
  2807  01343A  0E00               	movlw	0
  2808  01343C  6E2C               	movwf	_mcStartGSM+1,c
  2809  01343E  0E0A               	movlw	10
  2810  013440  6E2B               	movwf	_mcStartGSM,c
  2811                           
  2812                           ;GSM.c: 358: compteurTimer0 = 10;
  2813  013442  0E00               	movlw	0
  2814  013444  6E28               	movwf	_compteurTimer0+1,c
  2815  013446  0E0A               	movlw	10
  2816  013448  6E27               	movwf	_compteurTimer0,c
  2817  01344A                     l7066:
  2818                           
  2819                           ;GSM.c: 360: }
  2820                           ;GSM.c: 361: if(mcStartGSM ==10 && compteurTimer0 >= 14)
  2821  01344A  502B               	movf	_mcStartGSM,w,c
  2822  01344C  0A0A               	xorlw	10
  2823  01344E  102C               	iorwf	_mcStartGSM+1,w,c
  2824  013450  A4D8               	btfss	status,2,c
  2825  013452  D01C               	goto	l7080
  2826  013454  5028               	movf	_compteurTimer0+1,w,c
  2827  013456  0A80               	xorlw	128
  2828  013458  0F80               	addlw	-128
  2829  01345A  0E0E               	movlw	14
  2830  01345C  B4D8               	btfsc	status,2,c
  2831  01345E  5C27               	subwf	_compteurTimer0,w,c
  2832  013460  A0D8               	btfss	status,0,c
  2833  013462  D014               	goto	l7080
  2834                           
  2835                           ;GSM.c: 362: {
  2836                           ;GSM.c: 363: VstartReady = 0;
  2837  013464  0100               	movlb	0	; () banked
  2838  013466  6FD4               	movwf	??_startGSM& (0+255),b
  2839  013468  0E00               	movlw	0
  2840  01346A  6E38               	movwf	_VstartReady,c
  2841  01346C  0100               	movlb	0	; () banked
  2842  01346E  51D4               	movf	??_startGSM& (0+255),w,b
  2843                           
  2844                           ; BSR set to: 0
  2845                           ;GSM.c: 364: PORTCbits.RC3 = 0;
  2846  013470  9682               	bcf	3970,3,c	;volatile
  2847  013472                     l690:
  2848  013472  A2AD               	btfss	4013,1,c	;volatile
  2849  013474  D7FE               	goto	l690
  2850                           
  2851                           ;GSM.c: 366: Write1USART('0');
  2852  013476  0E30               	movlw	48
  2853  013478  ECD9  F0A7         	call	_Write1USART
  2854                           
  2855                           ;GSM.c: 367: mcStartGSM =13;
  2856  01347C  0E00               	movlw	0
  2857  01347E  6E2C               	movwf	_mcStartGSM+1,c
  2858  013480  0E0D               	movlw	13
  2859  013482  6E2B               	movwf	_mcStartGSM,c
  2860                           
  2861                           ;GSM.c: 368: compteurTimer0 = 15;
  2862  013484  0E00               	movlw	0
  2863  013486  6E28               	movwf	_compteurTimer0+1,c
  2864  013488  0E0F               	movlw	15
  2865  01348A  6E27               	movwf	_compteurTimer0,c
  2866  01348C                     l7080:
  2867                           
  2868                           ;GSM.c: 370: }
  2869                           ;GSM.c: 371: if(mcStartGSM ==10 && VOK)
  2870  01348C  502B               	movf	_mcStartGSM,w,c
  2871  01348E  0A0A               	xorlw	10
  2872  013490  102C               	iorwf	_mcStartGSM+1,w,c
  2873  013492  A4D8               	btfss	status,2,c
  2874  013494  D01A               	goto	l7094
  2875  013496  0100               	movlb	0	; () banked
  2876  013498  0100               	movlb	0	; () banked
  2877  01349A  51F0               	movf	_VOK& (0+255),w,b
  2878  01349C  B4D8               	btfsc	status,2,c
  2879  01349E  D015               	goto	l7094
  2880                           
  2881                           ; BSR set to: 0
  2882                           ;GSM.c: 372: {
  2883                           ;GSM.c: 373: VstartReady = 0;
  2884  0134A0  0100               	movlb	0	; () banked
  2885  0134A2  6FD4               	movwf	??_startGSM& (0+255),b
  2886  0134A4  0E00               	movlw	0
  2887  0134A6  6E38               	movwf	_VstartReady,c
  2888  0134A8  0100               	movlb	0	; () banked
  2889  0134AA  51D4               	movf	??_startGSM& (0+255),w,b
  2890                           
  2891                           ; BSR set to: 0
  2892                           ;GSM.c: 374: PORTCbits.RC3 = 0;
  2893  0134AC  9682               	bcf	3970,3,c	;volatile
  2894  0134AE                     l694:
  2895  0134AE  A2AD               	btfss	4013,1,c	;volatile
  2896  0134B0  D7FE               	goto	l694
  2897                           
  2898                           ;GSM.c: 376: Write1USART('0');
  2899  0134B2  0E30               	movlw	48
  2900  0134B4  ECD9  F0A7         	call	_Write1USART
  2901                           
  2902                           ;GSM.c: 377: mcStartGSM =11;
  2903  0134B8  0E00               	movlw	0
  2904  0134BA  6E2C               	movwf	_mcStartGSM+1,c
  2905  0134BC  0E0B               	movlw	11
  2906  0134BE  6E2B               	movwf	_mcStartGSM,c
  2907                           
  2908                           ;GSM.c: 378: compteurTimer0 = 10;
  2909  0134C0  0E00               	movlw	0
  2910  0134C2  6E28               	movwf	_compteurTimer0+1,c
  2911  0134C4  0E0A               	movlw	10
  2912  0134C6  6E27               	movwf	_compteurTimer0,c
  2913                           
  2914                           ;GSM.c: 380: }
  2915  0134C8  0012               	return	
  2916  0134CA                     l7094:
  2917                           
  2918                           ;GSM.c: 381: else if(mcStartGSM ==11 && compteurTimer0 >= 11)
  2919  0134CA  502B               	movf	_mcStartGSM,w,c
  2920  0134CC  0A0B               	xorlw	11
  2921  0134CE  102C               	iorwf	_mcStartGSM+1,w,c
  2922  0134D0  A4D8               	btfss	status,2,c
  2923  0134D2  D017               	goto	l7106
  2924  0134D4  5028               	movf	_compteurTimer0+1,w,c
  2925  0134D6  0A80               	xorlw	128
  2926  0134D8  0F80               	addlw	-128
  2927  0134DA  0E0B               	movlw	11
  2928  0134DC  B4D8               	btfsc	status,2,c
  2929  0134DE  5C27               	subwf	_compteurTimer0,w,c
  2930  0134E0  A0D8               	btfss	status,0,c
  2931  0134E2  D00F               	goto	l7106
  2932                           
  2933                           ;GSM.c: 382: {
  2934                           ;GSM.c: 383: PORTCbits.RC3 = 1;
  2935  0134E4  8682               	bsf	3970,3,c	;volatile
  2936  0134E6                     l699:
  2937  0134E6  A2AD               	btfss	4013,1,c	;volatile
  2938  0134E8  D7FE               	goto	l699
  2939                           
  2940                           ;GSM.c: 385: Write1USART('1');
  2941  0134EA  0E31               	movlw	49
  2942  0134EC  ECD9  F0A7         	call	_Write1USART
  2943                           
  2944                           ;GSM.c: 386: mcStartGSM =12;
  2945  0134F0  0E00               	movlw	0
  2946  0134F2  6E2C               	movwf	_mcStartGSM+1,c
  2947  0134F4  0E0C               	movlw	12
  2948  0134F6  6E2B               	movwf	_mcStartGSM,c
  2949                           
  2950                           ;GSM.c: 387: compteurTimer0 = 10;
  2951  0134F8  0E00               	movlw	0
  2952  0134FA  6E28               	movwf	_compteurTimer0+1,c
  2953  0134FC  0E0A               	movlw	10
  2954  0134FE  6E27               	movwf	_compteurTimer0,c
  2955                           
  2956                           ;GSM.c: 390: }
  2957  013500  0012               	return	
  2958  013502                     l7106:
  2959                           
  2960                           ;GSM.c: 391: else if(mcStartGSM ==12 && compteurTimer0 >= 12)
  2961  013502  502B               	movf	_mcStartGSM,w,c
  2962  013504  0A0C               	xorlw	12
  2963  013506  102C               	iorwf	_mcStartGSM+1,w,c
  2964  013508  A4D8               	btfss	status,2,c
  2965  01350A  D017               	goto	l7118
  2966  01350C  5028               	movf	_compteurTimer0+1,w,c
  2967  01350E  0A80               	xorlw	128
  2968  013510  0F80               	addlw	-128
  2969  013512  0E0C               	movlw	12
  2970  013514  B4D8               	btfsc	status,2,c
  2971  013516  5C27               	subwf	_compteurTimer0,w,c
  2972  013518  A0D8               	btfss	status,0,c
  2973  01351A  D00F               	goto	l7118
  2974                           
  2975                           ;GSM.c: 392: {
  2976                           ;GSM.c: 393: PORTCbits.RC3 = 0;
  2977  01351C  9682               	bcf	3970,3,c	;volatile
  2978  01351E                     l704:
  2979  01351E  A2AD               	btfss	4013,1,c	;volatile
  2980  013520  D7FE               	goto	l704
  2981                           
  2982                           ;GSM.c: 395: Write1USART('0');
  2983  013522  0E30               	movlw	48
  2984  013524  ECD9  F0A7         	call	_Write1USART
  2985                           
  2986                           ;GSM.c: 396: mcStartGSM =13;
  2987  013528  0E00               	movlw	0
  2988  01352A  6E2C               	movwf	_mcStartGSM+1,c
  2989  01352C  0E0D               	movlw	13
  2990  01352E  6E2B               	movwf	_mcStartGSM,c
  2991                           
  2992                           ;GSM.c: 397: compteurTimer0 = 10;
  2993  013530  0E00               	movlw	0
  2994  013532  6E28               	movwf	_compteurTimer0+1,c
  2995  013534  0E0A               	movlw	10
  2996  013536  6E27               	movwf	_compteurTimer0,c
  2997                           
  2998                           ;GSM.c: 399: }
  2999  013538  0012               	return	
  3000  01353A                     l7118:
  3001                           
  3002                           ;GSM.c: 400: else if(mcStartGSM ==13 && compteurTimer0 >= 19)
  3003  01353A  502B               	movf	_mcStartGSM,w,c
  3004  01353C  0A0D               	xorlw	13
  3005  01353E  102C               	iorwf	_mcStartGSM+1,w,c
  3006  013540  A4D8               	btfss	status,2,c
  3007  013542  D017               	goto	l7130
  3008  013544  5028               	movf	_compteurTimer0+1,w,c
  3009  013546  0A80               	xorlw	128
  3010  013548  0F80               	addlw	-128
  3011  01354A  0E13               	movlw	19
  3012  01354C  B4D8               	btfsc	status,2,c
  3013  01354E  5C27               	subwf	_compteurTimer0,w,c
  3014  013550  A0D8               	btfss	status,0,c
  3015  013552  D00F               	goto	l7130
  3016                           
  3017                           ;GSM.c: 401: {
  3018                           ;GSM.c: 402: PORTCbits.RC3 = 1;
  3019  013554  8682               	bsf	3970,3,c	;volatile
  3020  013556                     l709:
  3021  013556  A2AD               	btfss	4013,1,c	;volatile
  3022  013558  D7FE               	goto	l709
  3023                           
  3024                           ;GSM.c: 404: Write1USART('1');
  3025  01355A  0E31               	movlw	49
  3026  01355C  ECD9  F0A7         	call	_Write1USART
  3027                           
  3028                           ;GSM.c: 405: mcStartGSM =14;
  3029  013560  0E00               	movlw	0
  3030  013562  6E2C               	movwf	_mcStartGSM+1,c
  3031  013564  0E0E               	movlw	14
  3032  013566  6E2B               	movwf	_mcStartGSM,c
  3033                           
  3034                           ;GSM.c: 406: compteurTimer0 = 10;
  3035  013568  0E00               	movlw	0
  3036  01356A  6E28               	movwf	_compteurTimer0+1,c
  3037  01356C  0E0A               	movlw	10
  3038  01356E  6E27               	movwf	_compteurTimer0,c
  3039                           
  3040                           ;GSM.c: 408: }
  3041  013570  0012               	return	
  3042  013572                     l7130:
  3043                           
  3044                           ;GSM.c: 409: else if(mcStartGSM ==14 && compteurTimer0 >= 12)
  3045  013572  502B               	movf	_mcStartGSM,w,c
  3046  013574  0A0E               	xorlw	14
  3047  013576  102C               	iorwf	_mcStartGSM+1,w,c
  3048  013578  A4D8               	btfss	status,2,c
  3049  01357A  D017               	goto	l7142
  3050  01357C  5028               	movf	_compteurTimer0+1,w,c
  3051  01357E  0A80               	xorlw	128
  3052  013580  0F80               	addlw	-128
  3053  013582  0E0C               	movlw	12
  3054  013584  B4D8               	btfsc	status,2,c
  3055  013586  5C27               	subwf	_compteurTimer0,w,c
  3056  013588  A0D8               	btfss	status,0,c
  3057  01358A  D00F               	goto	l7142
  3058                           
  3059                           ;GSM.c: 410: {
  3060                           ;GSM.c: 411: PORTCbits.RC3 = 0;
  3061  01358C  9682               	bcf	3970,3,c	;volatile
  3062  01358E                     l714:
  3063  01358E  A2AD               	btfss	4013,1,c	;volatile
  3064  013590  D7FE               	goto	l714
  3065                           
  3066                           ;GSM.c: 413: Write1USART('0');
  3067  013592  0E30               	movlw	48
  3068  013594  ECD9  F0A7         	call	_Write1USART
  3069                           
  3070                           ;GSM.c: 414: mcStartGSM =1;
  3071  013598  0E00               	movlw	0
  3072  01359A  6E2C               	movwf	_mcStartGSM+1,c
  3073  01359C  0E01               	movlw	1
  3074  01359E  6E2B               	movwf	_mcStartGSM,c
  3075                           
  3076                           ;GSM.c: 415: compteurTimer0 = 10;
  3077  0135A0  0E00               	movlw	0
  3078  0135A2  6E28               	movwf	_compteurTimer0+1,c
  3079  0135A4  0E0A               	movlw	10
  3080  0135A6  6E27               	movwf	_compteurTimer0,c
  3081                           
  3082                           ;GSM.c: 416: }
  3083  0135A8  0012               	return	
  3084  0135AA                     l7142:
  3085                           
  3086                           ;GSM.c: 417: else if(mcStartGSM ==1 && VstartReady && compteurTimer0 >= 12)
  3087  0135AA  042B               	decf	_mcStartGSM,w,c
  3088  0135AC  102C               	iorwf	_mcStartGSM+1,w,c
  3089  0135AE  A4D8               	btfss	status,2,c
  3090  0135B0  D037               	goto	l7160
  3091  0135B2  5038               	movf	_VstartReady,w,c
  3092  0135B4  B4D8               	btfsc	status,2,c
  3093  0135B6  D034               	goto	l7160
  3094  0135B8  5028               	movf	_compteurTimer0+1,w,c
  3095  0135BA  0A80               	xorlw	128
  3096  0135BC  0F80               	addlw	-128
  3097  0135BE  0E0C               	movlw	12
  3098  0135C0  B4D8               	btfsc	status,2,c
  3099  0135C2  5C27               	subwf	_compteurTimer0,w,c
  3100  0135C4  A0D8               	btfss	status,0,c
  3101  0135C6  D02C               	goto	l7160
  3102                           
  3103                           ;GSM.c: 418: {
  3104                           ;GSM.c: 419: VstartReady = 0;
  3105  0135C8  0100               	movlb	0	; () banked
  3106  0135CA  6FD4               	movwf	??_startGSM& (0+255),b
  3107  0135CC  0E00               	movlw	0
  3108  0135CE  6E38               	movwf	_VstartReady,c
  3109  0135D0  0100               	movlb	0	; () banked
  3110  0135D2  51D4               	movf	??_startGSM& (0+255),w,b
  3111                           
  3112                           ;GSM.c: 420: VOK = 0;
  3113  0135D4  0100               	movlb	0	; () banked
  3114  0135D6  6FD4               	movwf	??_startGSM& (0+255),b
  3115  0135D8  0E00               	movlw	0
  3116  0135DA  0100               	movlb	0	; () banked
  3117  0135DC  0100               	movlb	0	; () banked
  3118  0135DE  6FF0               	movwf	_VOK& (0+255),b
  3119  0135E0  0100               	movlb	0	; () banked
  3120  0135E2  51D4               	movf	??_startGSM& (0+255),w,b
  3121                           
  3122                           ; BSR set to: 0
  3123                           ;GSM.c: 421: mcStartGSM =2;
  3124  0135E4  0E00               	movlw	0
  3125  0135E6  6E2C               	movwf	_mcStartGSM+1,c
  3126  0135E8  0E02               	movlw	2
  3127  0135EA  6E2B               	movwf	_mcStartGSM,c
  3128                           
  3129                           ; BSR set to: 0
  3130                           ;GSM.c: 422: writeUsart2((char*)"AT+IPR=9600");
  3131  0135EC  0EFF               	movlw	high STR_111
  3132  0135EE  0100               	movlb	0	; () banked
  3133  0135F0  0100               	movlb	0	; () banked
  3134  0135F2  6FCF               	movwf	(writeUsart2@datas+1)& (0+255),b
  3135  0135F4  0E2E               	movlw	low STR_111
  3136  0135F6  0100               	movlb	0	; () banked
  3137  0135F8  0100               	movlb	0	; () banked
  3138  0135FA  6FCE               	movwf	writeUsart2@datas& (0+255),b
  3139  0135FC  EC40  F0A4         	call	_writeUsart2	;wreg free
  3140                           
  3141                           ;GSM.c: 423: commun_delaiMS((int)500);
  3142  013600  0E01               	movlw	1
  3143  013602  0100               	movlb	0	; () banked
  3144  013604  0100               	movlb	0	; () banked
  3145  013606  6FCB               	movwf	(commun_delaiMS@ms+1)& (0+255),b
  3146  013608  0EF4               	movlw	244
  3147  01360A  0100               	movlb	0	; () banked
  3148  01360C  6FCA               	movwf	commun_delaiMS@ms& (0+255),b
  3149  01360E  EC1A  F0A7         	call	_commun_delaiMS	;wreg free
  3150                           
  3151                           ;GSM.c: 424: send_cr();
  3152  013612  ECF7  F0A7         	call	_send_cr	;wreg free
  3153                           
  3154                           ;GSM.c: 425: compteurTimer0 = 10;
  3155  013616  0E00               	movlw	0
  3156  013618  6E28               	movwf	_compteurTimer0+1,c
  3157  01361A  0E0A               	movlw	10
  3158  01361C  6E27               	movwf	_compteurTimer0,c
  3159                           
  3160                           ;GSM.c: 426: }
  3161  01361E  0012               	return	
  3162  013620                     l7160:
  3163                           
  3164                           ;GSM.c: 427: else if(mcStartGSM ==2 && VOK && compteurTimer0 >= 11)
  3165  013620  502B               	movf	_mcStartGSM,w,c
  3166  013622  0A02               	xorlw	2
  3167  013624  102C               	iorwf	_mcStartGSM+1,w,c
  3168  013626  A4D8               	btfss	status,2,c
  3169  013628  D033               	goto	l7178
  3170  01362A  0100               	movlb	0	; () banked
  3171  01362C  0100               	movlb	0	; () banked
  3172  01362E  51F0               	movf	_VOK& (0+255),w,b
  3173  013630  B4D8               	btfsc	status,2,c
  3174  013632  D02E               	goto	l7178
  3175                           
  3176                           ; BSR set to: 0
  3177  013634  5028               	movf	_compteurTimer0+1,w,c
  3178  013636  0A80               	xorlw	128
  3179  013638  0F80               	addlw	-128
  3180  01363A  0E0B               	movlw	11
  3181  01363C  B4D8               	btfsc	status,2,c
  3182  01363E  5C27               	subwf	_compteurTimer0,w,c
  3183  013640  A0D8               	btfss	status,0,c
  3184  013642  D026               	goto	l7178
  3185                           
  3186                           ; BSR set to: 0
  3187                           ;GSM.c: 428: {
  3188                           ;GSM.c: 429: VOK = 0;
  3189  013644  0100               	movlb	0	; () banked
  3190  013646  6FD4               	movwf	??_startGSM& (0+255),b
  3191  013648  0E00               	movlw	0
  3192  01364A  0100               	movlb	0	; () banked
  3193  01364C  0100               	movlb	0	; () banked
  3194  01364E  6FF0               	movwf	_VOK& (0+255),b
  3195  013650  0100               	movlb	0	; () banked
  3196  013652  51D4               	movf	??_startGSM& (0+255),w,b
  3197                           
  3198                           ; BSR set to: 0
  3199                           ;GSM.c: 430: mcStartGSM =3;
  3200  013654  0E00               	movlw	0
  3201  013656  6E2C               	movwf	_mcStartGSM+1,c
  3202  013658  0E03               	movlw	3
  3203  01365A  6E2B               	movwf	_mcStartGSM,c
  3204                           
  3205                           ; BSR set to: 0
  3206                           ;GSM.c: 431: writeUsart2((char*)"AT+SAPBR=3,1,\"APN\",\"tim.br\"");
  3207  01365C  0EFD               	movlw	high STR_113
  3208  01365E  0100               	movlb	0	; () banked
  3209  013660  0100               	movlb	0	; () banked
  3210  013662  6FCF               	movwf	(writeUsart2@datas+1)& (0+255),b
  3211  013664  0EF8               	movlw	low STR_113
  3212  013666  0100               	movlb	0	; () banked
  3213  013668  0100               	movlb	0	; () banked
  3214  01366A  6FCE               	movwf	writeUsart2@datas& (0+255),b
  3215  01366C  EC40  F0A4         	call	_writeUsart2	;wreg free
  3216                           
  3217                           ;GSM.c: 432: commun_delaiMS((int)500);
  3218  013670  0E01               	movlw	1
  3219  013672  0100               	movlb	0	; () banked
  3220  013674  0100               	movlb	0	; () banked
  3221  013676  6FCB               	movwf	(commun_delaiMS@ms+1)& (0+255),b
  3222  013678  0EF4               	movlw	244
  3223  01367A  0100               	movlb	0	; () banked
  3224  01367C  6FCA               	movwf	commun_delaiMS@ms& (0+255),b
  3225  01367E  EC1A  F0A7         	call	_commun_delaiMS	;wreg free
  3226                           
  3227                           ;GSM.c: 435: send_cr();
  3228  013682  ECF7  F0A7         	call	_send_cr	;wreg free
  3229                           
  3230                           ;GSM.c: 436: compteurTimer0 = 10;
  3231  013686  0E00               	movlw	0
  3232  013688  6E28               	movwf	_compteurTimer0+1,c
  3233  01368A  0E0A               	movlw	10
  3234  01368C  6E27               	movwf	_compteurTimer0,c
  3235                           
  3236                           ;GSM.c: 437: }
  3237  01368E  0012               	return	
  3238  013690                     l7178:
  3239                           
  3240                           ;GSM.c: 438: else if(mcStartGSM ==3 && VOK && compteurTimer0 >= 11)
  3241  013690  502B               	movf	_mcStartGSM,w,c
  3242  013692  0A03               	xorlw	3
  3243  013694  102C               	iorwf	_mcStartGSM+1,w,c
  3244  013696  A4D8               	btfss	status,2,c
  3245  013698  D033               	goto	l7196
  3246  01369A  0100               	movlb	0	; () banked
  3247  01369C  0100               	movlb	0	; () banked
  3248  01369E  51F0               	movf	_VOK& (0+255),w,b
  3249  0136A0  B4D8               	btfsc	status,2,c
  3250  0136A2  D02E               	goto	l7196
  3251                           
  3252                           ; BSR set to: 0
  3253  0136A4  5028               	movf	_compteurTimer0+1,w,c
  3254  0136A6  0A80               	xorlw	128
  3255  0136A8  0F80               	addlw	-128
  3256  0136AA  0E0B               	movlw	11
  3257  0136AC  B4D8               	btfsc	status,2,c
  3258  0136AE  5C27               	subwf	_compteurTimer0,w,c
  3259  0136B0  A0D8               	btfss	status,0,c
  3260  0136B2  D026               	goto	l7196
  3261                           
  3262                           ; BSR set to: 0
  3263                           ;GSM.c: 439: {
  3264                           ;GSM.c: 440: VOK = 0;
  3265  0136B4  0100               	movlb	0	; () banked
  3266  0136B6  6FD4               	movwf	??_startGSM& (0+255),b
  3267  0136B8  0E00               	movlw	0
  3268  0136BA  0100               	movlb	0	; () banked
  3269  0136BC  0100               	movlb	0	; () banked
  3270  0136BE  6FF0               	movwf	_VOK& (0+255),b
  3271  0136C0  0100               	movlb	0	; () banked
  3272  0136C2  51D4               	movf	??_startGSM& (0+255),w,b
  3273                           
  3274                           ; BSR set to: 0
  3275                           ;GSM.c: 441: mcStartGSM =4;
  3276  0136C4  0E00               	movlw	0
  3277  0136C6  6E2C               	movwf	_mcStartGSM+1,c
  3278  0136C8  0E04               	movlw	4
  3279  0136CA  6E2B               	movwf	_mcStartGSM,c
  3280                           
  3281                           ; BSR set to: 0
  3282                           ;GSM.c: 442: writeUsart2((char*)"AT+SAPBR=3,1,\"USER\",\"tim\"");
  3283  0136CC  0EFE               	movlw	high STR_114
  3284  0136CE  0100               	movlb	0	; () banked
  3285  0136D0  0100               	movlb	0	; () banked
  3286  0136D2  6FCF               	movwf	(writeUsart2@datas+1)& (0+255),b
  3287  0136D4  0E14               	movlw	low STR_114
  3288  0136D6  0100               	movlb	0	; () banked
  3289  0136D8  0100               	movlb	0	; () banked
  3290  0136DA  6FCE               	movwf	writeUsart2@datas& (0+255),b
  3291  0136DC  EC40  F0A4         	call	_writeUsart2	;wreg free
  3292                           
  3293                           ;GSM.c: 443: commun_delaiMS((int)500);
  3294  0136E0  0E01               	movlw	1
  3295  0136E2  0100               	movlb	0	; () banked
  3296  0136E4  0100               	movlb	0	; () banked
  3297  0136E6  6FCB               	movwf	(commun_delaiMS@ms+1)& (0+255),b
  3298  0136E8  0EF4               	movlw	244
  3299  0136EA  0100               	movlb	0	; () banked
  3300  0136EC  6FCA               	movwf	commun_delaiMS@ms& (0+255),b
  3301  0136EE  EC1A  F0A7         	call	_commun_delaiMS	;wreg free
  3302                           
  3303                           ;GSM.c: 446: send_cr();
  3304  0136F2  ECF7  F0A7         	call	_send_cr	;wreg free
  3305                           
  3306                           ;GSM.c: 447: compteurTimer0 = 10;
  3307  0136F6  0E00               	movlw	0
  3308  0136F8  6E28               	movwf	_compteurTimer0+1,c
  3309  0136FA  0E0A               	movlw	10
  3310  0136FC  6E27               	movwf	_compteurTimer0,c
  3311                           
  3312                           ;GSM.c: 448: }
  3313  0136FE  0012               	return	
  3314  013700                     l7196:
  3315                           
  3316                           ;GSM.c: 449: else if(mcStartGSM ==4 && VOK && compteurTimer0 >= 11)
  3317  013700  502B               	movf	_mcStartGSM,w,c
  3318  013702  0A04               	xorlw	4
  3319  013704  102C               	iorwf	_mcStartGSM+1,w,c
  3320  013706  A4D8               	btfss	status,2,c
  3321  013708  D033               	goto	l7214
  3322  01370A  0100               	movlb	0	; () banked
  3323  01370C  0100               	movlb	0	; () banked
  3324  01370E  51F0               	movf	_VOK& (0+255),w,b
  3325  013710  B4D8               	btfsc	status,2,c
  3326  013712  D02E               	goto	l7214
  3327                           
  3328                           ; BSR set to: 0
  3329  013714  5028               	movf	_compteurTimer0+1,w,c
  3330  013716  0A80               	xorlw	128
  3331  013718  0F80               	addlw	-128
  3332  01371A  0E0B               	movlw	11
  3333  01371C  B4D8               	btfsc	status,2,c
  3334  01371E  5C27               	subwf	_compteurTimer0,w,c
  3335  013720  A0D8               	btfss	status,0,c
  3336  013722  D026               	goto	l7214
  3337                           
  3338                           ; BSR set to: 0
  3339                           ;GSM.c: 450: {
  3340                           ;GSM.c: 451: VOK = 0;
  3341  013724  0100               	movlb	0	; () banked
  3342  013726  6FD4               	movwf	??_startGSM& (0+255),b
  3343  013728  0E00               	movlw	0
  3344  01372A  0100               	movlb	0	; () banked
  3345  01372C  0100               	movlb	0	; () banked
  3346  01372E  6FF0               	movwf	_VOK& (0+255),b
  3347  013730  0100               	movlb	0	; () banked
  3348  013732  51D4               	movf	??_startGSM& (0+255),w,b
  3349                           
  3350                           ; BSR set to: 0
  3351                           ;GSM.c: 452: mcStartGSM =5;
  3352  013734  0E00               	movlw	0
  3353  013736  6E2C               	movwf	_mcStartGSM+1,c
  3354  013738  0E05               	movlw	5
  3355  01373A  6E2B               	movwf	_mcStartGSM,c
  3356                           
  3357                           ; BSR set to: 0
  3358                           ;GSM.c: 453: writeUsart2((char*)"AT+SAPBR=3,1,\"PWD\",\"tim\"");
  3359  01373C  0EFE               	movlw	high STR_115
  3360  01373E  0100               	movlb	0	; () banked
  3361  013740  0100               	movlb	0	; () banked
  3362  013742  6FCF               	movwf	(writeUsart2@datas+1)& (0+255),b
  3363  013744  0E2E               	movlw	low STR_115
  3364  013746  0100               	movlb	0	; () banked
  3365  013748  0100               	movlb	0	; () banked
  3366  01374A  6FCE               	movwf	writeUsart2@datas& (0+255),b
  3367  01374C  EC40  F0A4         	call	_writeUsart2	;wreg free
  3368                           
  3369                           ;GSM.c: 454: commun_delaiMS((int)500);
  3370  013750  0E01               	movlw	1
  3371  013752  0100               	movlb	0	; () banked
  3372  013754  0100               	movlb	0	; () banked
  3373  013756  6FCB               	movwf	(commun_delaiMS@ms+1)& (0+255),b
  3374  013758  0EF4               	movlw	244
  3375  01375A  0100               	movlb	0	; () banked
  3376  01375C  6FCA               	movwf	commun_delaiMS@ms& (0+255),b
  3377  01375E  EC1A  F0A7         	call	_commun_delaiMS	;wreg free
  3378                           
  3379                           ;GSM.c: 457: send_cr();
  3380  013762  ECF7  F0A7         	call	_send_cr	;wreg free
  3381                           
  3382                           ;GSM.c: 458: compteurTimer0 = 10;
  3383  013766  0E00               	movlw	0
  3384  013768  6E28               	movwf	_compteurTimer0+1,c
  3385  01376A  0E0A               	movlw	10
  3386  01376C  6E27               	movwf	_compteurTimer0,c
  3387                           
  3388                           ;GSM.c: 459: }
  3389  01376E  0012               	return	
  3390  013770                     l7214:
  3391                           
  3392                           ;GSM.c: 460: else if(mcStartGSM ==5 && VOK && compteurTimer0 >= 13)
  3393  013770  502B               	movf	_mcStartGSM,w,c
  3394  013772  0A05               	xorlw	5
  3395  013774  102C               	iorwf	_mcStartGSM+1,w,c
  3396  013776  A4D8               	btfss	status,2,c
  3397  013778  D033               	goto	l7232
  3398  01377A  0100               	movlb	0	; () banked
  3399  01377C  0100               	movlb	0	; () banked
  3400  01377E  51F0               	movf	_VOK& (0+255),w,b
  3401  013780  B4D8               	btfsc	status,2,c
  3402  013782  D02E               	goto	l7232
  3403                           
  3404                           ; BSR set to: 0
  3405  013784  5028               	movf	_compteurTimer0+1,w,c
  3406  013786  0A80               	xorlw	128
  3407  013788  0F80               	addlw	-128
  3408  01378A  0E0D               	movlw	13
  3409  01378C  B4D8               	btfsc	status,2,c
  3410  01378E  5C27               	subwf	_compteurTimer0,w,c
  3411  013790  A0D8               	btfss	status,0,c
  3412  013792  D026               	goto	l7232
  3413                           
  3414                           ; BSR set to: 0
  3415                           ;GSM.c: 461: {
  3416                           ;GSM.c: 462: VOK = 0;
  3417  013794  0100               	movlb	0	; () banked
  3418  013796  6FD4               	movwf	??_startGSM& (0+255),b
  3419  013798  0E00               	movlw	0
  3420  01379A  0100               	movlb	0	; () banked
  3421  01379C  0100               	movlb	0	; () banked
  3422  01379E  6FF0               	movwf	_VOK& (0+255),b
  3423  0137A0  0100               	movlb	0	; () banked
  3424  0137A2  51D4               	movf	??_startGSM& (0+255),w,b
  3425                           
  3426                           ; BSR set to: 0
  3427                           ;GSM.c: 463: mcStartGSM =6;
  3428  0137A4  0E00               	movlw	0
  3429  0137A6  6E2C               	movwf	_mcStartGSM+1,c
  3430  0137A8  0E06               	movlw	6
  3431  0137AA  6E2B               	movwf	_mcStartGSM,c
  3432                           
  3433                           ; BSR set to: 0
  3434                           ;GSM.c: 464: writeUsart2((char*)"AT+SAPBR=1,1");
  3435  0137AC  0EFF               	movlw	high STR_116
  3436  0137AE  0100               	movlb	0	; () banked
  3437  0137B0  0100               	movlb	0	; () banked
  3438  0137B2  6FCF               	movwf	(writeUsart2@datas+1)& (0+255),b
  3439  0137B4  0E08               	movlw	low STR_116
  3440  0137B6  0100               	movlb	0	; () banked
  3441  0137B8  0100               	movlb	0	; () banked
  3442  0137BA  6FCE               	movwf	writeUsart2@datas& (0+255),b
  3443  0137BC  EC40  F0A4         	call	_writeUsart2	;wreg free
  3444                           
  3445                           ;GSM.c: 465: commun_delaiMS((int)500);
  3446  0137C0  0E01               	movlw	1
  3447  0137C2  0100               	movlb	0	; () banked
  3448  0137C4  0100               	movlb	0	; () banked
  3449  0137C6  6FCB               	movwf	(commun_delaiMS@ms+1)& (0+255),b
  3450  0137C8  0EF4               	movlw	244
  3451  0137CA  0100               	movlb	0	; () banked
  3452  0137CC  6FCA               	movwf	commun_delaiMS@ms& (0+255),b
  3453  0137CE  EC1A  F0A7         	call	_commun_delaiMS	;wreg free
  3454                           
  3455                           ;GSM.c: 466: send_cr();
  3456  0137D2  ECF7  F0A7         	call	_send_cr	;wreg free
  3457                           
  3458                           ;GSM.c: 467: compteurTimer0 = 10;
  3459  0137D6  0E00               	movlw	0
  3460  0137D8  6E28               	movwf	_compteurTimer0+1,c
  3461  0137DA  0E0A               	movlw	10
  3462  0137DC  6E27               	movwf	_compteurTimer0,c
  3463                           
  3464                           ;GSM.c: 468: }
  3465  0137DE  0012               	return	
  3466  0137E0                     l7232:
  3467                           
  3468                           ;GSM.c: 469: else if(mcStartGSM ==6 && VOK && compteurTimer0 >= 11)
  3469  0137E0  502B               	movf	_mcStartGSM,w,c
  3470  0137E2  0A06               	xorlw	6
  3471  0137E4  102C               	iorwf	_mcStartGSM+1,w,c
  3472  0137E6  A4D8               	btfss	status,2,c
  3473  0137E8  D02A               	goto	l7248
  3474  0137EA  0100               	movlb	0	; () banked
  3475  0137EC  0100               	movlb	0	; () banked
  3476  0137EE  51F0               	movf	_VOK& (0+255),w,b
  3477  0137F0  B4D8               	btfsc	status,2,c
  3478  0137F2  D025               	goto	l7248
  3479                           
  3480                           ; BSR set to: 0
  3481  0137F4  5028               	movf	_compteurTimer0+1,w,c
  3482  0137F6  0A80               	xorlw	128
  3483  0137F8  0F80               	addlw	-128
  3484  0137FA  0E0B               	movlw	11
  3485  0137FC  B4D8               	btfsc	status,2,c
  3486  0137FE  5C27               	subwf	_compteurTimer0,w,c
  3487  013800  A0D8               	btfss	status,0,c
  3488  013802  D01D               	goto	l7248
  3489                           
  3490                           ; BSR set to: 0
  3491                           ;GSM.c: 470: {
  3492                           ;GSM.c: 471: VOK = 0;
  3493  013804  0100               	movlb	0	; () banked
  3494  013806  6FD4               	movwf	??_startGSM& (0+255),b
  3495  013808  0E00               	movlw	0
  3496  01380A  0100               	movlb	0	; () banked
  3497  01380C  0100               	movlb	0	; () banked
  3498  01380E  6FF0               	movwf	_VOK& (0+255),b
  3499  013810  0100               	movlb	0	; () banked
  3500  013812  51D4               	movf	??_startGSM& (0+255),w,b
  3501                           
  3502                           ; BSR set to: 0
  3503                           ;GSM.c: 472: mcStartGSM =7;
  3504  013814  0E00               	movlw	0
  3505  013816  6E2C               	movwf	_mcStartGSM+1,c
  3506  013818  0E07               	movlw	7
  3507  01381A  6E2B               	movwf	_mcStartGSM,c
  3508                           
  3509                           ; BSR set to: 0
  3510                           ;GSM.c: 473: writeUsart2((char*)"AT+HTTPINIT");
  3511  01381C  0EFF               	movlw	high STR_117
  3512  01381E  0100               	movlb	0	; () banked
  3513  013820  0100               	movlb	0	; () banked
  3514  013822  6FCF               	movwf	(writeUsart2@datas+1)& (0+255),b
  3515  013824  0E52               	movlw	low STR_117
  3516  013826  0100               	movlb	0	; () banked
  3517  013828  0100               	movlb	0	; () banked
  3518  01382A  6FCE               	movwf	writeUsart2@datas& (0+255),b
  3519  01382C  EC40  F0A4         	call	_writeUsart2	;wreg free
  3520                           
  3521                           ;GSM.c: 474: send_cr();
  3522  013830  ECF7  F0A7         	call	_send_cr	;wreg free
  3523                           
  3524                           ;GSM.c: 475: compteurTimer0 = 10;
  3525  013834  0E00               	movlw	0
  3526  013836  6E28               	movwf	_compteurTimer0+1,c
  3527  013838  0E0A               	movlw	10
  3528  01383A  6E27               	movwf	_compteurTimer0,c
  3529                           
  3530                           ;GSM.c: 476: }
  3531  01383C  0012               	return	
  3532  01383E                     l7248:
  3533                           
  3534                           ;GSM.c: 477: else if(mcStartGSM ==7 && VOK && compteurTimer0 >= 11)
  3535  01383E  502B               	movf	_mcStartGSM,w,c
  3536  013840  0A07               	xorlw	7
  3537  013842  102C               	iorwf	_mcStartGSM+1,w,c
  3538  013844  A4D8               	btfss	status,2,c
  3539  013846  D02A               	goto	l7264
  3540  013848  0100               	movlb	0	; () banked
  3541  01384A  0100               	movlb	0	; () banked
  3542  01384C  51F0               	movf	_VOK& (0+255),w,b
  3543  01384E  B4D8               	btfsc	status,2,c
  3544  013850  D025               	goto	l7264
  3545                           
  3546                           ; BSR set to: 0
  3547  013852  5028               	movf	_compteurTimer0+1,w,c
  3548  013854  0A80               	xorlw	128
  3549  013856  0F80               	addlw	-128
  3550  013858  0E0B               	movlw	11
  3551  01385A  B4D8               	btfsc	status,2,c
  3552  01385C  5C27               	subwf	_compteurTimer0,w,c
  3553  01385E  A0D8               	btfss	status,0,c
  3554  013860  D01D               	goto	l7264
  3555                           
  3556                           ; BSR set to: 0
  3557                           ;GSM.c: 478: {
  3558                           ;GSM.c: 479: VOK = 0;
  3559  013862  0100               	movlb	0	; () banked
  3560  013864  6FD4               	movwf	??_startGSM& (0+255),b
  3561  013866  0E00               	movlw	0
  3562  013868  0100               	movlb	0	; () banked
  3563  01386A  0100               	movlb	0	; () banked
  3564  01386C  6FF0               	movwf	_VOK& (0+255),b
  3565  01386E  0100               	movlb	0	; () banked
  3566  013870  51D4               	movf	??_startGSM& (0+255),w,b
  3567                           
  3568                           ; BSR set to: 0
  3569                           ;GSM.c: 480: mcStartGSM =8;
  3570  013872  0E00               	movlw	0
  3571  013874  6E2C               	movwf	_mcStartGSM+1,c
  3572  013876  0E08               	movlw	8
  3573  013878  6E2B               	movwf	_mcStartGSM,c
  3574                           
  3575                           ; BSR set to: 0
  3576                           ;GSM.c: 481: writeUsart2((char*)"AT+HTTPPARA=\"CID\",1");
  3577  01387A  0EFE               	movlw	high STR_118
  3578  01387C  0100               	movlb	0	; () banked
  3579  01387E  0100               	movlb	0	; () banked
  3580  013880  6FCF               	movwf	(writeUsart2@datas+1)& (0+255),b
  3581  013882  0E76               	movlw	low STR_118
  3582  013884  0100               	movlb	0	; () banked
  3583  013886  0100               	movlb	0	; () banked
  3584  013888  6FCE               	movwf	writeUsart2@datas& (0+255),b
  3585  01388A  EC40  F0A4         	call	_writeUsart2	;wreg free
  3586                           
  3587                           ;GSM.c: 482: send_cr();
  3588  01388E  ECF7  F0A7         	call	_send_cr	;wreg free
  3589                           
  3590                           ;GSM.c: 483: compteurTimer0 = 10;
  3591  013892  0E00               	movlw	0
  3592  013894  6E28               	movwf	_compteurTimer0+1,c
  3593  013896  0E0A               	movlw	10
  3594  013898  6E27               	movwf	_compteurTimer0,c
  3595                           
  3596                           ;GSM.c: 484: }
  3597  01389A  0012               	return	
  3598  01389C                     l7264:
  3599                           
  3600                           ;GSM.c: 485: else if(mcStartGSM ==8 && VOK && compteurTimer0 >= 11)
  3601  01389C  502B               	movf	_mcStartGSM,w,c
  3602  01389E  0A08               	xorlw	8
  3603  0138A0  102C               	iorwf	_mcStartGSM+1,w,c
  3604  0138A2  A4D8               	btfss	status,2,c
  3605  0138A4  D033               	goto	l7282
  3606  0138A6  0100               	movlb	0	; () banked
  3607  0138A8  0100               	movlb	0	; () banked
  3608  0138AA  51F0               	movf	_VOK& (0+255),w,b
  3609  0138AC  B4D8               	btfsc	status,2,c
  3610  0138AE  D02E               	goto	l7282
  3611                           
  3612                           ; BSR set to: 0
  3613  0138B0  5028               	movf	_compteurTimer0+1,w,c
  3614  0138B2  0A80               	xorlw	128
  3615  0138B4  0F80               	addlw	-128
  3616  0138B6  0E0B               	movlw	11
  3617  0138B8  B4D8               	btfsc	status,2,c
  3618  0138BA  5C27               	subwf	_compteurTimer0,w,c
  3619  0138BC  A0D8               	btfss	status,0,c
  3620  0138BE  D026               	goto	l7282
  3621                           
  3622                           ; BSR set to: 0
  3623                           ;GSM.c: 486: {
  3624                           ;GSM.c: 487: VOK = 0;
  3625  0138C0  0100               	movlb	0	; () banked
  3626  0138C2  6FD4               	movwf	??_startGSM& (0+255),b
  3627  0138C4  0E00               	movlw	0
  3628  0138C6  0100               	movlb	0	; () banked
  3629  0138C8  0100               	movlb	0	; () banked
  3630  0138CA  6FF0               	movwf	_VOK& (0+255),b
  3631  0138CC  0100               	movlb	0	; () banked
  3632  0138CE  51D4               	movf	??_startGSM& (0+255),w,b
  3633                           
  3634                           ; BSR set to: 0
  3635                           ;GSM.c: 488: mcStartGSM =9;
  3636  0138D0  0E00               	movlw	0
  3637  0138D2  6E2C               	movwf	_mcStartGSM+1,c
  3638  0138D4  0E09               	movlw	9
  3639  0138D6  6E2B               	movwf	_mcStartGSM,c
  3640                           
  3641                           ; BSR set to: 0
  3642                           ;GSM.c: 489: writeUsart2((char*)"AT+HTTPPARA=\"URL\",\"cloudiaproject.org/data/\"");
  3643  0138D8  0EFD               	movlw	high STR_119
  3644  0138DA  0100               	movlb	0	; () banked
  3645  0138DC  0100               	movlb	0	; () banked
  3646  0138DE  6FCF               	movwf	(writeUsart2@datas+1)& (0+255),b
  3647  0138E0  0ECB               	movlw	low STR_119
  3648  0138E2  0100               	movlb	0	; () banked
  3649  0138E4  0100               	movlb	0	; () banked
  3650  0138E6  6FCE               	movwf	writeUsart2@datas& (0+255),b
  3651  0138E8  EC40  F0A4         	call	_writeUsart2	;wreg free
  3652                           
  3653                           ;GSM.c: 490: commun_delaiMS((int)500);
  3654  0138EC  0E01               	movlw	1
  3655  0138EE  0100               	movlb	0	; () banked
  3656  0138F0  0100               	movlb	0	; () banked
  3657  0138F2  6FCB               	movwf	(commun_delaiMS@ms+1)& (0+255),b
  3658  0138F4  0EF4               	movlw	244
  3659  0138F6  0100               	movlb	0	; () banked
  3660  0138F8  6FCA               	movwf	commun_delaiMS@ms& (0+255),b
  3661  0138FA  EC1A  F0A7         	call	_commun_delaiMS	;wreg free
  3662                           
  3663                           ;GSM.c: 493: send_cr();
  3664  0138FE  ECF7  F0A7         	call	_send_cr	;wreg free
  3665                           
  3666                           ;GSM.c: 494: compteurTimer0 = 10;
  3667  013902  0E00               	movlw	0
  3668  013904  6E28               	movwf	_compteurTimer0+1,c
  3669  013906  0E0A               	movlw	10
  3670  013908  6E27               	movwf	_compteurTimer0,c
  3671                           
  3672                           ;GSM.c: 495: }
  3673  01390A  0012               	return	
  3674  01390C                     l7282:
  3675                           
  3676                           ;GSM.c: 496: else if(mcStartGSM ==9 && VOK && compteurTimer0 >= 11)
  3677  01390C  502B               	movf	_mcStartGSM,w,c
  3678  01390E  0A09               	xorlw	9
  3679  013910  102C               	iorwf	_mcStartGSM+1,w,c
  3680  013912  A4D8               	btfss	status,2,c
  3681  013914  D03B               	goto	l7300
  3682  013916  0100               	movlb	0	; () banked
  3683  013918  0100               	movlb	0	; () banked
  3684  01391A  51F0               	movf	_VOK& (0+255),w,b
  3685  01391C  B4D8               	btfsc	status,2,c
  3686  01391E  D036               	goto	l7300
  3687                           
  3688                           ; BSR set to: 0
  3689  013920  5028               	movf	_compteurTimer0+1,w,c
  3690  013922  0A80               	xorlw	128
  3691  013924  0F80               	addlw	-128
  3692  013926  0E0B               	movlw	11
  3693  013928  B4D8               	btfsc	status,2,c
  3694  01392A  5C27               	subwf	_compteurTimer0,w,c
  3695  01392C  A0D8               	btfss	status,0,c
  3696  01392E  D02E               	goto	l7300
  3697                           
  3698                           ; BSR set to: 0
  3699                           ;GSM.c: 497: {
  3700                           ;GSM.c: 498: VOK = 0;
  3701  013930  0100               	movlb	0	; () banked
  3702  013932  6FD4               	movwf	??_startGSM& (0+255),b
  3703  013934  0E00               	movlw	0
  3704  013936  0100               	movlb	0	; () banked
  3705  013938  0100               	movlb	0	; () banked
  3706  01393A  6FF0               	movwf	_VOK& (0+255),b
  3707  01393C  0100               	movlb	0	; () banked
  3708  01393E  51D4               	movf	??_startGSM& (0+255),w,b
  3709                           
  3710                           ;GSM.c: 499: Vy =0;
  3711  013940  0100               	movlb	0	; () banked
  3712  013942  6FD4               	movwf	??_startGSM& (0+255),b
  3713  013944  0E00               	movlw	0
  3714  013946  0100               	movlb	0	; () banked
  3715  013948  0100               	movlb	0	; () banked
  3716  01394A  6F9A               	movwf	_Vy& (0+255),b
  3717  01394C  0100               	movlb	0	; () banked
  3718  01394E  51D4               	movf	??_startGSM& (0+255),w,b
  3719                           
  3720                           ; BSR set to: 0
  3721                           ;GSM.c: 500: mcStartGSM =0;
  3722  013950  0E00               	movlw	0
  3723  013952  6E2C               	movwf	_mcStartGSM+1,c
  3724  013954  0E00               	movlw	0
  3725  013956  6E2B               	movwf	_mcStartGSM,c
  3726                           
  3727                           ; BSR set to: 0
  3728                           ;GSM.c: 501: writeUsart2((char*)"AT+HTTPPARA=\"CONTENT\",\"application/x-www-form-urlenc
      +                          oded\"");
  3729  013958  0EFD               	movlw	high STR_120
  3730  01395A  0100               	movlb	0	; () banked
  3731  01395C  0100               	movlb	0	; () banked
  3732  01395E  6FCF               	movwf	(writeUsart2@datas+1)& (0+255),b
  3733  013960  0E91               	movlw	low STR_120
  3734  013962  0100               	movlb	0	; () banked
  3735  013964  0100               	movlb	0	; () banked
  3736  013966  6FCE               	movwf	writeUsart2@datas& (0+255),b
  3737  013968  EC40  F0A4         	call	_writeUsart2	;wreg free
  3738                           
  3739                           ;GSM.c: 502: commun_delaiMS((int)500);
  3740  01396C  0E01               	movlw	1
  3741  01396E  0100               	movlb	0	; () banked
  3742  013970  0100               	movlb	0	; () banked
  3743  013972  6FCB               	movwf	(commun_delaiMS@ms+1)& (0+255),b
  3744  013974  0EF4               	movlw	244
  3745  013976  0100               	movlb	0	; () banked
  3746  013978  6FCA               	movwf	commun_delaiMS@ms& (0+255),b
  3747  01397A  EC1A  F0A7         	call	_commun_delaiMS	;wreg free
  3748                           
  3749                           ;GSM.c: 507: send_cr();
  3750  01397E  ECF7  F0A7         	call	_send_cr	;wreg free
  3751                           
  3752                           ;GSM.c: 508: compteurTimer0 = 0;
  3753  013982  0E00               	movlw	0
  3754  013984  6E28               	movwf	_compteurTimer0+1,c
  3755  013986  0E00               	movlw	0
  3756  013988  6E27               	movwf	_compteurTimer0,c
  3757                           
  3758                           ;GSM.c: 509: }
  3759  01398A  0012               	return	
  3760  01398C                     l7300:
  3761                           
  3762                           ;GSM.c: 510: else if(mcStartGSM >0 && compteurTimer0 >= 25)
  3763  01398C  502C               	movf	_mcStartGSM+1,w,c
  3764  01398E  0A80               	xorlw	128
  3765  013990  0F80               	addlw	-128
  3766  013992  0E01               	movlw	1
  3767  013994  B4D8               	btfsc	status,2,c
  3768  013996  5C2B               	subwf	_mcStartGSM,w,c
  3769  013998  A0D8               	btfss	status,0,c
  3770  01399A  0012               	return	
  3771  01399C  5028               	movf	_compteurTimer0+1,w,c
  3772  01399E  0A80               	xorlw	128
  3773  0139A0  0F80               	addlw	-128
  3774  0139A2  0E19               	movlw	25
  3775  0139A4  B4D8               	btfsc	status,2,c
  3776  0139A6  5C27               	subwf	_compteurTimer0,w,c
  3777  0139A8  A0D8               	btfss	status,0,c
  3778  0139AA  0012               	return	
  3779                           
  3780                           ;GSM.c: 511: {
  3781                           ;GSM.c: 512: mcStartGSM =20;
  3782  0139AC  0E00               	movlw	0
  3783  0139AE  6E2C               	movwf	_mcStartGSM+1,c
  3784  0139B0  0E14               	movlw	20
  3785  0139B2  6E2B               	movwf	_mcStartGSM,c
  3786                           
  3787                           ;GSM.c: 513: compteurTimer0 = 0;
  3788  0139B4  0E00               	movlw	0
  3789  0139B6  6E28               	movwf	_compteurTimer0+1,c
  3790  0139B8  0E00               	movlw	0
  3791  0139BA  6E27               	movwf	_compteurTimer0,c
  3792  0139BC  0012               	return	
  3793  0139BE                     __end_of_startGSM:
  3794                           	opt stack 0
  3795                           tblptru	equ	0xFF8
  3796                           tblptrh	equ	0xFF7
  3797                           tblptrl	equ	0xFF6
  3798                           tablat	equ	0xFF5
  3799                           postinc0	equ	0xFEE
  3800                           wreg	equ	0xFE8
  3801                           postdec1	equ	0xFE5
  3802                           fsr1h	equ	0xFE2
  3803                           fsr1l	equ	0xFE1
  3804                           status	equ	0xFD8
  3805                           
  3806 ;; *************** function _sendGSM *****************
  3807 ;; Defined at:
  3808 ;;		line 5 in file "GSM.c"
  3809 ;; Parameters:    Size  Location     Type
  3810 ;;		None
  3811 ;; Auto vars:     Size  Location     Type
  3812 ;;		None
  3813 ;; Return value:  Size  Location     Type
  3814 ;;		None               void
  3815 ;; Registers used:
  3816 ;;		wreg, fsr0l, fsr0h, status,2, status,0, tblptrl, tblptrh, tblptru, cstack
  3817 ;; Tracked objects:
  3818 ;;		On entry : 0/0
  3819 ;;		On exit  : 0/0
  3820 ;;		Unchanged: 0/0
  3821 ;; Data sizes:     COMRAM   BANK0   BANK1   BANK2   BANK3   BANK4   BANK5   BANK6   BANK7   BANK8   BANK9  BANK10  BANK1
      +1  BANK12  BANK13  BANK14
  3822 ;;      Params:         0       0       0       0       0       0       0       0       0       0       0       0       
      +0       0       0       0
  3823 ;;      Locals:         0       0       0       0       0       0       0       0       0       0       0       0       
      +0       0       0       0
  3824 ;;      Temps:          0       1       0       0       0       0       0       0       0       0       0       0       
      +0       0       0       0
  3825 ;;      Totals:         0       1       0       0       0       0       0       0       0       0       0       0       
      +0       0       0       0
  3826 ;;Total ram usage:        1 bytes
  3827 ;; Hardware stack levels used:    1
  3828 ;; Hardware stack levels required when called:    6
  3829 ;; This function calls:
  3830 ;;		_commun_delaiMS
  3831 ;;		_writeUsart1Trame
  3832 ;; This function is called by:
  3833 ;;		_main
  3834 ;; This function uses a non-reentrant model
  3835 ;;
  3836                           
  3837                           	psect	text7
  3838  0147AE                     __ptext7:
  3839                           	opt stack 0
  3840  0147AE                     _sendGSM:
  3841                           	opt stack 24
  3842                           
  3843                           ;GSM.c: 8: mcPostGSM =9;
  3844                           
  3845                           ;incstack = 0
  3846  0147AE  0E00               	movlw	0
  3847  0147B0  0100               	movlb	0	; () banked
  3848  0147B2  0100               	movlb	0	; () banked
  3849  0147B4  6F83               	movwf	(_mcPostGSM+1)& (0+255),b
  3850  0147B6  0E09               	movlw	9
  3851  0147B8  0100               	movlb	0	; () banked
  3852  0147BA  6F82               	movwf	_mcPostGSM& (0+255),b
  3853                           
  3854                           ; BSR set to: 0
  3855                           ;GSM.c: 9: writeUsart1Trame((char*)"b",0xFFFF,0x21);
  3856  0147BC  0EFF               	movlw	high STR_2
  3857  0147BE  0100               	movlb	0	; () banked
  3858  0147C0  0100               	movlb	0	; () banked
  3859  0147C2  6FC5               	movwf	(writeUsart1Trame@datas2+1)& (0+255),b
  3860  0147C4  0EFB               	movlw	low STR_2
  3861  0147C6  0100               	movlb	0	; () banked
  3862  0147C8  0100               	movlb	0	; () banked
  3863  0147CA  6FC4               	movwf	writeUsart1Trame@datas2& (0+255),b
  3864  0147CC  0EFF               	movlw	255
  3865  0147CE  0100               	movlb	0	; () banked
  3866  0147D0  0100               	movlb	0	; () banked
  3867  0147D2  6FC7               	movwf	(writeUsart1Trame@datatime+1)& (0+255),b
  3868  0147D4  0EFF               	movlw	255
  3869  0147D6  0100               	movlb	0	; () banked
  3870  0147D8  6FC6               	movwf	writeUsart1Trame@datatime& (0+255),b
  3871  0147DA  0E00               	movlw	0
  3872  0147DC  0100               	movlb	0	; () banked
  3873  0147DE  0100               	movlb	0	; () banked
  3874  0147E0  6FC9               	movwf	(writeUsart1Trame@id+1)& (0+255),b
  3875  0147E2  0E21               	movlw	33
  3876  0147E4  0100               	movlb	0	; () banked
  3877  0147E6  6FC8               	movwf	writeUsart1Trame@id& (0+255),b
  3878  0147E8  ECA9  F09F         	call	_writeUsart1Trame	;wreg free
  3879                           
  3880                           ;GSM.c: 10: writeUsart1Trame((char*)"a",0xFFFF,0x21);
  3881  0147EC  0EFF               	movlw	high STR_3
  3882  0147EE  0100               	movlb	0	; () banked
  3883  0147F0  0100               	movlb	0	; () banked
  3884  0147F2  6FC5               	movwf	(writeUsart1Trame@datas2+1)& (0+255),b
  3885  0147F4  0EF9               	movlw	low STR_3
  3886  0147F6  0100               	movlb	0	; () banked
  3887  0147F8  0100               	movlb	0	; () banked
  3888  0147FA  6FC4               	movwf	writeUsart1Trame@datas2& (0+255),b
  3889  0147FC  0EFF               	movlw	255
  3890  0147FE  0100               	movlb	0	; () banked
  3891  014800  0100               	movlb	0	; () banked
  3892  014802  6FC7               	movwf	(writeUsart1Trame@datatime+1)& (0+255),b
  3893  014804  0EFF               	movlw	255
  3894  014806  0100               	movlb	0	; () banked
  3895  014808  6FC6               	movwf	writeUsart1Trame@datatime& (0+255),b
  3896  01480A  0E00               	movlw	0
  3897  01480C  0100               	movlb	0	; () banked
  3898  01480E  0100               	movlb	0	; () banked
  3899  014810  6FC9               	movwf	(writeUsart1Trame@id+1)& (0+255),b
  3900  014812  0E21               	movlw	33
  3901  014814  0100               	movlb	0	; () banked
  3902  014816  6FC8               	movwf	writeUsart1Trame@id& (0+255),b
  3903  014818  ECA9  F09F         	call	_writeUsart1Trame	;wreg free
  3904                           
  3905                           ;GSM.c: 11: writeUsart1Trame((char*)"r",0xFFFF,0x21);
  3906  01481C  0EFF               	movlw	high STR_4
  3907  01481E  0100               	movlb	0	; () banked
  3908  014820  0100               	movlb	0	; () banked
  3909  014822  6FC5               	movwf	(writeUsart1Trame@datas2+1)& (0+255),b
  3910  014824  0EFD               	movlw	low STR_4
  3911  014826  0100               	movlb	0	; () banked
  3912  014828  0100               	movlb	0	; () banked
  3913  01482A  6FC4               	movwf	writeUsart1Trame@datas2& (0+255),b
  3914  01482C  0EFF               	movlw	255
  3915  01482E  0100               	movlb	0	; () banked
  3916  014830  0100               	movlb	0	; () banked
  3917  014832  6FC7               	movwf	(writeUsart1Trame@datatime+1)& (0+255),b
  3918  014834  0EFF               	movlw	255
  3919  014836  0100               	movlb	0	; () banked
  3920  014838  6FC6               	movwf	writeUsart1Trame@datatime& (0+255),b
  3921  01483A  0E00               	movlw	0
  3922  01483C  0100               	movlb	0	; () banked
  3923  01483E  0100               	movlb	0	; () banked
  3924  014840  6FC9               	movwf	(writeUsart1Trame@id+1)& (0+255),b
  3925  014842  0E21               	movlw	33
  3926  014844  0100               	movlb	0	; () banked
  3927  014846  6FC8               	movwf	writeUsart1Trame@id& (0+255),b
  3928  014848  ECA9  F09F         	call	_writeUsart1Trame	;wreg free
  3929                           
  3930                           ;GSM.c: 12: commun_delaiMS(1000);
  3931  01484C  0E03               	movlw	3
  3932  01484E  0100               	movlb	0	; () banked
  3933  014850  0100               	movlb	0	; () banked
  3934  014852  6FCB               	movwf	(commun_delaiMS@ms+1)& (0+255),b
  3935  014854  0EE8               	movlw	232
  3936  014856  0100               	movlb	0	; () banked
  3937  014858  6FCA               	movwf	commun_delaiMS@ms& (0+255),b
  3938  01485A  EC1A  F0A7         	call	_commun_delaiMS	;wreg free
  3939                           
  3940                           ;GSM.c: 13: Vg = 1;
  3941  01485E  0100               	movlb	0	; () banked
  3942  014860  6FD5               	movwf	??_sendGSM& (0+255),b
  3943  014862  0E01               	movlw	1
  3944  014864  0100               	movlb	0	; () banked
  3945  014866  0100               	movlb	0	; () banked
  3946  014868  6F95               	movwf	_Vg& (0+255),b
  3947  01486A  0100               	movlb	0	; () banked
  3948  01486C  51D5               	movf	??_sendGSM& (0+255),w,b
  3949                           
  3950                           ; BSR set to: 0
  3951                           ;GSM.c: 14: Vo = 0;
  3952  01486E  0100               	movlb	0	; () banked
  3953  014870  6FD5               	movwf	??_sendGSM& (0+255),b
  3954  014872  0E00               	movlw	0
  3955  014874  0100               	movlb	0	; () banked
  3956  014876  0100               	movlb	0	; () banked
  3957  014878  6F96               	movwf	_Vo& (0+255),b
  3958  01487A  0100               	movlb	0	; () banked
  3959  01487C  51D5               	movf	??_sendGSM& (0+255),w,b
  3960                           
  3961                           ; BSR set to: 0
  3962  01487E  0012               	return	
  3963  014880                     __end_of_sendGSM:
  3964                           	opt stack 0
  3965                           tblptru	equ	0xFF8
  3966                           tblptrh	equ	0xFF7
  3967                           tblptrl	equ	0xFF6
  3968                           tablat	equ	0xFF5
  3969                           postinc0	equ	0xFEE
  3970                           wreg	equ	0xFE8
  3971                           postdec1	equ	0xFE5
  3972                           fsr1h	equ	0xFE2
  3973                           fsr1l	equ	0xFE1
  3974                           status	equ	0xFD8
  3975                           
  3976 ;; *************** function _readbuffer *****************
  3977 ;; Defined at:
  3978 ;;		line 3 in file "bufferint.c"
  3979 ;; Parameters:    Size  Location     Type
  3980 ;;		None
  3981 ;; Auto vars:     Size  Location     Type
  3982 ;;  erase           2   23[BANK0 ] int 
  3983 ;;  erase           2   21[BANK0 ] int 
  3984 ;;  erase           2   19[BANK0 ] int 
  3985 ;;  erase           2   17[BANK0 ] int 
  3986 ;;  g               2   26[BANK0 ] int 
  3987 ;;  br2             1   28[BANK0 ] unsigned char 
  3988 ;;  br1             1   25[BANK0 ] unsigned char 
  3989 ;; Return value:  Size  Location     Type
  3990 ;;		None               void
  3991 ;; Registers used:
  3992 ;;		wreg, fsr0l, fsr0h, fsr2l, fsr2h, status,2, status,0, tblptrl, tblptrh, tblptru, prodl, prodh, cstack
  3993 ;; Tracked objects:
  3994 ;;		On entry : 0/0
  3995 ;;		On exit  : 0/0
  3996 ;;		Unchanged: 0/0
  3997 ;; Data sizes:     COMRAM   BANK0   BANK1   BANK2   BANK3   BANK4   BANK5   BANK6   BANK7   BANK8   BANK9  BANK10  BANK1
      +1  BANK12  BANK13  BANK14
  3998 ;;      Params:         0       0       0       0       0       0       0       0       0       0       0       0       
      +0       0       0       0
  3999 ;;      Locals:         0      12       0       0       0       0       0       0       0       0       0       0       
      +0       0       0       0
  4000 ;;      Temps:          0       5       0       0       0       0       0       0       0       0       0       0       
      +0       0       0       0
  4001 ;;      Totals:         0      17       0       0       0       0       0       0       0       0       0       0       
      +0       0       0       0
  4002 ;;Total ram usage:       17 bytes
  4003 ;; Hardware stack levels used:    1
  4004 ;; Hardware stack levels required when called:    4
  4005 ;; This function calls:
  4006 ;;		_Write1USART
  4007 ;;		___wmul
  4008 ;;		_strlen
  4009 ;; This function is called by:
  4010 ;;		_main
  4011 ;; This function uses a non-reentrant model
  4012 ;;
  4013                           
  4014                           	psect	text8
  4015  011684                     __ptext8:
  4016                           	opt stack 0
  4017  011684                     _readbuffer:
  4018                           	opt stack 26
  4019                           
  4020                           ;bufferint.c: 5: char br1 = '\0';
  4021                           
  4022                           ; BSR set to: 0
  4023                           ;incstack = 0
  4024  011684  0100               	movlb	0	; () banked
  4025  011686  6FCE               	movwf	??_readbuffer& (0+255),b
  4026  011688  0E00               	movlw	0
  4027  01168A  0100               	movlb	0	; () banked
  4028  01168C  0100               	movlb	0	; () banked
  4029  01168E  6FDB               	movwf	readbuffer@br1& (0+255),b
  4030  011690  0100               	movlb	0	; () banked
  4031  011692  51CE               	movf	??_readbuffer& (0+255),w,b
  4032                           
  4033                           ;bufferint.c: 6: char br2 = '\0';
  4034  011694  0100               	movlb	0	; () banked
  4035  011696  6FCE               	movwf	??_readbuffer& (0+255),b
  4036  011698  0E00               	movlw	0
  4037  01169A  0100               	movlb	0	; () banked
  4038  01169C  0100               	movlb	0	; () banked
  4039  01169E  6FDE               	movwf	readbuffer@br2& (0+255),b
  4040  0116A0  0100               	movlb	0	; () banked
  4041  0116A2  51CE               	movf	??_readbuffer& (0+255),w,b
  4042                           
  4043                           ; BSR set to: 0
  4044                           ;bufferint.c: 7: if(buffer1Write != buffer1Read)
  4045  0116A4  0100               	movlb	0	; () banked
  4046  0116A6  0100               	movlb	0	; () banked
  4047  0116A8  517B               	movf	(_buffer1Read+1)& (0+255),w,b
  4048  0116AA  1824               	xorwf	_buffer1Write+1,w,c
  4049  0116AC  E104               	bnz	u5985
  4050  0116AE  0100               	movlb	0	; () banked
  4051  0116B0  0100               	movlb	0	; () banked
  4052  0116B2  517A               	movf	_buffer1Read& (0+255),w,b
  4053  0116B4  1823               	xorwf	_buffer1Write,w,c
  4054  0116B6                     u5985:
  4055  0116B6  B4D8               	btfsc	status,2,c
  4056  0116B8  D13C               	goto	l7608
  4057                           
  4058                           ; BSR set to: 0
  4059                           ;bufferint.c: 8: {
  4060                           ;bufferint.c: 9: buffer1Read ++;
  4061  0116BA  0100               	movlb	0	; () banked
  4062  0116BC  0100               	movlb	0	; () banked
  4063  0116BE  4B7A               	infsnz	_buffer1Read& (0+255),f,b
  4064  0116C0  2B7B               	incf	(_buffer1Read+1)& (0+255),f,b
  4065                           
  4066                           ; BSR set to: 0
  4067                           ;bufferint.c: 11: if(buffer1Read>= 128)
  4068  0116C2  0100               	movlb	0	; () banked
  4069  0116C4  0100               	movlb	0	; () banked
  4070  0116C6  517B               	movf	(_buffer1Read+1)& (0+255),w,b
  4071  0116C8  0A80               	xorlw	128
  4072  0116CA  0F80               	addlw	-128
  4073  0116CC  0E80               	movlw	128
  4074  0116CE  B4D8               	btfsc	status,2,c
  4075  0116D0  5D7A               	subwf	_buffer1Read& (0+255),w,b
  4076  0116D2  A0D8               	btfss	status,0,c
  4077  0116D4  D007               	goto	l7536
  4078                           
  4079                           ; BSR set to: 0
  4080                           ;bufferint.c: 12: {
  4081                           ;bufferint.c: 13: buffer1Read = 0;
  4082  0116D6  0E00               	movlw	0
  4083  0116D8  0100               	movlb	0	; () banked
  4084  0116DA  0100               	movlb	0	; () banked
  4085  0116DC  6F7B               	movwf	(_buffer1Read+1)& (0+255),b
  4086  0116DE  0E00               	movlw	0
  4087  0116E0  0100               	movlb	0	; () banked
  4088  0116E2  6F7A               	movwf	_buffer1Read& (0+255),b
  4089  0116E4                     l7536:
  4090                           
  4091                           ; BSR set to: 0
  4092                           ;bufferint.c: 14: }
  4093                           ;bufferint.c: 15: br1 = bufferint1[buffer1Read];
  4094  0116E4  0101               	movlb	1	; () banked
  4095  0116E6  0E00               	movlw	low _bufferint1
  4096  0116E8  0100               	movlb	0	; () banked
  4097  0116EA  0100               	movlb	0	; () banked
  4098  0116EC  257A               	addwf	_buffer1Read& (0+255),w,b
  4099  0116EE  6ED9               	movwf	fsr2l,c
  4100  0116F0  0101               	movlb	1	; () banked
  4101  0116F2  0E01               	movlw	high _bufferint1
  4102  0116F4  0100               	movlb	0	; () banked
  4103  0116F6  0100               	movlb	0	; () banked
  4104  0116F8  217B               	addwfc	(_buffer1Read+1)& (0+255),w,b
  4105  0116FA  6EDA               	movwf	fsr2h,c
  4106  0116FC  50DF               	movf	indf2,w,c
  4107  0116FE  0100               	movlb	0	; () banked
  4108  011700  0100               	movlb	0	; () banked
  4109  011702  6FDB               	movwf	readbuffer@br1& (0+255),b
  4110                           
  4111                           ;bufferint.c: 18: switch(br1)
  4112  011704  D10C               	goto	l7606
  4113  011706                     l7538:
  4114                           
  4115                           ; BSR set to: 0
  4116                           ;bufferint.c: 21: VSOH = 1;
  4117  011706  0100               	movlb	0	; () banked
  4118  011708  6FCE               	movwf	??_readbuffer& (0+255),b
  4119  01170A  0E01               	movlw	1
  4120  01170C  6E36               	movwf	_VSOH,c
  4121  01170E  0100               	movlb	0	; () banked
  4122  011710  51CE               	movf	??_readbuffer& (0+255),w,b
  4123                           
  4124                           ;bufferint.c: 22: break;
  4125  011712  0012               	return	
  4126  011714                     l7540:
  4127                           
  4128                           ; BSR set to: 0
  4129                           ;bufferint.c: 24: if(VSOH)
  4130  011714  5036               	movf	_VSOH,w,c
  4131  011716  B4D8               	btfsc	status,2,c
  4132  011718  0012               	return	
  4133                           
  4134                           ; BSR set to: 0
  4135                           ;bufferint.c: 25: {
  4136                           ;bufferint.c: 26: VSOH = 0;
  4137  01171A  0100               	movlb	0	; () banked
  4138  01171C  6FCE               	movwf	??_readbuffer& (0+255),b
  4139  01171E  0E00               	movlw	0
  4140  011720  6E36               	movwf	_VSOH,c
  4141  011722  0100               	movlb	0	; () banked
  4142  011724  51CE               	movf	??_readbuffer& (0+255),w,b
  4143                           
  4144                           ;bufferint.c: 27: VSOok = 1;
  4145  011726  0100               	movlb	0	; () banked
  4146  011728  6FCE               	movwf	??_readbuffer& (0+255),b
  4147  01172A  0E01               	movlw	1
  4148  01172C  6E37               	movwf	_VSOok,c
  4149  01172E  0100               	movlb	0	; () banked
  4150  011730  51CE               	movf	??_readbuffer& (0+255),w,b
  4151                           
  4152                           ; BSR set to: 0
  4153                           ;bufferint.c: 28: nbOfChar = 0;
  4154  011732  0E00               	movlw	0
  4155  011734  6E2E               	movwf	_nbOfChar+1,c
  4156  011736  0E00               	movlw	0
  4157  011738  6E2D               	movwf	_nbOfChar,c
  4158  01173A  0012               	return	
  4159  01173C                     l7546:
  4160                           
  4161                           ; BSR set to: 0
  4162                           ;bufferint.c: 32: if(VSOok == 1)
  4163  01173C  0437               	decf	_VSOok,w,c
  4164  01173E  A4D8               	btfss	status,2,c
  4165  011740  D016               	goto	l7552
  4166                           
  4167                           ; BSR set to: 0
  4168                           ;bufferint.c: 33: {
  4169                           ;bufferint.c: 34: checksumtoChesck = 0;
  4170  011742  0E00               	movlw	0
  4171  011744  0100               	movlb	0	; () banked
  4172  011746  0100               	movlb	0	; () banked
  4173  011748  6F7F               	movwf	(_checksumtoChesck+1)& (0+255),b
  4174  01174A  0E00               	movlw	0
  4175  01174C  0100               	movlb	0	; () banked
  4176  01174E  6F7E               	movwf	_checksumtoChesck& (0+255),b
  4177                           
  4178                           ;bufferint.c: 35: dataLenghtoReceived = (int)br1 <<8;
  4179  011750  0100               	movlb	0	; () banked
  4180  011752  0100               	movlb	0	; () banked
  4181  011754  51DB               	movf	readbuffer@br1& (0+255),w,b
  4182  011756  0100               	movlb	0	; () banked
  4183  011758  0100               	movlb	0	; () banked
  4184  01175A  6F81               	movwf	(_dataLenghtoReceived+1)& (0+255),b
  4185  01175C  0100               	movlb	0	; () banked
  4186  01175E  6B80               	clrf	_dataLenghtoReceived& (0+255),b
  4187                           
  4188                           ; BSR set to: 0
  4189                           ;bufferint.c: 36: VSOok = 2;
  4190  011760  0100               	movlb	0	; () banked
  4191  011762  6FCE               	movwf	??_readbuffer& (0+255),b
  4192  011764  0E02               	movlw	2
  4193  011766  6E37               	movwf	_VSOok,c
  4194  011768  0100               	movlb	0	; () banked
  4195  01176A  51CE               	movf	??_readbuffer& (0+255),w,b
  4196                           
  4197                           ;bufferint.c: 37: }
  4198  01176C  0012               	return	
  4199  01176E                     l7552:
  4200                           
  4201                           ; BSR set to: 0
  4202                           ;bufferint.c: 38: else if(VSOok == 2)
  4203  01176E  5037               	movf	_VSOok,w,c
  4204  011770  0A02               	xorlw	2
  4205  011772  A4D8               	btfss	status,2,c
  4206  011774  D010               	goto	l7558
  4207                           
  4208                           ; BSR set to: 0
  4209                           ;bufferint.c: 39: {
  4210                           ;bufferint.c: 40: dataLenghtoReceived += (int)br1 & 0x0FF;
  4211  011776  0100               	movlb	0	; () banked
  4212  011778  0100               	movlb	0	; () banked
  4213  01177A  51DB               	movf	readbuffer@br1& (0+255),w,b
  4214  01177C  0100               	movlb	0	; () banked
  4215  01177E  0100               	movlb	0	; () banked
  4216  011780  2780               	addwf	_dataLenghtoReceived& (0+255),f,b
  4217  011782  0E00               	movlw	0
  4218  011784  0100               	movlb	0	; () banked
  4219  011786  2381               	addwfc	(_dataLenghtoReceived+1)& (0+255),f,b
  4220                           
  4221                           ; BSR set to: 0
  4222                           ;bufferint.c: 41: VSOok = 3;
  4223  011788  0100               	movlb	0	; () banked
  4224  01178A  6FCE               	movwf	??_readbuffer& (0+255),b
  4225  01178C  0E03               	movlw	3
  4226  01178E  6E37               	movwf	_VSOok,c
  4227  011790  0100               	movlb	0	; () banked
  4228  011792  51CE               	movf	??_readbuffer& (0+255),w,b
  4229                           
  4230                           ;bufferint.c: 42: }
  4231  011794  0012               	return	
  4232  011796                     l7558:
  4233                           
  4234                           ; BSR set to: 0
  4235                           ;bufferint.c: 43: else if(VSOok == 3)
  4236  011796  5037               	movf	_VSOok,w,c
  4237  011798  0A03               	xorlw	3
  4238  01179A  A4D8               	btfss	status,2,c
  4239  01179C  D016               	goto	l7566
  4240                           
  4241                           ; BSR set to: 0
  4242                           ;bufferint.c: 44: {
  4243                           ;bufferint.c: 45: idReceived = (int)br1;
  4244  01179E  0100               	movlb	0	; () banked
  4245  0117A0  C0DB  F029         	movff	readbuffer@br1,_idReceived
  4246  0117A4  6A2A               	clrf	_idReceived+1,c
  4247                           
  4248                           ;bufferint.c: 46: checksumtoChesck = (int)br1;
  4249  0117A6  0100               	movlb	0	; () banked
  4250  0117A8  0100               	movlb	0	; () banked
  4251  0117AA  C0DB  F07E         	movff	readbuffer@br1,_checksumtoChesck
  4252  0117AE  0100               	movlb	0	; () banked
  4253  0117B0  0100               	movlb	0	; () banked
  4254  0117B2  6B7F               	clrf	(_checksumtoChesck+1)& (0+255),b
  4255                           
  4256                           ; BSR set to: 0
  4257                           ;bufferint.c: 47: nbOfChar = 0;
  4258  0117B4  0E00               	movlw	0
  4259  0117B6  6E2E               	movwf	_nbOfChar+1,c
  4260  0117B8  0E00               	movlw	0
  4261  0117BA  6E2D               	movwf	_nbOfChar,c
  4262                           
  4263                           ; BSR set to: 0
  4264                           ;bufferint.c: 48: VSOok = 4;
  4265  0117BC  0100               	movlb	0	; () banked
  4266  0117BE  6FCE               	movwf	??_readbuffer& (0+255),b
  4267  0117C0  0E04               	movlw	4
  4268  0117C2  6E37               	movwf	_VSOok,c
  4269  0117C4  0100               	movlb	0	; () banked
  4270  0117C6  51CE               	movf	??_readbuffer& (0+255),w,b
  4271                           
  4272                           ;bufferint.c: 49: }
  4273  0117C8  0012               	return	
  4274  0117CA                     l7566:
  4275                           
  4276                           ; BSR set to: 0
  4277                           ;bufferint.c: 50: else if(VSOok == 4)
  4278  0117CA  5037               	movf	_VSOok,w,c
  4279  0117CC  0A04               	xorlw	4
  4280  0117CE  A4D8               	btfss	status,2,c
  4281  0117D0  D053               	goto	l7582
  4282                           
  4283                           ; BSR set to: 0
  4284                           ;bufferint.c: 51: {
  4285                           ;bufferint.c: 52: if(nbOfChar<=dataLenghtoReceived-1)
  4286  0117D2  0EFF               	movlw	255
  4287  0117D4  0100               	movlb	0	; () banked
  4288  0117D6  6FCE               	movwf	??_readbuffer& (0+255),b
  4289  0117D8  0EFF               	movlw	255
  4290  0117DA  6FCF               	movwf	(??_readbuffer+1)& (0+255),b
  4291  0117DC  0100               	movlb	0	; () banked
  4292  0117DE  C080  F0D0         	movff	_dataLenghtoReceived,??_readbuffer+2
  4293  0117E2  0100               	movlb	0	; () banked
  4294  0117E4  C081  F0D1         	movff	_dataLenghtoReceived+1,??_readbuffer+3
  4295  0117E8  0100               	movlb	0	; () banked
  4296  0117EA  51CE               	movf	??_readbuffer& (0+255),w,b
  4297  0117EC  0100               	movlb	0	; () banked
  4298  0117EE  27D0               	addwf	(??_readbuffer+2)& (0+255),f,b
  4299  0117F0  0100               	movlb	0	; () banked
  4300  0117F2  51CF               	movf	(??_readbuffer+1)& (0+255),w,b
  4301  0117F4  0100               	movlb	0	; () banked
  4302  0117F6  23D1               	addwfc	(??_readbuffer+3)& (0+255),f,b
  4303  0117F8  0100               	movlb	0	; () banked
  4304  0117FA  51D1               	movf	(??_readbuffer+3)& (0+255),w,b
  4305  0117FC  0A80               	xorlw	128
  4306  0117FE  0100               	movlb	0	; () banked
  4307  011800  6FD2               	movwf	(??_readbuffer+4)& (0+255),b
  4308  011802  502D               	movf	_nbOfChar,w,c
  4309  011804  0100               	movlb	0	; () banked
  4310  011806  5DD0               	subwf	(??_readbuffer+2)& (0+255),w,b
  4311  011808  502E               	movf	_nbOfChar+1,w,c
  4312  01180A  0A80               	xorlw	128
  4313  01180C  0100               	movlb	0	; () banked
  4314  01180E  59D2               	subwfb	(??_readbuffer+4)& (0+255),w,b
  4315  011810  A0D8               	btfss	status,0,c
  4316  011812  D015               	goto	l7574
  4317                           
  4318                           ; BSR set to: 0
  4319                           ;bufferint.c: 53: {
  4320                           ;bufferint.c: 54: trameToParse[nbOfChar] = br1;
  4321  011814  0101               	movlb	1	; () banked
  4322  011816  0E9E               	movlw	low _trameToParse
  4323  011818  242D               	addwf	_nbOfChar,w,c
  4324  01181A  6ED9               	movwf	fsr2l,c
  4325  01181C  0101               	movlb	1	; () banked
  4326  01181E  0E01               	movlw	high _trameToParse
  4327  011820  202E               	addwfc	_nbOfChar+1,w,c
  4328  011822  6EDA               	movwf	fsr2h,c
  4329  011824  0100               	movlb	0	; () banked
  4330  011826  C0DB  FFDF         	movff	readbuffer@br1,indf2
  4331                           
  4332                           ; BSR set to: 0
  4333                           ;bufferint.c: 55: checksumtoChesck += (int)br1;
  4334  01182A  0100               	movlb	0	; () banked
  4335  01182C  0100               	movlb	0	; () banked
  4336  01182E  51DB               	movf	readbuffer@br1& (0+255),w,b
  4337  011830  0100               	movlb	0	; () banked
  4338  011832  0100               	movlb	0	; () banked
  4339  011834  277E               	addwf	_checksumtoChesck& (0+255),f,b
  4340  011836  0E00               	movlw	0
  4341  011838  0100               	movlb	0	; () banked
  4342  01183A  237F               	addwfc	(_checksumtoChesck+1)& (0+255),f,b
  4343                           
  4344                           ;bufferint.c: 56: }
  4345  01183C  D01A               	goto	l7580
  4346  01183E                     l7574:
  4347                           
  4348                           ; BSR set to: 0
  4349                           ;bufferint.c: 57: else
  4350                           ;bufferint.c: 58: {
  4351                           ;bufferint.c: 59: trameToParse[nbOfChar] = br1;
  4352  01183E  0101               	movlb	1	; () banked
  4353  011840  0E9E               	movlw	low _trameToParse
  4354  011842  242D               	addwf	_nbOfChar,w,c
  4355  011844  6ED9               	movwf	fsr2l,c
  4356  011846  0101               	movlb	1	; () banked
  4357  011848  0E01               	movlw	high _trameToParse
  4358  01184A  202E               	addwfc	_nbOfChar+1,w,c
  4359  01184C  6EDA               	movwf	fsr2h,c
  4360  01184E  0100               	movlb	0	; () banked
  4361  011850  C0DB  FFDF         	movff	readbuffer@br1,indf2
  4362                           
  4363                           ; BSR set to: 0
  4364                           ;bufferint.c: 60: checksumtoChesck += (int)br1;
  4365  011854  0100               	movlb	0	; () banked
  4366  011856  0100               	movlb	0	; () banked
  4367  011858  51DB               	movf	readbuffer@br1& (0+255),w,b
  4368  01185A  0100               	movlb	0	; () banked
  4369  01185C  0100               	movlb	0	; () banked
  4370  01185E  277E               	addwf	_checksumtoChesck& (0+255),f,b
  4371  011860  0E00               	movlw	0
  4372  011862  0100               	movlb	0	; () banked
  4373  011864  237F               	addwfc	(_checksumtoChesck+1)& (0+255),f,b
  4374                           
  4375                           ; BSR set to: 0
  4376                           ;bufferint.c: 61: VSOok = 5;
  4377  011866  0100               	movlb	0	; () banked
  4378  011868  6FCE               	movwf	??_readbuffer& (0+255),b
  4379  01186A  0E05               	movlw	5
  4380  01186C  6E37               	movwf	_VSOok,c
  4381  01186E  0100               	movlb	0	; () banked
  4382  011870  51CE               	movf	??_readbuffer& (0+255),w,b
  4383  011872                     l7580:
  4384                           
  4385                           ; BSR set to: 0
  4386                           ;bufferint.c: 62: }
  4387                           ;bufferint.c: 64: nbOfChar ++;
  4388  011872  4A2D               	infsnz	_nbOfChar,f,c
  4389  011874  2A2E               	incf	_nbOfChar+1,f,c
  4390                           
  4391                           ;bufferint.c: 65: }
  4392  011876  0012               	return	
  4393  011878                     l7582:
  4394                           
  4395                           ; BSR set to: 0
  4396                           ;bufferint.c: 66: else if(VSOok == 5)
  4397  011878  5037               	movf	_VSOok,w,c
  4398  01187A  0A05               	xorlw	5
  4399  01187C  A4D8               	btfss	status,2,c
  4400  01187E  D00F               	goto	l7588
  4401                           
  4402                           ; BSR set to: 0
  4403                           ;bufferint.c: 67: {
  4404                           ;bufferint.c: 69: ChecksumReceived = br1 <<8;
  4405  011880  0100               	movlb	0	; () banked
  4406  011882  0100               	movlb	0	; () banked
  4407  011884  51DB               	movf	readbuffer@br1& (0+255),w,b
  4408  011886  0100               	movlb	0	; () banked
  4409  011888  0100               	movlb	0	; () banked
  4410  01188A  6F79               	movwf	(_ChecksumReceived+1)& (0+255),b
  4411  01188C  0100               	movlb	0	; () banked
  4412  01188E  6B78               	clrf	_ChecksumReceived& (0+255),b
  4413                           
  4414                           ; BSR set to: 0
  4415                           ;bufferint.c: 70: VSOok = 6;
  4416  011890  0100               	movlb	0	; () banked
  4417  011892  6FCE               	movwf	??_readbuffer& (0+255),b
  4418  011894  0E06               	movlw	6
  4419  011896  6E37               	movwf	_VSOok,c
  4420  011898  0100               	movlb	0	; () banked
  4421  01189A  51CE               	movf	??_readbuffer& (0+255),w,b
  4422                           
  4423                           ;bufferint.c: 71: }
  4424  01189C  0012               	return	
  4425  01189E                     l7588:
  4426                           
  4427                           ; BSR set to: 0
  4428                           ;bufferint.c: 72: else if(VSOok == 6)
  4429  01189E  5037               	movf	_VSOok,w,c
  4430  0118A0  0A06               	xorlw	6
  4431  0118A2  A4D8               	btfss	status,2,c
  4432  0118A4  0012               	return	
  4433                           
  4434                           ; BSR set to: 0
  4435                           ;bufferint.c: 73: {
  4436                           ;bufferint.c: 74: ChecksumReceived += br1 & 0x0FF;
  4437  0118A6  0100               	movlb	0	; () banked
  4438  0118A8  0100               	movlb	0	; () banked
  4439  0118AA  51DB               	movf	readbuffer@br1& (0+255),w,b
  4440  0118AC  0100               	movlb	0	; () banked
  4441  0118AE  0100               	movlb	0	; () banked
  4442  0118B0  2778               	addwf	_ChecksumReceived& (0+255),f,b
  4443  0118B2  0E00               	movlw	0
  4444  0118B4  0100               	movlb	0	; () banked
  4445  0118B6  2379               	addwfc	(_ChecksumReceived+1)& (0+255),f,b
  4446                           
  4447                           ; BSR set to: 0
  4448                           ;bufferint.c: 75: VSOok = 0;
  4449  0118B8  0100               	movlb	0	; () banked
  4450  0118BA  6FCE               	movwf	??_readbuffer& (0+255),b
  4451  0118BC  0E00               	movlw	0
  4452  0118BE  6E37               	movwf	_VSOok,c
  4453  0118C0  0100               	movlb	0	; () banked
  4454  0118C2  51CE               	movf	??_readbuffer& (0+255),w,b
  4455                           
  4456                           ; BSR set to: 0
  4457                           ;bufferint.c: 77: if(checksumtoChesck == ChecksumReceived)
  4458  0118C4  0100               	movlb	0	; () banked
  4459  0118C6  0100               	movlb	0	; () banked
  4460  0118C8  5179               	movf	(_ChecksumReceived+1)& (0+255),w,b
  4461  0118CA  0100               	movlb	0	; () banked
  4462  0118CC  0100               	movlb	0	; () banked
  4463  0118CE  197F               	xorwf	(_checksumtoChesck+1)& (0+255),w,b
  4464  0118D0  E106               	bnz	u6085
  4465  0118D2  0100               	movlb	0	; () banked
  4466  0118D4  0100               	movlb	0	; () banked
  4467  0118D6  5178               	movf	_ChecksumReceived& (0+255),w,b
  4468  0118D8  0100               	movlb	0	; () banked
  4469  0118DA  0100               	movlb	0	; () banked
  4470  0118DC  197E               	xorwf	_checksumtoChesck& (0+255),w,b
  4471  0118DE                     u6085:
  4472  0118DE  A4D8               	btfss	status,2,c
  4473  0118E0  D009               	goto	l7598
  4474                           
  4475                           ; BSR set to: 0
  4476                           ;bufferint.c: 78: {
  4477                           ;bufferint.c: 80: VtrameReceived = 1;
  4478  0118E2  0100               	movlb	0	; () banked
  4479  0118E4  6FCE               	movwf	??_readbuffer& (0+255),b
  4480  0118E6  0E01               	movlw	1
  4481  0118E8  0100               	movlb	0	; () banked
  4482  0118EA  0100               	movlb	0	; () banked
  4483  0118EC  6F98               	movwf	_VtrameReceived& (0+255),b
  4484  0118EE  0100               	movlb	0	; () banked
  4485  0118F0  51CE               	movf	??_readbuffer& (0+255),w,b
  4486                           
  4487                           ;bufferint.c: 81: }
  4488  0118F2  0012               	return	
  4489  0118F4                     l7598:
  4490                           
  4491                           ; BSR set to: 0
  4492                           ;bufferint.c: 82: else
  4493                           ;bufferint.c: 83: {
  4494                           ;bufferint.c: 84: trameToParse[0] = '\0';
  4495  0118F4  0100               	movlb	0	; () banked
  4496  0118F6  6FCE               	movwf	??_readbuffer& (0+255),b
  4497  0118F8  0E00               	movlw	0
  4498  0118FA  0101               	movlb	1	; () banked
  4499  0118FC  0101               	movlb	1	; () banked
  4500  0118FE  6F9E               	movwf	_trameToParse& (0+255),b
  4501  011900  0100               	movlb	0	; () banked
  4502  011902  51CE               	movf	??_readbuffer& (0+255),w,b
  4503                           
  4504                           ; BSR set to: 0
  4505                           ;bufferint.c: 85: idReceived = 0;
  4506  011904  0E00               	movlw	0
  4507  011906  6E2A               	movwf	_idReceived+1,c
  4508  011908  0E00               	movlw	0
  4509  01190A  6E29               	movwf	_idReceived,c
  4510                           
  4511                           ; BSR set to: 0
  4512                           ;bufferint.c: 86: VtrameReceived = 0;
  4513  01190C  0100               	movlb	0	; () banked
  4514  01190E  6FCE               	movwf	??_readbuffer& (0+255),b
  4515  011910  0E00               	movlw	0
  4516  011912  0100               	movlb	0	; () banked
  4517  011914  0100               	movlb	0	; () banked
  4518  011916  6F98               	movwf	_VtrameReceived& (0+255),b
  4519  011918  0100               	movlb	0	; () banked
  4520  01191A  51CE               	movf	??_readbuffer& (0+255),w,b
  4521  01191C  0012               	return	
  4522  01191E                     l7606:
  4523                           
  4524                           ; BSR set to: 0
  4525  01191E  0100               	movlb	0	; () banked
  4526  011920  0100               	movlb	0	; () banked
  4527  011922  51DB               	movf	readbuffer@br1& (0+255),w,b
  4528                           
  4529                           ; Switch size 1, requested type "space"
  4530                           ; Number of cases is 2, Range of values is 115 to 127
  4531                           ; switch strategies available:
  4532                           ; Name         Instructions Cycles
  4533                           ; simple_byte            7     4 (average)
  4534                           ;	Chosen strategy is simple_byte
  4535  011924  0A73               	xorlw	115	; case 115
  4536  011926  B4D8               	btfsc	status,2,c
  4537  011928  D6EE               	goto	l7538
  4538  01192A  0A0C               	xorlw	12	; case 127
  4539  01192C  B4D8               	btfsc	status,2,c
  4540  01192E  D6F2               	goto	l7540
  4541  011930  D705               	goto	l7546
  4542  011932                     l7608:
  4543                           
  4544                           ; BSR set to: 0
  4545                           ;bufferint.c: 94: else if(buffer2Write != buffer2Read)
  4546  011932  0100               	movlb	0	; () banked
  4547  011934  0100               	movlb	0	; () banked
  4548  011936  517D               	movf	(_buffer2Read+1)& (0+255),w,b
  4549  011938  1826               	xorwf	_buffer2Write+1,w,c
  4550  01193A  E104               	bnz	u6095
  4551  01193C  0100               	movlb	0	; () banked
  4552  01193E  0100               	movlb	0	; () banked
  4553  011940  517C               	movf	_buffer2Read& (0+255),w,b
  4554  011942  1825               	xorwf	_buffer2Write,w,c
  4555  011944                     u6095:
  4556  011944  B4D8               	btfsc	status,2,c
  4557  011946  0012               	return	
  4558                           
  4559                           ; BSR set to: 0
  4560                           ;bufferint.c: 95: {
  4561                           ;bufferint.c: 96: buffer2Read ++;
  4562  011948  0100               	movlb	0	; () banked
  4563  01194A  0100               	movlb	0	; () banked
  4564  01194C  4B7C               	infsnz	_buffer2Read& (0+255),f,b
  4565  01194E  2B7D               	incf	(_buffer2Read+1)& (0+255),f,b
  4566                           
  4567                           ; BSR set to: 0
  4568                           ;bufferint.c: 97: if(buffer2Read>= 128)
  4569  011950  0100               	movlb	0	; () banked
  4570  011952  0100               	movlb	0	; () banked
  4571  011954  517D               	movf	(_buffer2Read+1)& (0+255),w,b
  4572  011956  0A80               	xorlw	128
  4573  011958  0F80               	addlw	-128
  4574  01195A  0E80               	movlw	128
  4575  01195C  B4D8               	btfsc	status,2,c
  4576  01195E  5D7C               	subwf	_buffer2Read& (0+255),w,b
  4577  011960  A0D8               	btfss	status,0,c
  4578  011962  D007               	goto	l7616
  4579                           
  4580                           ; BSR set to: 0
  4581                           ;bufferint.c: 98: {
  4582                           ;bufferint.c: 99: buffer2Read = 0;
  4583  011964  0E00               	movlw	0
  4584  011966  0100               	movlb	0	; () banked
  4585  011968  0100               	movlb	0	; () banked
  4586  01196A  6F7D               	movwf	(_buffer2Read+1)& (0+255),b
  4587  01196C  0E00               	movlw	0
  4588  01196E  0100               	movlb	0	; () banked
  4589  011970  6F7C               	movwf	_buffer2Read& (0+255),b
  4590  011972                     l7616:
  4591                           
  4592                           ; BSR set to: 0
  4593                           ;bufferint.c: 100: }
  4594                           ;bufferint.c: 101: br2 = bufferint2[buffer2Read];
  4595  011972  0102               	movlb	2	; () banked
  4596  011974  0E00               	movlw	low _bufferint2
  4597  011976  0100               	movlb	0	; () banked
  4598  011978  0100               	movlb	0	; () banked
  4599  01197A  257C               	addwf	_buffer2Read& (0+255),w,b
  4600  01197C  6ED9               	movwf	fsr2l,c
  4601  01197E  0102               	movlb	2	; () banked
  4602  011980  0E02               	movlw	high _bufferint2
  4603  011982  0100               	movlb	0	; () banked
  4604  011984  0100               	movlb	0	; () banked
  4605  011986  217D               	addwfc	(_buffer2Read+1)& (0+255),w,b
  4606  011988  6EDA               	movwf	fsr2h,c
  4607  01198A  50DF               	movf	indf2,w,c
  4608  01198C  0100               	movlb	0	; () banked
  4609  01198E  0100               	movlb	0	; () banked
  4610  011990  6FDE               	movwf	readbuffer@br2& (0+255),b
  4611  011992                     l897:
  4612  011992  A2AD               	btfss	4013,1,c	;volatile
  4613  011994  D7FE               	goto	l897
  4614                           
  4615                           ;bufferint.c: 103: Write1USART(br2);
  4616  011996  0100               	movlb	0	; () banked
  4617  011998  0100               	movlb	0	; () banked
  4618  01199A  51DE               	movf	readbuffer@br2& (0+255),w,b
  4619  01199C  ECD9  F0A7         	call	_Write1USART
  4620                           
  4621                           ;bufferint.c: 104: if(howtimeIsIt)
  4622  0119A0  503C               	movf	_howtimeIsIt,w,c
  4623  0119A2  B4D8               	btfsc	status,2,c
  4624  0119A4  D05E               	goto	l7648
  4625                           
  4626                           ;bufferint.c: 105: {
  4627                           ;bufferint.c: 106: if(br2=='+')
  4628  0119A6  0100               	movlb	0	; () banked
  4629  0119A8  0100               	movlb	0	; () banked
  4630  0119AA  51DE               	movf	readbuffer@br2& (0+255),w,b
  4631  0119AC  0A2B               	xorlw	43
  4632  0119AE  A4D8               	btfss	status,2,c
  4633  0119B0  D00A               	goto	l7628
  4634                           
  4635                           ; BSR set to: 0
  4636                           ;bufferint.c: 107: {
  4637                           ;bufferint.c: 108: takeTime =1;
  4638  0119B2  0100               	movlb	0	; () banked
  4639  0119B4  6FCE               	movwf	??_readbuffer& (0+255),b
  4640  0119B6  0E01               	movlw	1
  4641  0119B8  6E3F               	movwf	_takeTime,c
  4642  0119BA  0100               	movlb	0	; () banked
  4643  0119BC  51CE               	movf	??_readbuffer& (0+255),w,b
  4644                           
  4645                           ; BSR set to: 0
  4646                           ;bufferint.c: 109: Ctime = 0;
  4647  0119BE  0E00               	movlw	0
  4648  0119C0  6E22               	movwf	_Ctime+1,c
  4649  0119C2  0E00               	movlw	0
  4650  0119C4  6E21               	movwf	_Ctime,c
  4651  0119C6                     l7628:
  4652                           
  4653                           ; BSR set to: 0
  4654                           ;bufferint.c: 110: }
  4655                           ;bufferint.c: 112: if(takeTime)
  4656  0119C6  503F               	movf	_takeTime,w,c
  4657  0119C8  B4D8               	btfsc	status,2,c
  4658  0119CA  D017               	goto	l7636
  4659                           
  4660                           ; BSR set to: 0
  4661                           ;bufferint.c: 113: {
  4662                           ;bufferint.c: 114: timeReceived[Ctime] = br2;
  4663  0119CC  0101               	movlb	1	; () banked
  4664  0119CE  0E80               	movlw	low _timeReceived
  4665  0119D0  2421               	addwf	_Ctime,w,c
  4666  0119D2  6ED9               	movwf	fsr2l,c
  4667  0119D4  0101               	movlb	1	; () banked
  4668  0119D6  0E01               	movlw	high _timeReceived
  4669  0119D8  2022               	addwfc	_Ctime+1,w,c
  4670  0119DA  6EDA               	movwf	fsr2h,c
  4671  0119DC  0100               	movlb	0	; () banked
  4672  0119DE  C0DE  FFDF         	movff	readbuffer@br2,indf2
  4673                           
  4674                           ; BSR set to: 0
  4675                           ;bufferint.c: 115: Ctime++;
  4676  0119E2  4A21               	infsnz	_Ctime,f,c
  4677  0119E4  2A22               	incf	_Ctime+1,f,c
  4678                           
  4679                           ; BSR set to: 0
  4680                           ;bufferint.c: 116: timeReceived[Ctime] = '\0';
  4681  0119E6  0101               	movlb	1	; () banked
  4682  0119E8  0E80               	movlw	low _timeReceived
  4683  0119EA  2421               	addwf	_Ctime,w,c
  4684  0119EC  6ED9               	movwf	fsr2l,c
  4685  0119EE  0101               	movlb	1	; () banked
  4686  0119F0  0E01               	movlw	high _timeReceived
  4687  0119F2  2022               	addwfc	_Ctime+1,w,c
  4688  0119F4  6EDA               	movwf	fsr2h,c
  4689  0119F6  0E00               	movlw	0
  4690  0119F8  6EDF               	movwf	indf2,c
  4691  0119FA                     l7636:
  4692                           
  4693                           ;bufferint.c: 117: }
  4694                           ;bufferint.c: 119: if(br2=='"')
  4695  0119FA  0100               	movlb	0	; () banked
  4696  0119FC  0100               	movlb	0	; () banked
  4697  0119FE  51DE               	movf	readbuffer@br2& (0+255),w,b
  4698  011A00  0A22               	xorlw	34
  4699  011A02  A4D8               	btfss	status,2,c
  4700  011A04  D004               	goto	l7640
  4701                           
  4702                           ; BSR set to: 0
  4703                           ;bufferint.c: 120: {
  4704                           ;bufferint.c: 121: virguleRecu++;
  4705  011A06  0100               	movlb	0	; () banked
  4706  011A08  0100               	movlb	0	; () banked
  4707  011A0A  4B90               	infsnz	_virguleRecu& (0+255),f,b
  4708  011A0C  2B91               	incf	(_virguleRecu+1)& (0+255),f,b
  4709  011A0E                     l7640:
  4710                           
  4711                           ; BSR set to: 0
  4712                           ;bufferint.c: 122: }
  4713                           ;bufferint.c: 124: if(virguleRecu>1)
  4714  011A0E  0100               	movlb	0	; () banked
  4715  011A10  0100               	movlb	0	; () banked
  4716  011A12  5191               	movf	(_virguleRecu+1)& (0+255),w,b
  4717  011A14  0A80               	xorlw	128
  4718  011A16  0F80               	addlw	-128
  4719  011A18  0E02               	movlw	2
  4720  011A1A  B4D8               	btfsc	status,2,c
  4721  011A1C  5D90               	subwf	_virguleRecu& (0+255),w,b
  4722  011A1E  A0D8               	btfss	status,0,c
  4723  011A20  0012               	return	
  4724                           
  4725                           ; BSR set to: 0
  4726                           ;bufferint.c: 125: {
  4727                           ;bufferint.c: 126: howtimeIsIt = 0;
  4728  011A22  0100               	movlb	0	; () banked
  4729  011A24  6FCE               	movwf	??_readbuffer& (0+255),b
  4730  011A26  0E00               	movlw	0
  4731  011A28  6E3C               	movwf	_howtimeIsIt,c
  4732  011A2A  0100               	movlb	0	; () banked
  4733  011A2C  51CE               	movf	??_readbuffer& (0+255),w,b
  4734                           
  4735                           ;bufferint.c: 127: takeTime = 0;
  4736  011A2E  0100               	movlb	0	; () banked
  4737  011A30  6FCE               	movwf	??_readbuffer& (0+255),b
  4738  011A32  0E00               	movlw	0
  4739  011A34  6E3F               	movwf	_takeTime,c
  4740  011A36  0100               	movlb	0	; () banked
  4741  011A38  51CE               	movf	??_readbuffer& (0+255),w,b
  4742                           
  4743                           ;bufferint.c: 128: timeRE = 1;
  4744  011A3A  0100               	movlb	0	; () banked
  4745  011A3C  6FCE               	movwf	??_readbuffer& (0+255),b
  4746  011A3E  0E01               	movlw	1
  4747  011A40  0100               	movlb	0	; () banked
  4748  011A42  0100               	movlb	0	; () banked
  4749  011A44  6FF1               	movwf	_timeRE& (0+255),b
  4750  011A46  0100               	movlb	0	; () banked
  4751  011A48  51CE               	movf	??_readbuffer& (0+255),w,b
  4752                           
  4753                           ; BSR set to: 0
  4754                           ;bufferint.c: 129: Ctime = 0;
  4755  011A4A  0E00               	movlw	0
  4756  011A4C  6E22               	movwf	_Ctime+1,c
  4757  011A4E  0E00               	movlw	0
  4758  011A50  6E21               	movwf	_Ctime,c
  4759                           
  4760                           ; BSR set to: 0
  4761                           ;bufferint.c: 130: virguleRecu = 0;
  4762  011A52  0E00               	movlw	0
  4763  011A54  0100               	movlb	0	; () banked
  4764  011A56  0100               	movlb	0	; () banked
  4765  011A58  6F91               	movwf	(_virguleRecu+1)& (0+255),b
  4766  011A5A  0E00               	movlw	0
  4767  011A5C  0100               	movlb	0	; () banked
  4768  011A5E  6F90               	movwf	_virguleRecu& (0+255),b
  4769  011A60  0012               	return	
  4770  011A62                     l7648:
  4771                           
  4772                           ;bufferint.c: 134: else
  4773                           ;bufferint.c: 135: {
  4774                           ;bufferint.c: 136: if(br2=='K'&&VO)
  4775  011A62  0100               	movlb	0	; () banked
  4776  011A64  0100               	movlb	0	; () banked
  4777  011A66  51DE               	movf	readbuffer@br2& (0+255),w,b
  4778  011A68  0A4B               	xorlw	75
  4779  011A6A  A4D8               	btfss	status,2,c
  4780  011A6C  D01A               	goto	l7654
  4781                           
  4782                           ; BSR set to: 0
  4783  011A6E  5035               	movf	_VO,w,c
  4784  011A70  B4D8               	btfsc	status,2,c
  4785  011A72  D017               	goto	l7654
  4786                           
  4787                           ; BSR set to: 0
  4788                           ;bufferint.c: 137: {
  4789                           ;bufferint.c: 138: br2='\0';
  4790  011A74  0100               	movlb	0	; () banked
  4791  011A76  6FCE               	movwf	??_readbuffer& (0+255),b
  4792  011A78  0E00               	movlw	0
  4793  011A7A  0100               	movlb	0	; () banked
  4794  011A7C  0100               	movlb	0	; () banked
  4795  011A7E  6FDE               	movwf	readbuffer@br2& (0+255),b
  4796  011A80  0100               	movlb	0	; () banked
  4797  011A82  51CE               	movf	??_readbuffer& (0+255),w,b
  4798                           
  4799                           ;bufferint.c: 139: VOK = 1;
  4800  011A84  0100               	movlb	0	; () banked
  4801  011A86  6FCE               	movwf	??_readbuffer& (0+255),b
  4802  011A88  0E01               	movlw	1
  4803  011A8A  0100               	movlb	0	; () banked
  4804  011A8C  0100               	movlb	0	; () banked
  4805  011A8E  6FF0               	movwf	_VOK& (0+255),b
  4806  011A90  0100               	movlb	0	; () banked
  4807  011A92  51CE               	movf	??_readbuffer& (0+255),w,b
  4808                           
  4809                           ;bufferint.c: 140: VO = 0;
  4810  011A94  0100               	movlb	0	; () banked
  4811  011A96  6FCE               	movwf	??_readbuffer& (0+255),b
  4812  011A98  0E00               	movlw	0
  4813  011A9A  6E35               	movwf	_VO,c
  4814  011A9C  0100               	movlb	0	; () banked
  4815  011A9E  51CE               	movf	??_readbuffer& (0+255),w,b
  4816                           
  4817                           ;bufferint.c: 141: }
  4818  011AA0  0012               	return	
  4819  011AA2                     l7654:
  4820                           
  4821                           ; BSR set to: 0
  4822                           ;bufferint.c: 142: else if(br2=='O')
  4823  011AA2  0100               	movlb	0	; () banked
  4824  011AA4  0100               	movlb	0	; () banked
  4825  011AA6  51DE               	movf	readbuffer@br2& (0+255),w,b
  4826  011AA8  0A4F               	xorlw	79
  4827  011AAA  A4D8               	btfss	status,2,c
  4828  011AAC  D00F               	goto	l7658
  4829                           
  4830                           ; BSR set to: 0
  4831                           ;bufferint.c: 143: {
  4832                           ;bufferint.c: 144: br2='\0';
  4833  011AAE  0100               	movlb	0	; () banked
  4834  011AB0  6FCE               	movwf	??_readbuffer& (0+255),b
  4835  011AB2  0E00               	movlw	0
  4836  011AB4  0100               	movlb	0	; () banked
  4837  011AB6  0100               	movlb	0	; () banked
  4838  011AB8  6FDE               	movwf	readbuffer@br2& (0+255),b
  4839  011ABA  0100               	movlb	0	; () banked
  4840  011ABC  51CE               	movf	??_readbuffer& (0+255),w,b
  4841                           
  4842                           ;bufferint.c: 145: VO = 1;
  4843  011ABE  0100               	movlb	0	; () banked
  4844  011AC0  6FCE               	movwf	??_readbuffer& (0+255),b
  4845  011AC2  0E01               	movlw	1
  4846  011AC4  6E35               	movwf	_VO,c
  4847  011AC6  0100               	movlb	0	; () banked
  4848  011AC8  51CE               	movf	??_readbuffer& (0+255),w,b
  4849                           
  4850                           ;bufferint.c: 146: }
  4851  011ACA  0012               	return	
  4852  011ACC                     l7658:
  4853                           
  4854                           ; BSR set to: 0
  4855                           ;bufferint.c: 147: else if(br2=='A'&&VO)
  4856  011ACC  0100               	movlb	0	; () banked
  4857  011ACE  0100               	movlb	0	; () banked
  4858  011AD0  51DE               	movf	readbuffer@br2& (0+255),w,b
  4859  011AD2  0A41               	xorlw	65
  4860  011AD4  A4D8               	btfss	status,2,c
  4861  011AD6  D018               	goto	l7664
  4862                           
  4863                           ; BSR set to: 0
  4864  011AD8  5035               	movf	_VO,w,c
  4865  011ADA  B4D8               	btfsc	status,2,c
  4866  011ADC  D015               	goto	l7664
  4867                           
  4868                           ; BSR set to: 0
  4869                           ;bufferint.c: 148: {
  4870                           ;bufferint.c: 149: br2='\0';
  4871  011ADE  0100               	movlb	0	; () banked
  4872  011AE0  6FCE               	movwf	??_readbuffer& (0+255),b
  4873  011AE2  0E00               	movlw	0
  4874  011AE4  0100               	movlb	0	; () banked
  4875  011AE6  0100               	movlb	0	; () banked
  4876  011AE8  6FDE               	movwf	readbuffer@br2& (0+255),b
  4877  011AEA  0100               	movlb	0	; () banked
  4878  011AEC  51CE               	movf	??_readbuffer& (0+255),w,b
  4879                           
  4880                           ;bufferint.c: 150: VKA = 1;
  4881  011AEE  0100               	movlb	0	; () banked
  4882  011AF0  6FCE               	movwf	??_readbuffer& (0+255),b
  4883  011AF2  0E01               	movlw	1
  4884  011AF4  6E34               	movwf	_VKA,c
  4885  011AF6  0100               	movlb	0	; () banked
  4886  011AF8  51CE               	movf	??_readbuffer& (0+255),w,b
  4887                           
  4888                           ;bufferint.c: 151: VO = 0;
  4889  011AFA  0100               	movlb	0	; () banked
  4890  011AFC  6FCE               	movwf	??_readbuffer& (0+255),b
  4891  011AFE  0E00               	movlw	0
  4892  011B00  6E35               	movwf	_VO,c
  4893  011B02  0100               	movlb	0	; () banked
  4894  011B04  51CE               	movf	??_readbuffer& (0+255),w,b
  4895                           
  4896                           ;bufferint.c: 152: }
  4897  011B06  0012               	return	
  4898  011B08                     l7664:
  4899                           
  4900                           ; BSR set to: 0
  4901                           ;bufferint.c: 153: else if(br2 =='D'&&VKA)
  4902  011B08  0100               	movlb	0	; () banked
  4903  011B0A  0100               	movlb	0	; () banked
  4904  011B0C  51DE               	movf	readbuffer@br2& (0+255),w,b
  4905  011B0E  0A44               	xorlw	68
  4906  011B10  A4D8               	btfss	status,2,c
  4907  011B12  D020               	goto	l7670
  4908                           
  4909                           ; BSR set to: 0
  4910  011B14  5034               	movf	_VKA,w,c
  4911  011B16  B4D8               	btfsc	status,2,c
  4912  011B18  D01D               	goto	l7670
  4913                           
  4914                           ; BSR set to: 0
  4915                           ;bufferint.c: 154: {
  4916                           ;bufferint.c: 155: br2='\0';
  4917  011B1A  0100               	movlb	0	; () banked
  4918  011B1C  6FCE               	movwf	??_readbuffer& (0+255),b
  4919  011B1E  0E00               	movlw	0
  4920  011B20  0100               	movlb	0	; () banked
  4921  011B22  0100               	movlb	0	; () banked
  4922  011B24  6FDE               	movwf	readbuffer@br2& (0+255),b
  4923  011B26  0100               	movlb	0	; () banked
  4924  011B28  51CE               	movf	??_readbuffer& (0+255),w,b
  4925                           
  4926                           ;bufferint.c: 156: VOK = 1;
  4927  011B2A  0100               	movlb	0	; () banked
  4928  011B2C  6FCE               	movwf	??_readbuffer& (0+255),b
  4929  011B2E  0E01               	movlw	1
  4930  011B30  0100               	movlb	0	; () banked
  4931  011B32  0100               	movlb	0	; () banked
  4932  011B34  6FF0               	movwf	_VOK& (0+255),b
  4933  011B36  0100               	movlb	0	; () banked
  4934  011B38  51CE               	movf	??_readbuffer& (0+255),w,b
  4935                           
  4936                           ;bufferint.c: 157: VO = 0;
  4937  011B3A  0100               	movlb	0	; () banked
  4938  011B3C  6FCE               	movwf	??_readbuffer& (0+255),b
  4939  011B3E  0E00               	movlw	0
  4940  011B40  6E35               	movwf	_VO,c
  4941  011B42  0100               	movlb	0	; () banked
  4942  011B44  51CE               	movf	??_readbuffer& (0+255),w,b
  4943                           
  4944                           ;bufferint.c: 158: VKA = 0;
  4945  011B46  0100               	movlb	0	; () banked
  4946  011B48  6FCE               	movwf	??_readbuffer& (0+255),b
  4947  011B4A  0E00               	movlw	0
  4948  011B4C  6E34               	movwf	_VKA,c
  4949  011B4E  0100               	movlb	0	; () banked
  4950  011B50  51CE               	movf	??_readbuffer& (0+255),w,b
  4951                           
  4952                           ;bufferint.c: 159: }
  4953  011B52  0012               	return	
  4954  011B54                     l7670:
  4955                           
  4956                           ; BSR set to: 0
  4957                           ;bufferint.c: 160: else if(br2=='e')
  4958  011B54  0100               	movlb	0	; () banked
  4959  011B56  0100               	movlb	0	; () banked
  4960  011B58  51DE               	movf	readbuffer@br2& (0+255),w,b
  4961  011B5A  0A65               	xorlw	101
  4962  011B5C  A4D8               	btfss	status,2,c
  4963  011B5E  D00F               	goto	l7674
  4964                           
  4965                           ; BSR set to: 0
  4966                           ;bufferint.c: 161: {
  4967                           ;bufferint.c: 162: br2='\0';
  4968  011B60  0100               	movlb	0	; () banked
  4969  011B62  6FCE               	movwf	??_readbuffer& (0+255),b
  4970  011B64  0E00               	movlw	0
  4971  011B66  0100               	movlb	0	; () banked
  4972  011B68  0100               	movlb	0	; () banked
  4973  011B6A  6FDE               	movwf	readbuffer@br2& (0+255),b
  4974  011B6C  0100               	movlb	0	; () banked
  4975  011B6E  51CE               	movf	??_readbuffer& (0+255),w,b
  4976                           
  4977                           ;bufferint.c: 163: Vstarte = 1;
  4978  011B70  0100               	movlb	0	; () banked
  4979  011B72  6FCE               	movwf	??_readbuffer& (0+255),b
  4980  011B74  0E01               	movlw	1
  4981  011B76  6E3B               	movwf	_Vstarte,c
  4982  011B78  0100               	movlb	0	; () banked
  4983  011B7A  51CE               	movf	??_readbuffer& (0+255),w,b
  4984                           
  4985                           ;bufferint.c: 164: }
  4986  011B7C  0012               	return	
  4987  011B7E                     l7674:
  4988                           
  4989                           ; BSR set to: 0
  4990                           ;bufferint.c: 165: else if(br2=='a'&& Vstarte)
  4991  011B7E  0100               	movlb	0	; () banked
  4992  011B80  0100               	movlb	0	; () banked
  4993  011B82  51DE               	movf	readbuffer@br2& (0+255),w,b
  4994  011B84  0A61               	xorlw	97
  4995  011B86  A4D8               	btfss	status,2,c
  4996  011B88  D018               	goto	l7680
  4997                           
  4998                           ; BSR set to: 0
  4999  011B8A  503B               	movf	_Vstarte,w,c
  5000  011B8C  B4D8               	btfsc	status,2,c
  5001  011B8E  D015               	goto	l7680
  5002                           
  5003                           ; BSR set to: 0
  5004                           ;bufferint.c: 166: {
  5005                           ;bufferint.c: 167: br2='\0';
  5006  011B90  0100               	movlb	0	; () banked
  5007  011B92  6FCE               	movwf	??_readbuffer& (0+255),b
  5008  011B94  0E00               	movlw	0
  5009  011B96  0100               	movlb	0	; () banked
  5010  011B98  0100               	movlb	0	; () banked
  5011  011B9A  6FDE               	movwf	readbuffer@br2& (0+255),b
  5012  011B9C  0100               	movlb	0	; () banked
  5013  011B9E  51CE               	movf	??_readbuffer& (0+255),w,b
  5014                           
  5015                           ;bufferint.c: 168: Vstarta = 1;
  5016  011BA0  0100               	movlb	0	; () banked
  5017  011BA2  6FCE               	movwf	??_readbuffer& (0+255),b
  5018  011BA4  0E01               	movlw	1
  5019  011BA6  6E39               	movwf	_Vstarta,c
  5020  011BA8  0100               	movlb	0	; () banked
  5021  011BAA  51CE               	movf	??_readbuffer& (0+255),w,b
  5022                           
  5023                           ;bufferint.c: 169: Vstarte = 0;
  5024  011BAC  0100               	movlb	0	; () banked
  5025  011BAE  6FCE               	movwf	??_readbuffer& (0+255),b
  5026  011BB0  0E00               	movlw	0
  5027  011BB2  6E3B               	movwf	_Vstarte,c
  5028  011BB4  0100               	movlb	0	; () banked
  5029  011BB6  51CE               	movf	??_readbuffer& (0+255),w,b
  5030                           
  5031                           ;bufferint.c: 170: }
  5032  011BB8  0012               	return	
  5033  011BBA                     l7680:
  5034                           
  5035                           ; BSR set to: 0
  5036                           ;bufferint.c: 171: else if(br2=='d'&&Vstarta)
  5037  011BBA  0100               	movlb	0	; () banked
  5038  011BBC  0100               	movlb	0	; () banked
  5039  011BBE  51DE               	movf	readbuffer@br2& (0+255),w,b
  5040  011BC0  0A64               	xorlw	100
  5041  011BC2  A4D8               	btfss	status,2,c
  5042  011BC4  D01E               	goto	l7686
  5043                           
  5044                           ; BSR set to: 0
  5045  011BC6  5039               	movf	_Vstarta,w,c
  5046  011BC8  B4D8               	btfsc	status,2,c
  5047  011BCA  D01B               	goto	l7686
  5048                           
  5049                           ; BSR set to: 0
  5050                           ;bufferint.c: 172: {
  5051                           ;bufferint.c: 173: br2='\0';
  5052  011BCC  0100               	movlb	0	; () banked
  5053  011BCE  6FCE               	movwf	??_readbuffer& (0+255),b
  5054  011BD0  0E00               	movlw	0
  5055  011BD2  0100               	movlb	0	; () banked
  5056  011BD4  0100               	movlb	0	; () banked
  5057  011BD6  6FDE               	movwf	readbuffer@br2& (0+255),b
  5058  011BD8  0100               	movlb	0	; () banked
  5059  011BDA  51CE               	movf	??_readbuffer& (0+255),w,b
  5060                           
  5061                           ;bufferint.c: 174: Vstartd = 1;
  5062  011BDC  0100               	movlb	0	; () banked
  5063  011BDE  6FCE               	movwf	??_readbuffer& (0+255),b
  5064  011BE0  0E01               	movlw	1
  5065  011BE2  6E3A               	movwf	_Vstartd,c
  5066  011BE4  0100               	movlb	0	; () banked
  5067  011BE6  51CE               	movf	??_readbuffer& (0+255),w,b
  5068                           
  5069                           ;bufferint.c: 175: Vstarte = 0;
  5070  011BE8  0100               	movlb	0	; () banked
  5071  011BEA  6FCE               	movwf	??_readbuffer& (0+255),b
  5072  011BEC  0E00               	movlw	0
  5073  011BEE  6E3B               	movwf	_Vstarte,c
  5074  011BF0  0100               	movlb	0	; () banked
  5075  011BF2  51CE               	movf	??_readbuffer& (0+255),w,b
  5076                           
  5077                           ;bufferint.c: 176: Vstarta = 0;
  5078  011BF4  0100               	movlb	0	; () banked
  5079  011BF6  6FCE               	movwf	??_readbuffer& (0+255),b
  5080  011BF8  0E00               	movlw	0
  5081  011BFA  6E39               	movwf	_Vstarta,c
  5082  011BFC  0100               	movlb	0	; () banked
  5083  011BFE  51CE               	movf	??_readbuffer& (0+255),w,b
  5084                           
  5085                           ;bufferint.c: 177: }
  5086  011C00  0012               	return	
  5087  011C02                     l7686:
  5088                           
  5089                           ; BSR set to: 0
  5090                           ;bufferint.c: 178: else if(br2=='y'&& Vstartd)
  5091  011C02  0100               	movlb	0	; () banked
  5092  011C04  0100               	movlb	0	; () banked
  5093  011C06  51DE               	movf	readbuffer@br2& (0+255),w,b
  5094  011C08  0A79               	xorlw	121
  5095  011C0A  A4D8               	btfss	status,2,c
  5096  011C0C  D024               	goto	l7692
  5097                           
  5098                           ; BSR set to: 0
  5099  011C0E  503A               	movf	_Vstartd,w,c
  5100  011C10  B4D8               	btfsc	status,2,c
  5101  011C12  D021               	goto	l7692
  5102                           
  5103                           ; BSR set to: 0
  5104                           ;bufferint.c: 179: {
  5105                           ;bufferint.c: 180: br2='\0';
  5106  011C14  0100               	movlb	0	; () banked
  5107  011C16  6FCE               	movwf	??_readbuffer& (0+255),b
  5108  011C18  0E00               	movlw	0
  5109  011C1A  0100               	movlb	0	; () banked
  5110  011C1C  0100               	movlb	0	; () banked
  5111  011C1E  6FDE               	movwf	readbuffer@br2& (0+255),b
  5112  011C20  0100               	movlb	0	; () banked
  5113  011C22  51CE               	movf	??_readbuffer& (0+255),w,b
  5114                           
  5115                           ;bufferint.c: 181: VstartReady = 1;
  5116  011C24  0100               	movlb	0	; () banked
  5117  011C26  6FCE               	movwf	??_readbuffer& (0+255),b
  5118  011C28  0E01               	movlw	1
  5119  011C2A  6E38               	movwf	_VstartReady,c
  5120  011C2C  0100               	movlb	0	; () banked
  5121  011C2E  51CE               	movf	??_readbuffer& (0+255),w,b
  5122                           
  5123                           ;bufferint.c: 182: Vstarte = 0;
  5124  011C30  0100               	movlb	0	; () banked
  5125  011C32  6FCE               	movwf	??_readbuffer& (0+255),b
  5126  011C34  0E00               	movlw	0
  5127  011C36  6E3B               	movwf	_Vstarte,c
  5128  011C38  0100               	movlb	0	; () banked
  5129  011C3A  51CE               	movf	??_readbuffer& (0+255),w,b
  5130                           
  5131                           ;bufferint.c: 183: Vstarta = 0;
  5132  011C3C  0100               	movlb	0	; () banked
  5133  011C3E  6FCE               	movwf	??_readbuffer& (0+255),b
  5134  011C40  0E00               	movlw	0
  5135  011C42  6E39               	movwf	_Vstarta,c
  5136  011C44  0100               	movlb	0	; () banked
  5137  011C46  51CE               	movf	??_readbuffer& (0+255),w,b
  5138                           
  5139                           ;bufferint.c: 184: Vstartd = 0;
  5140  011C48  0100               	movlb	0	; () banked
  5141  011C4A  6FCE               	movwf	??_readbuffer& (0+255),b
  5142  011C4C  0E00               	movlw	0
  5143  011C4E  6E3A               	movwf	_Vstartd,c
  5144  011C50  0100               	movlb	0	; () banked
  5145  011C52  51CE               	movf	??_readbuffer& (0+255),w,b
  5146                           
  5147                           ;bufferint.c: 185: }
  5148  011C54  0012               	return	
  5149  011C56                     l7692:
  5150                           
  5151                           ; BSR set to: 0
  5152                           ;bufferint.c: 186: else if(br2=='E')
  5153  011C56  0100               	movlb	0	; () banked
  5154  011C58  0100               	movlb	0	; () banked
  5155  011C5A  51DE               	movf	readbuffer@br2& (0+255),w,b
  5156  011C5C  0A45               	xorlw	69
  5157  011C5E  A4D8               	btfss	status,2,c
  5158  011C60  D00F               	goto	l7696
  5159                           
  5160                           ; BSR set to: 0
  5161                           ;bufferint.c: 187: {
  5162                           ;bufferint.c: 188: br2='\0';
  5163  011C62  0100               	movlb	0	; () banked
  5164  011C64  6FCE               	movwf	??_readbuffer& (0+255),b
  5165  011C66  0E00               	movlw	0
  5166  011C68  0100               	movlb	0	; () banked
  5167  011C6A  0100               	movlb	0	; () banked
  5168  011C6C  6FDE               	movwf	readbuffer@br2& (0+255),b
  5169  011C6E  0100               	movlb	0	; () banked
  5170  011C70  51CE               	movf	??_readbuffer& (0+255),w,b
  5171                           
  5172                           ;bufferint.c: 189: VERROR_E = 1;
  5173  011C72  0100               	movlb	0	; () banked
  5174  011C74  6FCE               	movwf	??_readbuffer& (0+255),b
  5175  011C76  0E01               	movlw	1
  5176  011C78  6E31               	movwf	_VERROR_E,c
  5177  011C7A  0100               	movlb	0	; () banked
  5178  011C7C  51CE               	movf	??_readbuffer& (0+255),w,b
  5179                           
  5180                           ;bufferint.c: 190: }
  5181  011C7E  0012               	return	
  5182  011C80                     l7696:
  5183                           
  5184                           ; BSR set to: 0
  5185                           ;bufferint.c: 191: else if(br2=='R'&& (VERROR_E||VERROR_O||VERROR_R))
  5186  011C80  0100               	movlb	0	; () banked
  5187  011C82  0100               	movlb	0	; () banked
  5188  011C84  51DE               	movf	readbuffer@br2& (0+255),w,b
  5189  011C86  0A52               	xorlw	82
  5190  011C88  A4D8               	btfss	status,2,c
  5191  011C8A  D315               	goto	l7764
  5192                           
  5193                           ; BSR set to: 0
  5194  011C8C  6631               	tstfsz	_VERROR_E,c
  5195  011C8E  D005               	goto	l7704
  5196                           
  5197                           ; BSR set to: 0
  5198  011C90  6632               	tstfsz	_VERROR_O,c
  5199  011C92  D003               	goto	l7704
  5200                           
  5201                           ; BSR set to: 0
  5202  011C94  5033               	movf	_VERROR_R,w,c
  5203  011C96  B4D8               	btfsc	status,2,c
  5204  011C98  D30E               	goto	l7764
  5205  011C9A                     l7704:
  5206                           
  5207                           ; BSR set to: 0
  5208                           ;bufferint.c: 192: {
  5209                           ;bufferint.c: 193: br2='\0';
  5210  011C9A  0100               	movlb	0	; () banked
  5211  011C9C  6FCE               	movwf	??_readbuffer& (0+255),b
  5212  011C9E  0E00               	movlw	0
  5213  011CA0  0100               	movlb	0	; () banked
  5214  011CA2  0100               	movlb	0	; () banked
  5215  011CA4  6FDE               	movwf	readbuffer@br2& (0+255),b
  5216  011CA6  0100               	movlb	0	; () banked
  5217  011CA8  51CE               	movf	??_readbuffer& (0+255),w,b
  5218                           
  5219                           ;bufferint.c: 194: VERROR_R = 1;
  5220  011CAA  0100               	movlb	0	; () banked
  5221  011CAC  6FCE               	movwf	??_readbuffer& (0+255),b
  5222  011CAE  0E01               	movlw	1
  5223  011CB0  6E33               	movwf	_VERROR_R,c
  5224  011CB2  0100               	movlb	0	; () banked
  5225  011CB4  51CE               	movf	??_readbuffer& (0+255),w,b
  5226                           
  5227                           ;bufferint.c: 195: VERROR_E = 0;
  5228  011CB6  0100               	movlb	0	; () banked
  5229  011CB8  6FCE               	movwf	??_readbuffer& (0+255),b
  5230  011CBA  0E00               	movlw	0
  5231  011CBC  6E31               	movwf	_VERROR_E,c
  5232  011CBE  0100               	movlb	0	; () banked
  5233  011CC0  51CE               	movf	??_readbuffer& (0+255),w,b
  5234                           
  5235                           ; BSR set to: 0
  5236                           ;bufferint.c: 196: if(VERROR_O&&mcPostGSM > 0)
  5237  011CC2  5032               	movf	_VERROR_O,w,c
  5238  011CC4  B4D8               	btfsc	status,2,c
  5239  011CC6  0012               	return	
  5240                           
  5241                           ; BSR set to: 0
  5242  011CC8  0100               	movlb	0	; () banked
  5243  011CCA  0100               	movlb	0	; () banked
  5244  011CCC  5183               	movf	(_mcPostGSM+1)& (0+255),w,b
  5245  011CCE  0A80               	xorlw	128
  5246  011CD0  0F80               	addlw	-128
  5247  011CD2  0E01               	movlw	1
  5248  011CD4  B4D8               	btfsc	status,2,c
  5249  011CD6  5D82               	subwf	_mcPostGSM& (0+255),w,b
  5250  011CD8  A0D8               	btfss	status,0,c
  5251  011CDA  0012               	return	
  5252                           
  5253                           ; BSR set to: 0
  5254                           ;bufferint.c: 197: {
  5255                           ;bufferint.c: 198: mcPostGSM = 10;
  5256  011CDC  0E00               	movlw	0
  5257  011CDE  0100               	movlb	0	; () banked
  5258  011CE0  0100               	movlb	0	; () banked
  5259  011CE2  6F83               	movwf	(_mcPostGSM+1)& (0+255),b
  5260  011CE4  0E0A               	movlw	10
  5261  011CE6  0100               	movlb	0	; () banked
  5262  011CE8  6F82               	movwf	_mcPostGSM& (0+255),b
  5263                           
  5264                           ;bufferint.c: 199: nbFrameDO = 0 ;
  5265  011CEA  0E00               	movlw	0
  5266  011CEC  0100               	movlb	0	; () banked
  5267  011CEE  0100               	movlb	0	; () banked
  5268  011CF0  6F85               	movwf	(_nbFrameDO+1)& (0+255),b
  5269  011CF2  0E00               	movlw	0
  5270  011CF4  0100               	movlb	0	; () banked
  5271  011CF6  6F84               	movwf	_nbFrameDO& (0+255),b
  5272                           
  5273                           ;bufferint.c: 200: nbFramePH = 0 ;
  5274  011CF8  0E00               	movlw	0
  5275  011CFA  0100               	movlb	0	; () banked
  5276  011CFC  0100               	movlb	0	; () banked
  5277  011CFE  6F89               	movwf	(_nbFramePH+1)& (0+255),b
  5278  011D00  0E00               	movlw	0
  5279  011D02  0100               	movlb	0	; () banked
  5280  011D04  6F88               	movwf	_nbFramePH& (0+255),b
  5281                           
  5282                           ;bufferint.c: 201: nbFrameEC = 0 ;
  5283  011D06  0E00               	movlw	0
  5284  011D08  0100               	movlb	0	; () banked
  5285  011D0A  0100               	movlb	0	; () banked
  5286  011D0C  6F87               	movwf	(_nbFrameEC+1)& (0+255),b
  5287  011D0E  0E00               	movlw	0
  5288  011D10  0100               	movlb	0	; () banked
  5289  011D12  6F86               	movwf	_nbFrameEC& (0+255),b
  5290                           
  5291                           ;bufferint.c: 202: nbFrameTDS = 0 ;
  5292  011D14  0E00               	movlw	0
  5293  011D16  0100               	movlb	0	; () banked
  5294  011D18  0100               	movlb	0	; () banked
  5295  011D1A  6F8B               	movwf	(_nbFrameTDS+1)& (0+255),b
  5296  011D1C  0E00               	movlw	0
  5297  011D1E  0100               	movlb	0	; () banked
  5298  011D20  6F8A               	movwf	_nbFrameTDS& (0+255),b
  5299                           
  5300                           ;bufferint.c: 203: for(int g = 0;g <= 50; g++)
  5301  011D22  0E00               	movlw	0
  5302  011D24  0100               	movlb	0	; () banked
  5303  011D26  0100               	movlb	0	; () banked
  5304  011D28  6FDD               	movwf	(readbuffer@g+1)& (0+255),b
  5305  011D2A  0E00               	movlw	0
  5306  011D2C  0100               	movlb	0	; () banked
  5307  011D2E  6FDC               	movwf	readbuffer@g& (0+255),b
  5308  011D30                     
  5309                           ; BSR set to: 0
  5310  011D30  0100               	movlb	0	; () banked
  5311  011D32  0100               	movlb	0	; () banked
  5312  011D34  51DD               	movf	(readbuffer@g+1)& (0+255),w,b
  5313  011D36  0A80               	xorlw	128
  5314  011D38  0F80               	addlw	-128
  5315  011D3A  0E33               	movlw	51
  5316  011D3C  B4D8               	btfsc	status,2,c
  5317  011D3E  5DDC               	subwf	readbuffer@g& (0+255),w,b
  5318  011D40  B0D8               	btfsc	status,0,c
  5319  011D42  D294               	goto	l7760
  5320                           
  5321                           ; BSR set to: 0
  5322                           ;bufferint.c: 204: {
  5323                           ;bufferint.c: 205: for(int erase =0;erase<=strlen(my_FrameReceived[g].receivedFrameDO)-1
      +                          ;erase++)
  5324                           
  5325                           ; BSR set to: 0
  5326                           
  5327                           ; BSR set to: 0
  5328  011D44  0E00               	movlw	0
  5329  011D46  0100               	movlb	0	; () banked
  5330  011D48  0100               	movlb	0	; () banked
  5331  011D4A  6FD4               	movwf	(readbuffer@erase+1)& (0+255),b
  5332  011D4C  0E00               	movlw	0
  5333  011D4E  0100               	movlb	0	; () banked
  5334  011D50  6FD3               	movwf	readbuffer@erase& (0+255),b
  5335  011D52  D038               	goto	l7722
  5336  011D54                     l7718:
  5337                           
  5338                           ; BSR set to: 0
  5339                           ;bufferint.c: 206: {
  5340                           ;bufferint.c: 207: my_FrameReceived[g].receivedFrameDO[erase] = '\0';
  5341  011D54  C0DC  F0C2         	movff	readbuffer@g,___wmul@multiplier
  5342  011D58  C0DD  F0C3         	movff	readbuffer@g+1,___wmul@multiplier+1
  5343  011D5C  0E00               	movlw	0
  5344  011D5E  0100               	movlb	0	; () banked
  5345  011D60  0100               	movlb	0	; () banked
  5346  011D62  6FC5               	movwf	(___wmul@multiplicand+1)& (0+255),b
  5347  011D64  0E1C               	movlw	28
  5348  011D66  0100               	movlb	0	; () banked
  5349  011D68  6FC4               	movwf	___wmul@multiplicand& (0+255),b
  5350  011D6A  ECE9  F0A6         	call	___wmul	;wreg free
  5351  011D6E  0E07               	movlw	7
  5352  011D70  0100               	movlb	0	; () banked
  5353  011D72  0100               	movlb	0	; () banked
  5354  011D74  25D3               	addwf	readbuffer@erase& (0+255),w,b
  5355  011D76  0100               	movlb	0	; () banked
  5356  011D78  6FCE               	movwf	??_readbuffer& (0+255),b
  5357  011D7A  0E00               	movlw	0
  5358  011D7C  0100               	movlb	0	; () banked
  5359  011D7E  0100               	movlb	0	; () banked
  5360  011D80  21D4               	addwfc	(readbuffer@erase+1)& (0+255),w,b
  5361  011D82  0100               	movlb	0	; () banked
  5362  011D84  6FCF               	movwf	(??_readbuffer+1)& (0+255),b
  5363  011D86  0E5C               	movlw	low _my_FrameReceived
  5364  011D88  0100               	movlb	0	; () banked
  5365  011D8A  6FD0               	movwf	(??_readbuffer+2)& (0+255),b
  5366  011D8C  0E08               	movlw	high _my_FrameReceived
  5367  011D8E  6FD1               	movwf	(??_readbuffer+3)& (0+255),b
  5368  011D90  0100               	movlb	0	; () banked
  5369  011D92  51CE               	movf	??_readbuffer& (0+255),w,b
  5370  011D94  0100               	movlb	0	; () banked
  5371  011D96  27D0               	addwf	(??_readbuffer+2)& (0+255),f,b
  5372  011D98  0100               	movlb	0	; () banked
  5373  011D9A  51CF               	movf	(??_readbuffer+1)& (0+255),w,b
  5374  011D9C  0100               	movlb	0	; () banked
  5375  011D9E  23D1               	addwfc	(??_readbuffer+3)& (0+255),f,b
  5376  011DA0  0100               	movlb	0	; () banked
  5377  011DA2  0100               	movlb	0	; () banked
  5378  011DA4  51C2               	movf	?___wmul& (0+255),w,b
  5379  011DA6  0100               	movlb	0	; () banked
  5380  011DA8  25D0               	addwf	(??_readbuffer+2)& (0+255),w,b
  5381  011DAA  6ED9               	movwf	fsr2l,c
  5382  011DAC  0100               	movlb	0	; () banked
  5383  011DAE  0100               	movlb	0	; () banked
  5384  011DB0  51C3               	movf	(?___wmul+1)& (0+255),w,b
  5385  011DB2  0100               	movlb	0	; () banked
  5386  011DB4  21D1               	addwfc	(??_readbuffer+3)& (0+255),w,b
  5387  011DB6  6EDA               	movwf	fsr2h,c
  5388  011DB8  0E00               	movlw	0
  5389  011DBA  6EDF               	movwf	indf2,c
  5390                           
  5391                           ; BSR set to: 0
  5392  011DBC  0100               	movlb	0	; () banked
  5393  011DBE  0100               	movlb	0	; () banked
  5394  011DC0  4BD3               	infsnz	readbuffer@erase& (0+255),f,b
  5395  011DC2  2BD4               	incf	(readbuffer@erase+1)& (0+255),f,b
  5396  011DC4                     l7722:
  5397                           
  5398                           ; BSR set to: 0
  5399  011DC4  0EFF               	movlw	255
  5400  011DC6  0100               	movlb	0	; () banked
  5401  011DC8  6FCE               	movwf	??_readbuffer& (0+255),b
  5402  011DCA  0EFF               	movlw	255
  5403  011DCC  6FCF               	movwf	(??_readbuffer+1)& (0+255),b
  5404  011DCE  C0DC  F0C2         	movff	readbuffer@g,___wmul@multiplier
  5405  011DD2  C0DD  F0C3         	movff	readbuffer@g+1,___wmul@multiplier+1
  5406  011DD6  0E00               	movlw	0
  5407  011DD8  0100               	movlb	0	; () banked
  5408  011DDA  0100               	movlb	0	; () banked
  5409  011DDC  6FC5               	movwf	(___wmul@multiplicand+1)& (0+255),b
  5410  011DDE  0E1C               	movlw	28
  5411  011DE0  0100               	movlb	0	; () banked
  5412  011DE2  6FC4               	movwf	___wmul@multiplicand& (0+255),b
  5413  011DE4  ECE9  F0A6         	call	___wmul	;wreg free
  5414  011DE8  0E07               	movlw	7
  5415  011DEA  0100               	movlb	0	; () banked
  5416  011DEC  0100               	movlb	0	; () banked
  5417  011DEE  27C2               	addwf	?___wmul& (0+255),f,b
  5418  011DF0  0E00               	movlw	0
  5419  011DF2  0100               	movlb	0	; () banked
  5420  011DF4  23C3               	addwfc	(?___wmul+1)& (0+255),f,b
  5421  011DF6  0E5C               	movlw	low _my_FrameReceived
  5422  011DF8  0100               	movlb	0	; () banked
  5423  011DFA  6FD0               	movwf	(??_readbuffer+2)& (0+255),b
  5424  011DFC  0E08               	movlw	high _my_FrameReceived
  5425  011DFE  6FD1               	movwf	(??_readbuffer+3)& (0+255),b
  5426  011E00  0100               	movlb	0	; () banked
  5427  011E02  0100               	movlb	0	; () banked
  5428  011E04  51C2               	movf	?___wmul& (0+255),w,b
  5429  011E06  0100               	movlb	0	; () banked
  5430  011E08  27D0               	addwf	(??_readbuffer+2)& (0+255),f,b
  5431  011E0A  0100               	movlb	0	; () banked
  5432  011E0C  0100               	movlb	0	; () banked
  5433  011E0E  51C3               	movf	(?___wmul+1)& (0+255),w,b
  5434  011E10  0100               	movlb	0	; () banked
  5435  011E12  23D1               	addwfc	(??_readbuffer+3)& (0+255),f,b
  5436  011E14  C0D0  F0C8         	movff	??_readbuffer+2,strlen@s
  5437  011E18  C0D1  F0C9         	movff	??_readbuffer+3,strlen@s+1
  5438  011E1C  ECFF  F0A5         	call	_strlen	;wreg free
  5439  011E20  0100               	movlb	0	; () banked
  5440  011E22  51CE               	movf	??_readbuffer& (0+255),w,b
  5441  011E24  0100               	movlb	0	; () banked
  5442  011E26  0100               	movlb	0	; () banked
  5443  011E28  27C8               	addwf	?_strlen& (0+255),f,b
  5444  011E2A  0100               	movlb	0	; () banked
  5445  011E2C  51CF               	movf	(??_readbuffer+1)& (0+255),w,b
  5446  011E2E  0100               	movlb	0	; () banked
  5447  011E30  0100               	movlb	0	; () banked
  5448  011E32  23C9               	addwfc	(?_strlen+1)& (0+255),f,b
  5449  011E34  0100               	movlb	0	; () banked
  5450  011E36  0100               	movlb	0	; () banked
  5451  011E38  51D3               	movf	readbuffer@erase& (0+255),w,b
  5452  011E3A  0100               	movlb	0	; () banked
  5453  011E3C  0100               	movlb	0	; () banked
  5454  011E3E  5DC8               	subwf	?_strlen& (0+255),w,b
  5455  011E40  0100               	movlb	0	; () banked
  5456  011E42  0100               	movlb	0	; () banked
  5457  011E44  51D4               	movf	(readbuffer@erase+1)& (0+255),w,b
  5458  011E46  0100               	movlb	0	; () banked
  5459  011E48  0100               	movlb	0	; () banked
  5460  011E4A  59C9               	subwfb	(?_strlen+1)& (0+255),w,b
  5461  011E4C  B0D8               	btfsc	status,0,c
  5462  011E4E  D782               	goto	l7718
  5463                           
  5464                           ; BSR set to: 0
  5465                           ;bufferint.c: 208: }
  5466                           ;bufferint.c: 209: my_FrameReceived[g].receivedDataTimeDO = 0;
  5467                           
  5468                           ; BSR set to: 0
  5469  011E50  C0DC  F0C2         	movff	readbuffer@g,___wmul@multiplier
  5470  011E54  C0DD  F0C3         	movff	readbuffer@g+1,___wmul@multiplier+1
  5471  011E58  0E00               	movlw	0
  5472  011E5A  0100               	movlb	0	; () banked
  5473  011E5C  0100               	movlb	0	; () banked
  5474  011E5E  6FC5               	movwf	(___wmul@multiplicand+1)& (0+255),b
  5475  011E60  0E1C               	movlw	28
  5476  011E62  0100               	movlb	0	; () banked
  5477  011E64  6FC4               	movwf	___wmul@multiplicand& (0+255),b
  5478  011E66  ECE9  F0A6         	call	___wmul	;wreg free
  5479  011E6A  0E0C               	movlw	12
  5480  011E6C  0100               	movlb	0	; () banked
  5481  011E6E  0100               	movlb	0	; () banked
  5482  011E70  27C2               	addwf	?___wmul& (0+255),f,b
  5483  011E72  0E00               	movlw	0
  5484  011E74  0100               	movlb	0	; () banked
  5485  011E76  23C3               	addwfc	(?___wmul+1)& (0+255),f,b
  5486  011E78  0E5C               	movlw	low _my_FrameReceived
  5487  011E7A  0100               	movlb	0	; () banked
  5488  011E7C  0100               	movlb	0	; () banked
  5489  011E7E  25C2               	addwf	?___wmul& (0+255),w,b
  5490  011E80  6ED9               	movwf	fsr2l,c
  5491  011E82  0E08               	movlw	high _my_FrameReceived
  5492  011E84  0100               	movlb	0	; () banked
  5493  011E86  0100               	movlb	0	; () banked
  5494  011E88  21C3               	addwfc	(?___wmul+1)& (0+255),w,b
  5495  011E8A  6EDA               	movwf	fsr2h,c
  5496  011E8C  0E00               	movlw	0
  5497  011E8E  6EDE               	movwf	postinc2,c
  5498  011E90  0E00               	movlw	0
  5499  011E92  6EDD               	movwf	postdec2,c
  5500                           
  5501                           ; BSR set to: 0
  5502                           ;bufferint.c: 211: for(int erase =0;erase<=strlen(my_FrameReceived[g].receivedFramePH)-1
      +                          ;erase++)
  5503  011E94  0E00               	movlw	0
  5504  011E96  0100               	movlb	0	; () banked
  5505  011E98  0100               	movlb	0	; () banked
  5506  011E9A  6FD6               	movwf	(readbuffer@erase_1712+1)& (0+255),b
  5507  011E9C  0E00               	movlw	0
  5508  011E9E  0100               	movlb	0	; () banked
  5509  011EA0  6FD5               	movwf	readbuffer@erase_1712& (0+255),b
  5510  011EA2  D02E               	goto	l7732
  5511  011EA4                     l7728:
  5512                           
  5513                           ; BSR set to: 0
  5514                           ;bufferint.c: 212: {
  5515                           ;bufferint.c: 213: my_FrameReceived[g].receivedFramePH[erase] = '\0';
  5516  011EA4  C0DC  F0C2         	movff	readbuffer@g,___wmul@multiplier
  5517  011EA8  C0DD  F0C3         	movff	readbuffer@g+1,___wmul@multiplier+1
  5518  011EAC  0E00               	movlw	0
  5519  011EAE  0100               	movlb	0	; () banked
  5520  011EB0  0100               	movlb	0	; () banked
  5521  011EB2  6FC5               	movwf	(___wmul@multiplicand+1)& (0+255),b
  5522  011EB4  0E1C               	movlw	28
  5523  011EB6  0100               	movlb	0	; () banked
  5524  011EB8  6FC4               	movwf	___wmul@multiplicand& (0+255),b
  5525  011EBA  ECE9  F0A6         	call	___wmul	;wreg free
  5526  011EBE  0E5C               	movlw	low _my_FrameReceived
  5527  011EC0  0100               	movlb	0	; () banked
  5528  011EC2  6FCE               	movwf	??_readbuffer& (0+255),b
  5529  011EC4  0E08               	movlw	high _my_FrameReceived
  5530  011EC6  6FCF               	movwf	(??_readbuffer+1)& (0+255),b
  5531  011EC8  0100               	movlb	0	; () banked
  5532  011ECA  0100               	movlb	0	; () banked
  5533  011ECC  51C2               	movf	?___wmul& (0+255),w,b
  5534  011ECE  0100               	movlb	0	; () banked
  5535  011ED0  27CE               	addwf	??_readbuffer& (0+255),f,b
  5536  011ED2  0100               	movlb	0	; () banked
  5537  011ED4  0100               	movlb	0	; () banked
  5538  011ED6  51C3               	movf	(?___wmul+1)& (0+255),w,b
  5539  011ED8  0100               	movlb	0	; () banked
  5540  011EDA  23CF               	addwfc	(??_readbuffer+1)& (0+255),f,b
  5541  011EDC  0100               	movlb	0	; () banked
  5542  011EDE  0100               	movlb	0	; () banked
  5543  011EE0  51D5               	movf	readbuffer@erase_1712& (0+255),w,b
  5544  011EE2  0100               	movlb	0	; () banked
  5545  011EE4  25CE               	addwf	??_readbuffer& (0+255),w,b
  5546  011EE6  6ED9               	movwf	fsr2l,c
  5547  011EE8  0100               	movlb	0	; () banked
  5548  011EEA  0100               	movlb	0	; () banked
  5549  011EEC  51D6               	movf	(readbuffer@erase_1712+1)& (0+255),w,b
  5550  011EEE  0100               	movlb	0	; () banked
  5551  011EF0  21CF               	addwfc	(??_readbuffer+1)& (0+255),w,b
  5552  011EF2  6EDA               	movwf	fsr2h,c
  5553  011EF4  0E00               	movlw	0
  5554  011EF6  6EDF               	movwf	indf2,c
  5555                           
  5556                           ; BSR set to: 0
  5557  011EF8  0100               	movlb	0	; () banked
  5558  011EFA  0100               	movlb	0	; () banked
  5559  011EFC  4BD5               	infsnz	readbuffer@erase_1712& (0+255),f,b
  5560  011EFE  2BD6               	incf	(readbuffer@erase_1712+1)& (0+255),f,b
  5561  011F00                     l7732:
  5562                           
  5563                           ; BSR set to: 0
  5564  011F00  0EFF               	movlw	255
  5565  011F02  0100               	movlb	0	; () banked
  5566  011F04  6FCE               	movwf	??_readbuffer& (0+255),b
  5567  011F06  0EFF               	movlw	255
  5568  011F08  6FCF               	movwf	(??_readbuffer+1)& (0+255),b
  5569  011F0A  C0DC  F0C2         	movff	readbuffer@g,___wmul@multiplier
  5570  011F0E  C0DD  F0C3         	movff	readbuffer@g+1,___wmul@multiplier+1
  5571  011F12  0E00               	movlw	0
  5572  011F14  0100               	movlb	0	; () banked
  5573  011F16  0100               	movlb	0	; () banked
  5574  011F18  6FC5               	movwf	(___wmul@multiplicand+1)& (0+255),b
  5575  011F1A  0E1C               	movlw	28
  5576  011F1C  0100               	movlb	0	; () banked
  5577  011F1E  6FC4               	movwf	___wmul@multiplicand& (0+255),b
  5578  011F20  ECE9  F0A6         	call	___wmul	;wreg free
  5579  011F24  0E5C               	movlw	low _my_FrameReceived
  5580  011F26  0100               	movlb	0	; () banked
  5581  011F28  6FD0               	movwf	(??_readbuffer+2)& (0+255),b
  5582  011F2A  0E08               	movlw	high _my_FrameReceived
  5583  011F2C  6FD1               	movwf	(??_readbuffer+3)& (0+255),b
  5584  011F2E  0100               	movlb	0	; () banked
  5585  011F30  0100               	movlb	0	; () banked
  5586  011F32  51C2               	movf	?___wmul& (0+255),w,b
  5587  011F34  0100               	movlb	0	; () banked
  5588  011F36  27D0               	addwf	(??_readbuffer+2)& (0+255),f,b
  5589  011F38  0100               	movlb	0	; () banked
  5590  011F3A  0100               	movlb	0	; () banked
  5591  011F3C  51C3               	movf	(?___wmul+1)& (0+255),w,b
  5592  011F3E  0100               	movlb	0	; () banked
  5593  011F40  23D1               	addwfc	(??_readbuffer+3)& (0+255),f,b
  5594  011F42  C0D0  F0C8         	movff	??_readbuffer+2,strlen@s
  5595  011F46  C0D1  F0C9         	movff	??_readbuffer+3,strlen@s+1
  5596  011F4A  ECFF  F0A5         	call	_strlen	;wreg free
  5597  011F4E  0100               	movlb	0	; () banked
  5598  011F50  51CE               	movf	??_readbuffer& (0+255),w,b
  5599  011F52  0100               	movlb	0	; () banked
  5600  011F54  0100               	movlb	0	; () banked
  5601  011F56  27C8               	addwf	?_strlen& (0+255),f,b
  5602  011F58  0100               	movlb	0	; () banked
  5603  011F5A  51CF               	movf	(??_readbuffer+1)& (0+255),w,b
  5604  011F5C  0100               	movlb	0	; () banked
  5605  011F5E  0100               	movlb	0	; () banked
  5606  011F60  23C9               	addwfc	(?_strlen+1)& (0+255),f,b
  5607  011F62  0100               	movlb	0	; () banked
  5608  011F64  0100               	movlb	0	; () banked
  5609  011F66  51D5               	movf	readbuffer@erase_1712& (0+255),w,b
  5610  011F68  0100               	movlb	0	; () banked
  5611  011F6A  0100               	movlb	0	; () banked
  5612  011F6C  5DC8               	subwf	?_strlen& (0+255),w,b
  5613  011F6E  0100               	movlb	0	; () banked
  5614  011F70  0100               	movlb	0	; () banked
  5615  011F72  51D6               	movf	(readbuffer@erase_1712+1)& (0+255),w,b
  5616  011F74  0100               	movlb	0	; () banked
  5617  011F76  0100               	movlb	0	; () banked
  5618  011F78  59C9               	subwfb	(?_strlen+1)& (0+255),w,b
  5619  011F7A  B0D8               	btfsc	status,0,c
  5620  011F7C  D793               	goto	l7728
  5621                           
  5622                           ; BSR set to: 0
  5623                           ;bufferint.c: 214: }
  5624                           ;bufferint.c: 215: my_FrameReceived[g].receivedDataTimePH = 0;
  5625                           
  5626                           ; BSR set to: 0
  5627  011F7E  C0DC  F0C2         	movff	readbuffer@g,___wmul@multiplier
  5628  011F82  C0DD  F0C3         	movff	readbuffer@g+1,___wmul@multiplier+1
  5629  011F86  0E00               	movlw	0
  5630  011F88  0100               	movlb	0	; () banked
  5631  011F8A  0100               	movlb	0	; () banked
  5632  011F8C  6FC5               	movwf	(___wmul@multiplicand+1)& (0+255),b
  5633  011F8E  0E1C               	movlw	28
  5634  011F90  0100               	movlb	0	; () banked
  5635  011F92  6FC4               	movwf	___wmul@multiplicand& (0+255),b
  5636  011F94  ECE9  F0A6         	call	___wmul	;wreg free
  5637  011F98  0E05               	movlw	5
  5638  011F9A  0100               	movlb	0	; () banked
  5639  011F9C  0100               	movlb	0	; () banked
  5640  011F9E  27C2               	addwf	?___wmul& (0+255),f,b
  5641  011FA0  0E00               	movlw	0
  5642  011FA2  0100               	movlb	0	; () banked
  5643  011FA4  23C3               	addwfc	(?___wmul+1)& (0+255),f,b
  5644  011FA6  0E5C               	movlw	low _my_FrameReceived
  5645  011FA8  0100               	movlb	0	; () banked
  5646  011FAA  0100               	movlb	0	; () banked
  5647  011FAC  25C2               	addwf	?___wmul& (0+255),w,b
  5648  011FAE  6ED9               	movwf	fsr2l,c
  5649  011FB0  0E08               	movlw	high _my_FrameReceived
  5650  011FB2  0100               	movlb	0	; () banked
  5651  011FB4  0100               	movlb	0	; () banked
  5652  011FB6  21C3               	addwfc	(?___wmul+1)& (0+255),w,b
  5653  011FB8  6EDA               	movwf	fsr2h,c
  5654  011FBA  0E00               	movlw	0
  5655  011FBC  6EDE               	movwf	postinc2,c
  5656  011FBE  0E00               	movlw	0
  5657  011FC0  6EDD               	movwf	postdec2,c
  5658                           
  5659                           ; BSR set to: 0
  5660                           ;bufferint.c: 216: for(int erase =0;erase<=strlen(my_FrameReceived[g].receivedFrameEC)-1
      +                          ;erase++)
  5661  011FC2  0E00               	movlw	0
  5662  011FC4  0100               	movlb	0	; () banked
  5663  011FC6  0100               	movlb	0	; () banked
  5664  011FC8  6FD8               	movwf	(readbuffer@erase_1713+1)& (0+255),b
  5665  011FCA  0E00               	movlw	0
  5666  011FCC  0100               	movlb	0	; () banked
  5667  011FCE  6FD7               	movwf	readbuffer@erase_1713& (0+255),b
  5668  011FD0  D038               	goto	l7742
  5669  011FD2                     l7738:
  5670                           
  5671                           ; BSR set to: 0
  5672                           ;bufferint.c: 217: {
  5673                           ;bufferint.c: 218: my_FrameReceived[g].receivedFrameEC[erase] = '\0';
  5674  011FD2  C0DC  F0C2         	movff	readbuffer@g,___wmul@multiplier
  5675  011FD6  C0DD  F0C3         	movff	readbuffer@g+1,___wmul@multiplier+1
  5676  011FDA  0E00               	movlw	0
  5677  011FDC  0100               	movlb	0	; () banked
  5678  011FDE  0100               	movlb	0	; () banked
  5679  011FE0  6FC5               	movwf	(___wmul@multiplicand+1)& (0+255),b
  5680  011FE2  0E1C               	movlw	28
  5681  011FE4  0100               	movlb	0	; () banked
  5682  011FE6  6FC4               	movwf	___wmul@multiplicand& (0+255),b
  5683  011FE8  ECE9  F0A6         	call	___wmul	;wreg free
  5684  011FEC  0E0E               	movlw	14
  5685  011FEE  0100               	movlb	0	; () banked
  5686  011FF0  0100               	movlb	0	; () banked
  5687  011FF2  25D7               	addwf	readbuffer@erase_1713& (0+255),w,b
  5688  011FF4  0100               	movlb	0	; () banked
  5689  011FF6  6FCE               	movwf	??_readbuffer& (0+255),b
  5690  011FF8  0E00               	movlw	0
  5691  011FFA  0100               	movlb	0	; () banked
  5692  011FFC  0100               	movlb	0	; () banked
  5693  011FFE  21D8               	addwfc	(readbuffer@erase_1713+1)& (0+255),w,b
  5694  012000  0100               	movlb	0	; () banked
  5695  012002  6FCF               	movwf	(??_readbuffer+1)& (0+255),b
  5696  012004  0E5C               	movlw	low _my_FrameReceived
  5697  012006  0100               	movlb	0	; () banked
  5698  012008  6FD0               	movwf	(??_readbuffer+2)& (0+255),b
  5699  01200A  0E08               	movlw	high _my_FrameReceived
  5700  01200C  6FD1               	movwf	(??_readbuffer+3)& (0+255),b
  5701  01200E  0100               	movlb	0	; () banked
  5702  012010  51CE               	movf	??_readbuffer& (0+255),w,b
  5703  012012  0100               	movlb	0	; () banked
  5704  012014  27D0               	addwf	(??_readbuffer+2)& (0+255),f,b
  5705  012016  0100               	movlb	0	; () banked
  5706  012018  51CF               	movf	(??_readbuffer+1)& (0+255),w,b
  5707  01201A  0100               	movlb	0	; () banked
  5708  01201C  23D1               	addwfc	(??_readbuffer+3)& (0+255),f,b
  5709  01201E  0100               	movlb	0	; () banked
  5710  012020  0100               	movlb	0	; () banked
  5711  012022  51C2               	movf	?___wmul& (0+255),w,b
  5712  012024  0100               	movlb	0	; () banked
  5713  012026  25D0               	addwf	(??_readbuffer+2)& (0+255),w,b
  5714  012028  6ED9               	movwf	fsr2l,c
  5715  01202A  0100               	movlb	0	; () banked
  5716  01202C  0100               	movlb	0	; () banked
  5717  01202E  51C3               	movf	(?___wmul+1)& (0+255),w,b
  5718  012030  0100               	movlb	0	; () banked
  5719  012032  21D1               	addwfc	(??_readbuffer+3)& (0+255),w,b
  5720  012034  6EDA               	movwf	fsr2h,c
  5721  012036  0E00               	movlw	0
  5722  012038  6EDF               	movwf	indf2,c
  5723                           
  5724                           ; BSR set to: 0
  5725  01203A  0100               	movlb	0	; () banked
  5726  01203C  0100               	movlb	0	; () banked
  5727  01203E  4BD7               	infsnz	readbuffer@erase_1713& (0+255),f,b
  5728  012040  2BD8               	incf	(readbuffer@erase_1713+1)& (0+255),f,b
  5729  012042                     l7742:
  5730                           
  5731                           ; BSR set to: 0
  5732  012042  0EFF               	movlw	255
  5733  012044  0100               	movlb	0	; () banked
  5734  012046  6FCE               	movwf	??_readbuffer& (0+255),b
  5735  012048  0EFF               	movlw	255
  5736  01204A  6FCF               	movwf	(??_readbuffer+1)& (0+255),b
  5737  01204C  C0DC  F0C2         	movff	readbuffer@g,___wmul@multiplier
  5738  012050  C0DD  F0C3         	movff	readbuffer@g+1,___wmul@multiplier+1
  5739  012054  0E00               	movlw	0
  5740  012056  0100               	movlb	0	; () banked
  5741  012058  0100               	movlb	0	; () banked
  5742  01205A  6FC5               	movwf	(___wmul@multiplicand+1)& (0+255),b
  5743  01205C  0E1C               	movlw	28
  5744  01205E  0100               	movlb	0	; () banked
  5745  012060  6FC4               	movwf	___wmul@multiplicand& (0+255),b
  5746  012062  ECE9  F0A6         	call	___wmul	;wreg free
  5747  012066  0E0E               	movlw	14
  5748  012068  0100               	movlb	0	; () banked
  5749  01206A  0100               	movlb	0	; () banked
  5750  01206C  27C2               	addwf	?___wmul& (0+255),f,b
  5751  01206E  0E00               	movlw	0
  5752  012070  0100               	movlb	0	; () banked
  5753  012072  23C3               	addwfc	(?___wmul+1)& (0+255),f,b
  5754  012074  0E5C               	movlw	low _my_FrameReceived
  5755  012076  0100               	movlb	0	; () banked
  5756  012078  6FD0               	movwf	(??_readbuffer+2)& (0+255),b
  5757  01207A  0E08               	movlw	high _my_FrameReceived
  5758  01207C  6FD1               	movwf	(??_readbuffer+3)& (0+255),b
  5759  01207E  0100               	movlb	0	; () banked
  5760  012080  0100               	movlb	0	; () banked
  5761  012082  51C2               	movf	?___wmul& (0+255),w,b
  5762  012084  0100               	movlb	0	; () banked
  5763  012086  27D0               	addwf	(??_readbuffer+2)& (0+255),f,b
  5764  012088  0100               	movlb	0	; () banked
  5765  01208A  0100               	movlb	0	; () banked
  5766  01208C  51C3               	movf	(?___wmul+1)& (0+255),w,b
  5767  01208E  0100               	movlb	0	; () banked
  5768  012090  23D1               	addwfc	(??_readbuffer+3)& (0+255),f,b
  5769  012092  C0D0  F0C8         	movff	??_readbuffer+2,strlen@s
  5770  012096  C0D1  F0C9         	movff	??_readbuffer+3,strlen@s+1
  5771  01209A  ECFF  F0A5         	call	_strlen	;wreg free
  5772  01209E  0100               	movlb	0	; () banked
  5773  0120A0  51CE               	movf	??_readbuffer& (0+255),w,b
  5774  0120A2  0100               	movlb	0	; () banked
  5775  0120A4  0100               	movlb	0	; () banked
  5776  0120A6  27C8               	addwf	?_strlen& (0+255),f,b
  5777  0120A8  0100               	movlb	0	; () banked
  5778  0120AA  51CF               	movf	(??_readbuffer+1)& (0+255),w,b
  5779  0120AC  0100               	movlb	0	; () banked
  5780  0120AE  0100               	movlb	0	; () banked
  5781  0120B0  23C9               	addwfc	(?_strlen+1)& (0+255),f,b
  5782  0120B2  0100               	movlb	0	; () banked
  5783  0120B4  0100               	movlb	0	; () banked
  5784  0120B6  51D7               	movf	readbuffer@erase_1713& (0+255),w,b
  5785  0120B8  0100               	movlb	0	; () banked
  5786  0120BA  0100               	movlb	0	; () banked
  5787  0120BC  5DC8               	subwf	?_strlen& (0+255),w,b
  5788  0120BE  0100               	movlb	0	; () banked
  5789  0120C0  0100               	movlb	0	; () banked
  5790  0120C2  51D8               	movf	(readbuffer@erase_1713+1)& (0+255),w,b
  5791  0120C4  0100               	movlb	0	; () banked
  5792  0120C6  0100               	movlb	0	; () banked
  5793  0120C8  59C9               	subwfb	(?_strlen+1)& (0+255),w,b
  5794  0120CA  B0D8               	btfsc	status,0,c
  5795  0120CC  D782               	goto	l7738
  5796                           
  5797                           ; BSR set to: 0
  5798                           ;bufferint.c: 219: }
  5799                           ;bufferint.c: 220: my_FrameReceived[g].receivedDataTimeEC = 0;
  5800                           
  5801                           ; BSR set to: 0
  5802  0120CE  C0DC  F0C2         	movff	readbuffer@g,___wmul@multiplier
  5803  0120D2  C0DD  F0C3         	movff	readbuffer@g+1,___wmul@multiplier+1
  5804  0120D6  0E00               	movlw	0
  5805  0120D8  0100               	movlb	0	; () banked
  5806  0120DA  0100               	movlb	0	; () banked
  5807  0120DC  6FC5               	movwf	(___wmul@multiplicand+1)& (0+255),b
  5808  0120DE  0E1C               	movlw	28
  5809  0120E0  0100               	movlb	0	; () banked
  5810  0120E2  6FC4               	movwf	___wmul@multiplicand& (0+255),b
  5811  0120E4  ECE9  F0A6         	call	___wmul	;wreg free
  5812  0120E8  0E13               	movlw	19
  5813  0120EA  0100               	movlb	0	; () banked
  5814  0120EC  0100               	movlb	0	; () banked
  5815  0120EE  27C2               	addwf	?___wmul& (0+255),f,b
  5816  0120F0  0E00               	movlw	0
  5817  0120F2  0100               	movlb	0	; () banked
  5818  0120F4  23C3               	addwfc	(?___wmul+1)& (0+255),f,b
  5819  0120F6  0E5C               	movlw	low _my_FrameReceived
  5820  0120F8  0100               	movlb	0	; () banked
  5821  0120FA  0100               	movlb	0	; () banked
  5822  0120FC  25C2               	addwf	?___wmul& (0+255),w,b
  5823  0120FE  6ED9               	movwf	fsr2l,c
  5824  012100  0E08               	movlw	high _my_FrameReceived
  5825  012102  0100               	movlb	0	; () banked
  5826  012104  0100               	movlb	0	; () banked
  5827  012106  21C3               	addwfc	(?___wmul+1)& (0+255),w,b
  5828  012108  6EDA               	movwf	fsr2h,c
  5829  01210A  0E00               	movlw	0
  5830  01210C  6EDE               	movwf	postinc2,c
  5831  01210E  0E00               	movlw	0
  5832  012110  6EDD               	movwf	postdec2,c
  5833                           
  5834                           ; BSR set to: 0
  5835                           ;bufferint.c: 221: for(int erase =0;erase<=strlen(my_FrameReceived[g].receivedFrameTDS)-
      +                          1;erase++)
  5836  012112  0E00               	movlw	0
  5837  012114  0100               	movlb	0	; () banked
  5838  012116  0100               	movlb	0	; () banked
  5839  012118  6FDA               	movwf	(readbuffer@erase_1714+1)& (0+255),b
  5840  01211A  0E00               	movlw	0
  5841  01211C  0100               	movlb	0	; () banked
  5842  01211E  6FD9               	movwf	readbuffer@erase_1714& (0+255),b
  5843  012120  D038               	goto	l7752
  5844  012122                     l7748:
  5845                           
  5846                           ; BSR set to: 0
  5847                           ;bufferint.c: 222: {
  5848                           ;bufferint.c: 223: my_FrameReceived[g].receivedFrameTDS[erase] = '\0';
  5849  012122  C0DC  F0C2         	movff	readbuffer@g,___wmul@multiplier
  5850  012126  C0DD  F0C3         	movff	readbuffer@g+1,___wmul@multiplier+1
  5851  01212A  0E00               	movlw	0
  5852  01212C  0100               	movlb	0	; () banked
  5853  01212E  0100               	movlb	0	; () banked
  5854  012130  6FC5               	movwf	(___wmul@multiplicand+1)& (0+255),b
  5855  012132  0E1C               	movlw	28
  5856  012134  0100               	movlb	0	; () banked
  5857  012136  6FC4               	movwf	___wmul@multiplicand& (0+255),b
  5858  012138  ECE9  F0A6         	call	___wmul	;wreg free
  5859  01213C  0E15               	movlw	21
  5860  01213E  0100               	movlb	0	; () banked
  5861  012140  0100               	movlb	0	; () banked
  5862  012142  25D9               	addwf	readbuffer@erase_1714& (0+255),w,b
  5863  012144  0100               	movlb	0	; () banked
  5864  012146  6FCE               	movwf	??_readbuffer& (0+255),b
  5865  012148  0E00               	movlw	0
  5866  01214A  0100               	movlb	0	; () banked
  5867  01214C  0100               	movlb	0	; () banked
  5868  01214E  21DA               	addwfc	(readbuffer@erase_1714+1)& (0+255),w,b
  5869  012150  0100               	movlb	0	; () banked
  5870  012152  6FCF               	movwf	(??_readbuffer+1)& (0+255),b
  5871  012154  0E5C               	movlw	low _my_FrameReceived
  5872  012156  0100               	movlb	0	; () banked
  5873  012158  6FD0               	movwf	(??_readbuffer+2)& (0+255),b
  5874  01215A  0E08               	movlw	high _my_FrameReceived
  5875  01215C  6FD1               	movwf	(??_readbuffer+3)& (0+255),b
  5876  01215E  0100               	movlb	0	; () banked
  5877  012160  51CE               	movf	??_readbuffer& (0+255),w,b
  5878  012162  0100               	movlb	0	; () banked
  5879  012164  27D0               	addwf	(??_readbuffer+2)& (0+255),f,b
  5880  012166  0100               	movlb	0	; () banked
  5881  012168  51CF               	movf	(??_readbuffer+1)& (0+255),w,b
  5882  01216A  0100               	movlb	0	; () banked
  5883  01216C  23D1               	addwfc	(??_readbuffer+3)& (0+255),f,b
  5884  01216E  0100               	movlb	0	; () banked
  5885  012170  0100               	movlb	0	; () banked
  5886  012172  51C2               	movf	?___wmul& (0+255),w,b
  5887  012174  0100               	movlb	0	; () banked
  5888  012176  25D0               	addwf	(??_readbuffer+2)& (0+255),w,b
  5889  012178  6ED9               	movwf	fsr2l,c
  5890  01217A  0100               	movlb	0	; () banked
  5891  01217C  0100               	movlb	0	; () banked
  5892  01217E  51C3               	movf	(?___wmul+1)& (0+255),w,b
  5893  012180  0100               	movlb	0	; () banked
  5894  012182  21D1               	addwfc	(??_readbuffer+3)& (0+255),w,b
  5895  012184  6EDA               	movwf	fsr2h,c
  5896  012186  0E00               	movlw	0
  5897  012188  6EDF               	movwf	indf2,c
  5898                           
  5899                           ; BSR set to: 0
  5900  01218A  0100               	movlb	0	; () banked
  5901  01218C  0100               	movlb	0	; () banked
  5902  01218E  4BD9               	infsnz	readbuffer@erase_1714& (0+255),f,b
  5903  012190  2BDA               	incf	(readbuffer@erase_1714+1)& (0+255),f,b
  5904  012192                     l7752:
  5905                           
  5906                           ; BSR set to: 0
  5907  012192  0EFF               	movlw	255
  5908  012194  0100               	movlb	0	; () banked
  5909  012196  6FCE               	movwf	??_readbuffer& (0+255),b
  5910  012198  0EFF               	movlw	255
  5911  01219A  6FCF               	movwf	(??_readbuffer+1)& (0+255),b
  5912  01219C  C0DC  F0C2         	movff	readbuffer@g,___wmul@multiplier
  5913  0121A0  C0DD  F0C3         	movff	readbuffer@g+1,___wmul@multiplier+1
  5914  0121A4  0E00               	movlw	0
  5915  0121A6  0100               	movlb	0	; () banked
  5916  0121A8  0100               	movlb	0	; () banked
  5917  0121AA  6FC5               	movwf	(___wmul@multiplicand+1)& (0+255),b
  5918  0121AC  0E1C               	movlw	28
  5919  0121AE  0100               	movlb	0	; () banked
  5920  0121B0  6FC4               	movwf	___wmul@multiplicand& (0+255),b
  5921  0121B2  ECE9  F0A6         	call	___wmul	;wreg free
  5922  0121B6  0E15               	movlw	21
  5923  0121B8  0100               	movlb	0	; () banked
  5924  0121BA  0100               	movlb	0	; () banked
  5925  0121BC  27C2               	addwf	?___wmul& (0+255),f,b
  5926  0121BE  0E00               	movlw	0
  5927  0121C0  0100               	movlb	0	; () banked
  5928  0121C2  23C3               	addwfc	(?___wmul+1)& (0+255),f,b
  5929  0121C4  0E5C               	movlw	low _my_FrameReceived
  5930  0121C6  0100               	movlb	0	; () banked
  5931  0121C8  6FD0               	movwf	(??_readbuffer+2)& (0+255),b
  5932  0121CA  0E08               	movlw	high _my_FrameReceived
  5933  0121CC  6FD1               	movwf	(??_readbuffer+3)& (0+255),b
  5934  0121CE  0100               	movlb	0	; () banked
  5935  0121D0  0100               	movlb	0	; () banked
  5936  0121D2  51C2               	movf	?___wmul& (0+255),w,b
  5937  0121D4  0100               	movlb	0	; () banked
  5938  0121D6  27D0               	addwf	(??_readbuffer+2)& (0+255),f,b
  5939  0121D8  0100               	movlb	0	; () banked
  5940  0121DA  0100               	movlb	0	; () banked
  5941  0121DC  51C3               	movf	(?___wmul+1)& (0+255),w,b
  5942  0121DE  0100               	movlb	0	; () banked
  5943  0121E0  23D1               	addwfc	(??_readbuffer+3)& (0+255),f,b
  5944  0121E2  C0D0  F0C8         	movff	??_readbuffer+2,strlen@s
  5945  0121E6  C0D1  F0C9         	movff	??_readbuffer+3,strlen@s+1
  5946  0121EA  ECFF  F0A5         	call	_strlen	;wreg free
  5947  0121EE  0100               	movlb	0	; () banked
  5948  0121F0  51CE               	movf	??_readbuffer& (0+255),w,b
  5949  0121F2  0100               	movlb	0	; () banked
  5950  0121F4  0100               	movlb	0	; () banked
  5951  0121F6  27C8               	addwf	?_strlen& (0+255),f,b
  5952  0121F8  0100               	movlb	0	; () banked
  5953  0121FA  51CF               	movf	(??_readbuffer+1)& (0+255),w,b
  5954  0121FC  0100               	movlb	0	; () banked
  5955  0121FE  0100               	movlb	0	; () banked
  5956  012200  23C9               	addwfc	(?_strlen+1)& (0+255),f,b
  5957  012202  0100               	movlb	0	; () banked
  5958  012204  0100               	movlb	0	; () banked
  5959  012206  51D9               	movf	readbuffer@erase_1714& (0+255),w,b
  5960  012208  0100               	movlb	0	; () banked
  5961  01220A  0100               	movlb	0	; () banked
  5962  01220C  5DC8               	subwf	?_strlen& (0+255),w,b
  5963  01220E  0100               	movlb	0	; () banked
  5964  012210  0100               	movlb	0	; () banked
  5965  012212  51DA               	movf	(readbuffer@erase_1714+1)& (0+255),w,b
  5966  012214  0100               	movlb	0	; () banked
  5967  012216  0100               	movlb	0	; () banked
  5968  012218  59C9               	subwfb	(?_strlen+1)& (0+255),w,b
  5969  01221A  B0D8               	btfsc	status,0,c
  5970  01221C  D782               	goto	l7748
  5971                           
  5972                           ; BSR set to: 0
  5973                           ;bufferint.c: 224: }
  5974                           ;bufferint.c: 225: my_FrameReceived[g].receivedDataTimeTDS = 0;
  5975                           
  5976                           ; BSR set to: 0
  5977  01221E  C0DC  F0C2         	movff	readbuffer@g,___wmul@multiplier
  5978  012222  C0DD  F0C3         	movff	readbuffer@g+1,___wmul@multiplier+1
  5979  012226  0E00               	movlw	0
  5980  012228  0100               	movlb	0	; () banked
  5981  01222A  0100               	movlb	0	; () banked
  5982  01222C  6FC5               	movwf	(___wmul@multiplicand+1)& (0+255),b
  5983  01222E  0E1C               	movlw	28
  5984  012230  0100               	movlb	0	; () banked
  5985  012232  6FC4               	movwf	___wmul@multiplicand& (0+255),b
  5986  012234  ECE9  F0A6         	call	___wmul	;wreg free
  5987  012238  0E1A               	movlw	26
  5988  01223A  0100               	movlb	0	; () banked
  5989  01223C  0100               	movlb	0	; () banked
  5990  01223E  27C2               	addwf	?___wmul& (0+255),f,b
  5991  012240  0E00               	movlw	0
  5992  012242  0100               	movlb	0	; () banked
  5993  012244  23C3               	addwfc	(?___wmul+1)& (0+255),f,b
  5994  012246  0E5C               	movlw	low _my_FrameReceived
  5995  012248  0100               	movlb	0	; () banked
  5996  01224A  0100               	movlb	0	; () banked
  5997  01224C  25C2               	addwf	?___wmul& (0+255),w,b
  5998  01224E  6ED9               	movwf	fsr2l,c
  5999  012250  0E08               	movlw	high _my_FrameReceived
  6000  012252  0100               	movlb	0	; () banked
  6001  012254  0100               	movlb	0	; () banked
  6002  012256  21C3               	addwfc	(?___wmul+1)& (0+255),w,b
  6003  012258  6EDA               	movwf	fsr2h,c
  6004  01225A  0E00               	movlw	0
  6005  01225C  6EDE               	movwf	postinc2,c
  6006  01225E  0E00               	movlw	0
  6007  012260  6EDD               	movwf	postdec2,c
  6008                           
  6009                           ; BSR set to: 0
  6010  012262  0100               	movlb	0	; () banked
  6011  012264  0100               	movlb	0	; () banked
  6012  012266  4BDC               	infsnz	readbuffer@g& (0+255),f,b
  6013  012268  2BDD               	incf	(readbuffer@g+1)& (0+255),f,b
  6014  01226A  D562               	goto	L1
  6015  01226C                     l7760:
  6016                           
  6017                           ; BSR set to: 0
  6018                           ;bufferint.c: 226: }
  6019                           ;bufferint.c: 227: nbFrameDO = 0 ;
  6020  01226C  0E00               	movlw	0
  6021  01226E  0100               	movlb	0	; () banked
  6022  012270  0100               	movlb	0	; () banked
  6023  012272  6F85               	movwf	(_nbFrameDO+1)& (0+255),b
  6024  012274  0E00               	movlw	0
  6025  012276  0100               	movlb	0	; () banked
  6026  012278  6F84               	movwf	_nbFrameDO& (0+255),b
  6027                           
  6028                           ;bufferint.c: 228: nbFramePH = 0 ;
  6029  01227A  0E00               	movlw	0
  6030  01227C  0100               	movlb	0	; () banked
  6031  01227E  0100               	movlb	0	; () banked
  6032  012280  6F89               	movwf	(_nbFramePH+1)& (0+255),b
  6033  012282  0E00               	movlw	0
  6034  012284  0100               	movlb	0	; () banked
  6035  012286  6F88               	movwf	_nbFramePH& (0+255),b
  6036                           
  6037                           ;bufferint.c: 229: nbFrameEC = 0 ;
  6038  012288  0E00               	movlw	0
  6039  01228A  0100               	movlb	0	; () banked
  6040  01228C  0100               	movlb	0	; () banked
  6041  01228E  6F87               	movwf	(_nbFrameEC+1)& (0+255),b
  6042  012290  0E00               	movlw	0
  6043  012292  0100               	movlb	0	; () banked
  6044  012294  6F86               	movwf	_nbFrameEC& (0+255),b
  6045                           
  6046                           ;bufferint.c: 230: nbFrameTDS = 0 ;
  6047  012296  0E00               	movlw	0
  6048  012298  0100               	movlb	0	; () banked
  6049  01229A  0100               	movlb	0	; () banked
  6050  01229C  6F8B               	movwf	(_nbFrameTDS+1)& (0+255),b
  6051  01229E  0E00               	movlw	0
  6052  0122A0  0100               	movlb	0	; () banked
  6053  0122A2  6F8A               	movwf	_nbFrameTDS& (0+255),b
  6054                           
  6055                           ; BSR set to: 0
  6056                           ;bufferint.c: 231: Vq = 0;
  6057  0122A4  0100               	movlb	0	; () banked
  6058  0122A6  6FCE               	movwf	??_readbuffer& (0+255),b
  6059  0122A8  0E00               	movlw	0
  6060  0122AA  0100               	movlb	0	; () banked
  6061  0122AC  0100               	movlb	0	; () banked
  6062  0122AE  6F97               	movwf	_Vq& (0+255),b
  6063  0122B0  0100               	movlb	0	; () banked
  6064  0122B2  51CE               	movf	??_readbuffer& (0+255),w,b
  6065  0122B4  0012               	return	
  6066  0122B6                     l7764:
  6067                           
  6068                           ; BSR set to: 0
  6069                           ;bufferint.c: 234: else if(br2=='0'&& VERROR_R)
  6070  0122B6  0100               	movlb	0	; () banked
  6071  0122B8  0100               	movlb	0	; () banked
  6072  0122BA  51DE               	movf	readbuffer@br2& (0+255),w,b
  6073  0122BC  0A30               	xorlw	48
  6074  0122BE  A4D8               	btfss	status,2,c
  6075  0122C0  D01E               	goto	l7770
  6076                           
  6077                           ; BSR set to: 0
  6078  0122C2  5033               	movf	_VERROR_R,w,c
  6079  0122C4  B4D8               	btfsc	status,2,c
  6080  0122C6  D01B               	goto	l7770
  6081                           
  6082                           ; BSR set to: 0
  6083                           ;bufferint.c: 235: {
  6084                           ;bufferint.c: 236: br2='\0';
  6085  0122C8  0100               	movlb	0	; () banked
  6086  0122CA  6FCE               	movwf	??_readbuffer& (0+255),b
  6087  0122CC  0E00               	movlw	0
  6088  0122CE  0100               	movlb	0	; () banked
  6089  0122D0  0100               	movlb	0	; () banked
  6090  0122D2  6FDE               	movwf	readbuffer@br2& (0+255),b
  6091  0122D4  0100               	movlb	0	; () banked
  6092  0122D6  51CE               	movf	??_readbuffer& (0+255),w,b
  6093                           
  6094                           ;bufferint.c: 237: VERROR_O = 1;
  6095  0122D8  0100               	movlb	0	; () banked
  6096  0122DA  6FCE               	movwf	??_readbuffer& (0+255),b
  6097  0122DC  0E01               	movlw	1
  6098  0122DE  6E32               	movwf	_VERROR_O,c
  6099  0122E0  0100               	movlb	0	; () banked
  6100  0122E2  51CE               	movf	??_readbuffer& (0+255),w,b
  6101                           
  6102                           ;bufferint.c: 238: VERROR_E = 0;
  6103  0122E4  0100               	movlb	0	; () banked
  6104  0122E6  6FCE               	movwf	??_readbuffer& (0+255),b
  6105  0122E8  0E00               	movlw	0
  6106  0122EA  6E31               	movwf	_VERROR_E,c
  6107  0122EC  0100               	movlb	0	; () banked
  6108  0122EE  51CE               	movf	??_readbuffer& (0+255),w,b
  6109                           
  6110                           ;bufferint.c: 239: VERROR_R = 0;
  6111  0122F0  0100               	movlb	0	; () banked
  6112  0122F2  6FCE               	movwf	??_readbuffer& (0+255),b
  6113  0122F4  0E00               	movlw	0
  6114  0122F6  6E33               	movwf	_VERROR_R,c
  6115  0122F8  0100               	movlb	0	; () banked
  6116  0122FA  51CE               	movf	??_readbuffer& (0+255),w,b
  6117                           
  6118                           ;bufferint.c: 240: }
  6119  0122FC  0012               	return	
  6120  0122FE                     l7770:
  6121                           
  6122                           ; BSR set to: 0
  6123                           ;bufferint.c: 243: else
  6124                           ;bufferint.c: 244: {
  6125                           ;bufferint.c: 245: VO = 0;
  6126  0122FE  0100               	movlb	0	; () banked
  6127  012300  6FCE               	movwf	??_readbuffer& (0+255),b
  6128  012302  0E00               	movlw	0
  6129  012304  6E35               	movwf	_VO,c
  6130  012306  0100               	movlb	0	; () banked
  6131  012308  51CE               	movf	??_readbuffer& (0+255),w,b
  6132                           
  6133                           ;bufferint.c: 246: VKA = 0;
  6134  01230A  0100               	movlb	0	; () banked
  6135  01230C  6FCE               	movwf	??_readbuffer& (0+255),b
  6136  01230E  0E00               	movlw	0
  6137  012310  6E34               	movwf	_VKA,c
  6138  012312  0100               	movlb	0	; () banked
  6139  012314  51CE               	movf	??_readbuffer& (0+255),w,b
  6140                           
  6141                           ;bufferint.c: 247: Vstarte = 0;
  6142  012316  0100               	movlb	0	; () banked
  6143  012318  6FCE               	movwf	??_readbuffer& (0+255),b
  6144  01231A  0E00               	movlw	0
  6145  01231C  6E3B               	movwf	_Vstarte,c
  6146  01231E  0100               	movlb	0	; () banked
  6147  012320  51CE               	movf	??_readbuffer& (0+255),w,b
  6148                           
  6149                           ;bufferint.c: 248: Vstarta = 0;
  6150  012322  0100               	movlb	0	; () banked
  6151  012324  6FCE               	movwf	??_readbuffer& (0+255),b
  6152  012326  0E00               	movlw	0
  6153  012328  6E39               	movwf	_Vstarta,c
  6154  01232A  0100               	movlb	0	; () banked
  6155  01232C  51CE               	movf	??_readbuffer& (0+255),w,b
  6156                           
  6157                           ;bufferint.c: 249: Vstartd = 0;
  6158  01232E  0100               	movlb	0	; () banked
  6159  012330  6FCE               	movwf	??_readbuffer& (0+255),b
  6160  012332  0E00               	movlw	0
  6161  012334  6E3A               	movwf	_Vstartd,c
  6162  012336  0100               	movlb	0	; () banked
  6163  012338  51CE               	movf	??_readbuffer& (0+255),w,b
  6164  01233A  0012               	return	
  6165  01233C                     __end_of_readbuffer:
  6166                           	opt stack 0
  6167                           tblptru	equ	0xFF8
  6168                           tblptrh	equ	0xFF7
  6169                           tblptrl	equ	0xFF6
  6170                           tablat	equ	0xFF5
  6171                           postinc0	equ	0xFEE
  6172                           wreg	equ	0xFE8
  6173                           postdec1	equ	0xFE5
  6174                           fsr1h	equ	0xFE2
  6175                           fsr1l	equ	0xFE1
  6176                           indf2	equ	0xFDF
  6177                           postinc2	equ	0xFDE
  6178                           postdec2	equ	0xFDD
  6179                           fsr2h	equ	0xFDA
  6180                           fsr2l	equ	0xFD9
  6181                           status	equ	0xFD8
  6182                           
  6183 ;; *************** function _initialisation_ActiverTimer0 *****************
  6184 ;; Defined at:
  6185 ;;		line 42 in file "commun.c"
  6186 ;; Parameters:    Size  Location     Type
  6187 ;;		None
  6188 ;; Auto vars:     Size  Location     Type
  6189 ;;		None
  6190 ;; Return value:  Size  Location     Type
  6191 ;;		None               void
  6192 ;; Registers used:
  6193 ;;		wreg, status,2
  6194 ;; Tracked objects:
  6195 ;;		On entry : 0/0
  6196 ;;		On exit  : 0/0
  6197 ;;		Unchanged: 0/0
  6198 ;; Data sizes:     COMRAM   BANK0   BANK1   BANK2   BANK3   BANK4   BANK5   BANK6   BANK7   BANK8   BANK9  BANK10  BANK1
      +1  BANK12  BANK13  BANK14
  6199 ;;      Params:         0       0       0       0       0       0       0       0       0       0       0       0       
      +0       0       0       0
  6200 ;;      Locals:         0       0       0       0       0       0       0       0       0       0       0       0       
      +0       0       0       0
  6201 ;;      Temps:          0       0       0       0       0       0       0       0       0       0       0       0       
      +0       0       0       0
  6202 ;;      Totals:         0       0       0       0       0       0       0       0       0       0       0       0       
      +0       0       0       0
  6203 ;;Total ram usage:        0 bytes
  6204 ;; Hardware stack levels used:    1
  6205 ;; Hardware stack levels required when called:    3
  6206 ;; This function calls:
  6207 ;;		Nothing
  6208 ;; This function is called by:
  6209 ;;		_main
  6210 ;; This function uses a non-reentrant model
  6211 ;;
  6212                           
  6213                           	psect	text9
  6214  014F10                     __ptext9:
  6215                           	opt stack 0
  6216  014F10                     _initialisation_ActiverTimer0:
  6217                           	opt stack 27
  6218                           
  6219                           ;commun.c: 45: T0CON = 0x00;
  6220                           
  6221                           ; BSR set to: 0
  6222                           ;incstack = 0
  6223  014F10  0E00               	movlw	0
  6224  014F12  6ED5               	movwf	4053,c	;volatile
  6225                           
  6226                           ;commun.c: 46: T0CONbits.TMR0ON = 1;
  6227  014F14  8ED5               	bsf	4053,7,c	;volatile
  6228                           
  6229                           ;commun.c: 47: T0CONbits.T08BIT = 0;
  6230  014F16  9CD5               	bcf	4053,6,c	;volatile
  6231                           
  6232                           ;commun.c: 48: T0CONbits.T0PS = 0b011;
  6233  014F18  50D5               	movf	4053,w,c	;volatile
  6234  014F1A  0BF8               	andlw	-8
  6235  014F1C  0903               	iorlw	3
  6236  014F1E  6ED5               	movwf	4053,c	;volatile
  6237                           
  6238                           ;commun.c: 49: T0CONbits.PSA = 0;
  6239  014F20  96D5               	bcf	4053,3,c	;volatile
  6240                           
  6241                           ;commun.c: 50: INTCONbits.TMR0IE = 1;
  6242  014F22  8AF2               	bsf	intcon,5,c	;volatile
  6243                           
  6244                           ;commun.c: 51: INTCONbits.TMR0IF = 0;
  6245  014F24  94F2               	bcf	intcon,2,c	;volatile
  6246                           
  6247                           ;commun.c: 52: INTCON2bits.TMR0IP = 1;
  6248  014F26  84F1               	bsf	intcon2,2,c	;volatile
  6249                           
  6250                           ;commun.c: 57: TMR0L = 0xED;
  6251  014F28  0EED               	movlw	237
  6252  014F2A  6ED6               	movwf	4054,c	;volatile
  6253                           
  6254                           ;commun.c: 58: TMR0H = 0x85;
  6255  014F2C  0E85               	movlw	133
  6256  014F2E  6ED7               	movwf	4055,c	;volatile
  6257  014F30  0012               	return	
  6258  014F32                     __end_of_initialisation_ActiverTimer0:
  6259                           	opt stack 0
  6260                           tblptru	equ	0xFF8
  6261                           tblptrh	equ	0xFF7
  6262                           tblptrl	equ	0xFF6
  6263                           tablat	equ	0xFF5
  6264                           intcon	equ	0xFF2
  6265                           intcon2	equ	0xFF1
  6266                           postinc0	equ	0xFEE
  6267                           wreg	equ	0xFE8
  6268                           postdec1	equ	0xFE5
  6269                           fsr1h	equ	0xFE2
  6270                           fsr1l	equ	0xFE1
  6271                           indf2	equ	0xFDF
  6272                           postinc2	equ	0xFDE
  6273                           postdec2	equ	0xFDD
  6274                           fsr2h	equ	0xFDA
  6275                           fsr2l	equ	0xFD9
  6276                           status	equ	0xFD8
  6277                           
  6278 ;; *************** function _firstStartGSM *****************
  6279 ;; Defined at:
  6280 ;;		line 125 in file "main.c"
  6281 ;; Parameters:    Size  Location     Type
  6282 ;;		None
  6283 ;; Auto vars:     Size  Location     Type
  6284 ;;		None
  6285 ;; Return value:  Size  Location     Type
  6286 ;;		None               void
  6287 ;; Registers used:
  6288 ;;		wreg, status,2
  6289 ;; Tracked objects:
  6290 ;;		On entry : 0/0
  6291 ;;		On exit  : 0/0
  6292 ;;		Unchanged: 0/0
  6293 ;; Data sizes:     COMRAM   BANK0   BANK1   BANK2   BANK3   BANK4   BANK5   BANK6   BANK7   BANK8   BANK9  BANK10  BANK1
      +1  BANK12  BANK13  BANK14
  6294 ;;      Params:         0       0       0       0       0       0       0       0       0       0       0       0       
      +0       0       0       0
  6295 ;;      Locals:         0       0       0       0       0       0       0       0       0       0       0       0       
      +0       0       0       0
  6296 ;;      Temps:          0       1       0       0       0       0       0       0       0       0       0       0       
      +0       0       0       0
  6297 ;;      Totals:         0       1       0       0       0       0       0       0       0       0       0       0       
      +0       0       0       0
  6298 ;;Total ram usage:        1 bytes
  6299 ;; Hardware stack levels used:    1
  6300 ;; Hardware stack levels required when called:    3
  6301 ;; This function calls:
  6302 ;;		Nothing
  6303 ;; This function is called by:
  6304 ;;		_main
  6305 ;; This function uses a non-reentrant model
  6306 ;;
  6307                           
  6308                           	psect	text10
  6309  014AFA                     __ptext10:
  6310                           	opt stack 0
  6311  014AFA                     _firstStartGSM:
  6312                           	opt stack 27
  6313                           
  6314                           ;main.c: 127: Vy = 1;
  6315                           
  6316                           ;incstack = 0
  6317  014AFA  0100               	movlb	0	; () banked
  6318  014AFC  6FC2               	movwf	??_firstStartGSM& (0+255),b
  6319  014AFE  0E01               	movlw	1
  6320  014B00  0100               	movlb	0	; () banked
  6321  014B02  0100               	movlb	0	; () banked
  6322  014B04  6F9A               	movwf	_Vy& (0+255),b
  6323  014B06  0100               	movlb	0	; () banked
  6324  014B08  51C2               	movf	??_firstStartGSM& (0+255),w,b
  6325                           
  6326                           ;main.c: 128: Vg = 0;
  6327  014B0A  0100               	movlb	0	; () banked
  6328  014B0C  6FC2               	movwf	??_firstStartGSM& (0+255),b
  6329  014B0E  0E00               	movlw	0
  6330  014B10  0100               	movlb	0	; () banked
  6331  014B12  0100               	movlb	0	; () banked
  6332  014B14  6F95               	movwf	_Vg& (0+255),b
  6333  014B16  0100               	movlb	0	; () banked
  6334  014B18  51C2               	movf	??_firstStartGSM& (0+255),w,b
  6335                           
  6336                           ;main.c: 129: VOK = 0;
  6337  014B1A  0100               	movlb	0	; () banked
  6338  014B1C  6FC2               	movwf	??_firstStartGSM& (0+255),b
  6339  014B1E  0E00               	movlw	0
  6340  014B20  0100               	movlb	0	; () banked
  6341  014B22  0100               	movlb	0	; () banked
  6342  014B24  6FF0               	movwf	_VOK& (0+255),b
  6343  014B26  0100               	movlb	0	; () banked
  6344  014B28  51C2               	movf	??_firstStartGSM& (0+255),w,b
  6345                           
  6346                           ;main.c: 130: VPH = 0;
  6347  014B2A  0100               	movlb	0	; () banked
  6348  014B2C  6FC2               	movwf	??_firstStartGSM& (0+255),b
  6349  014B2E  0E00               	movlw	0
  6350  014B30  0100               	movlb	0	; () banked
  6351  014B32  0100               	movlb	0	; () banked
  6352  014B34  6F93               	movwf	_VPH& (0+255),b
  6353  014B36  0100               	movlb	0	; () banked
  6354  014B38  51C2               	movf	??_firstStartGSM& (0+255),w,b
  6355                           
  6356                           ;main.c: 131: VFC = 0;
  6357  014B3A  0100               	movlb	0	; () banked
  6358  014B3C  6FC2               	movwf	??_firstStartGSM& (0+255),b
  6359  014B3E  0E00               	movlw	0
  6360  014B40  0100               	movlb	0	; () banked
  6361  014B42  0100               	movlb	0	; () banked
  6362  014B44  6F92               	movwf	_VFC& (0+255),b
  6363  014B46  0100               	movlb	0	; () banked
  6364  014B48  51C2               	movf	??_firstStartGSM& (0+255),w,b
  6365                           
  6366                           ;main.c: 132: VPOST = 0;
  6367  014B4A  0100               	movlb	0	; () banked
  6368  014B4C  6FC2               	movwf	??_firstStartGSM& (0+255),b
  6369  014B4E  0E00               	movlw	0
  6370  014B50  0100               	movlb	0	; () banked
  6371  014B52  0100               	movlb	0	; () banked
  6372  014B54  6F94               	movwf	_VPOST& (0+255),b
  6373  014B56  0100               	movlb	0	; () banked
  6374  014B58  51C2               	movf	??_firstStartGSM& (0+255),w,b
  6375                           
  6376                           ; BSR set to: 0
  6377                           ;main.c: 133: mcStartGSM = 20;
  6378  014B5A  0E00               	movlw	0
  6379  014B5C  6E2C               	movwf	_mcStartGSM+1,c
  6380  014B5E  0E14               	movlw	20
  6381  014B60  6E2B               	movwf	_mcStartGSM,c
  6382                           
  6383                           ; BSR set to: 0
  6384                           ;main.c: 134: mcPostGSM = 0;
  6385  014B62  0E00               	movlw	0
  6386  014B64  0100               	movlb	0	; () banked
  6387  014B66  0100               	movlb	0	; () banked
  6388  014B68  6F83               	movwf	(_mcPostGSM+1)& (0+255),b
  6389  014B6A  0E00               	movlw	0
  6390  014B6C  0100               	movlb	0	; () banked
  6391  014B6E  6F82               	movwf	_mcPostGSM& (0+255),b
  6392                           
  6393                           ;main.c: 135: VstartReady = 0;
  6394  014B70  0100               	movlb	0	; () banked
  6395  014B72  6FC2               	movwf	??_firstStartGSM& (0+255),b
  6396  014B74  0E00               	movlw	0
  6397  014B76  6E38               	movwf	_VstartReady,c
  6398  014B78  0100               	movlb	0	; () banked
  6399  014B7A  51C2               	movf	??_firstStartGSM& (0+255),w,b
  6400                           
  6401                           ; BSR set to: 0
  6402  014B7C  0012               	return	
  6403  014B7E                     __end_of_firstStartGSM:
  6404                           	opt stack 0
  6405                           tblptru	equ	0xFF8
  6406                           tblptrh	equ	0xFF7
  6407                           tblptrl	equ	0xFF6
  6408                           tablat	equ	0xFF5
  6409                           intcon	equ	0xFF2
  6410                           intcon2	equ	0xFF1
  6411                           postinc0	equ	0xFEE
  6412                           wreg	equ	0xFE8
  6413                           postdec1	equ	0xFE5
  6414                           fsr1h	equ	0xFE2
  6415                           fsr1l	equ	0xFE1
  6416                           indf2	equ	0xFDF
  6417                           postinc2	equ	0xFDE
  6418                           postdec2	equ	0xFDD
  6419                           fsr2h	equ	0xFDA
  6420                           fsr2l	equ	0xFD9
  6421                           status	equ	0xFD8
  6422                           
  6423 ;; *************** function _executeBuffer *****************
  6424 ;; Defined at:
  6425 ;;		line 255 in file "bufferint.c"
  6426 ;; Parameters:    Size  Location     Type
  6427 ;;		None
  6428 ;; Auto vars:     Size  Location     Type
  6429 ;;  y               2   19[BANK0 ] int 
  6430 ;;  w               2   17[BANK0 ] int 
  6431 ;; Return value:  Size  Location     Type
  6432 ;;		None               void
  6433 ;; Registers used:
  6434 ;;		wreg, fsr0l, fsr0h, fsr1l, fsr1h, fsr2l, fsr2h, status,2, status,0, tblptrl, tblptrh, tblptru, prodl, prodh, cstack
  6435 ;; Tracked objects:
  6436 ;;		On entry : 0/0
  6437 ;;		On exit  : 0/0
  6438 ;;		Unchanged: 0/0
  6439 ;; Data sizes:     COMRAM   BANK0   BANK1   BANK2   BANK3   BANK4   BANK5   BANK6   BANK7   BANK8   BANK9  BANK10  BANK1
      +1  BANK12  BANK13  BANK14
  6440 ;;      Params:         0       0       0       0       0       0       0       0       0       0       0       0       
      +0       0       0       0
  6441 ;;      Locals:         0       4       0       0       0       0       0       0       0       0       0       0       
      +0       0       0       0
  6442 ;;      Temps:          0       5       0       0       0       0       0       0       0       0       0       0       
      +0       0       0       0
  6443 ;;      Totals:         0       9       0       0       0       0       0       0       0       0       0       0       
      +0       0       0       0
  6444 ;;Total ram usage:        9 bytes
  6445 ;; Hardware stack levels used:    1
  6446 ;; Hardware stack levels required when called:    4
  6447 ;; This function calls:
  6448 ;;		_Write1USART
  6449 ;;		___wmul
  6450 ;;		_strlen
  6451 ;; This function is called by:
  6452 ;;		_main
  6453 ;; This function uses a non-reentrant model
  6454 ;;
  6455                           
  6456                           	psect	text11
  6457  01233C                     __ptext11:
  6458                           	opt stack 0
  6459  01233C                     _executeBuffer:
  6460                           	opt stack 26
  6461                           
  6462                           ;bufferint.c: 257: int w=0;
  6463                           
  6464                           ; BSR set to: 0
  6465                           ;incstack = 0
  6466  01233C  0E00               	movlw	0
  6467  01233E  0100               	movlb	0	; () banked
  6468  012340  0100               	movlb	0	; () banked
  6469  012342  6FD4               	movwf	(executeBuffer@w+1)& (0+255),b
  6470  012344  0E00               	movlw	0
  6471  012346  0100               	movlb	0	; () banked
  6472  012348  6FD3               	movwf	executeBuffer@w& (0+255),b
  6473                           
  6474                           ;bufferint.c: 258: int y=0;
  6475  01234A  0E00               	movlw	0
  6476  01234C  0100               	movlb	0	; () banked
  6477  01234E  0100               	movlb	0	; () banked
  6478  012350  6FD6               	movwf	(executeBuffer@y+1)& (0+255),b
  6479  012352  0E00               	movlw	0
  6480  012354  0100               	movlb	0	; () banked
  6481  012356  6FD5               	movwf	executeBuffer@y& (0+255),b
  6482                           
  6483                           ; BSR set to: 0
  6484                           ;bufferint.c: 259: if(idReceived == 0x10)
  6485  012358  5029               	movf	_idReceived,w,c
  6486  01235A  0A10               	xorlw	16
  6487  01235C  102A               	iorwf	_idReceived+1,w,c
  6488  01235E  A4D8               	btfss	status,2,c
  6489  012360  D118               	goto	l6888
  6490                           
  6491                           ; BSR set to: 0
  6492                           ;bufferint.c: 260: {
  6493                           ;bufferint.c: 261: w=0;
  6494  012362  0E00               	movlw	0
  6495  012364  0100               	movlb	0	; () banked
  6496  012366  0100               	movlb	0	; () banked
  6497  012368  6FD4               	movwf	(executeBuffer@w+1)& (0+255),b
  6498  01236A  0E00               	movlw	0
  6499  01236C  0100               	movlb	0	; () banked
  6500  01236E  6FD3               	movwf	executeBuffer@w& (0+255),b
  6501                           
  6502                           ;bufferint.c: 262: y=0;
  6503  012370  0E00               	movlw	0
  6504  012372  0100               	movlb	0	; () banked
  6505  012374  0100               	movlb	0	; () banked
  6506  012376  6FD6               	movwf	(executeBuffer@y+1)& (0+255),b
  6507  012378  0E00               	movlw	0
  6508  01237A  0100               	movlb	0	; () banked
  6509  01237C  6FD5               	movwf	executeBuffer@y& (0+255),b
  6510                           
  6511                           ;bufferint.c: 263: for(w=0;w<=strlen(trameToParse)-1;w++)
  6512  01237E  0E00               	movlw	0
  6513  012380  0100               	movlb	0	; () banked
  6514  012382  0100               	movlb	0	; () banked
  6515  012384  6FD4               	movwf	(executeBuffer@w+1)& (0+255),b
  6516  012386  0E00               	movlw	0
  6517  012388  0100               	movlb	0	; () banked
  6518  01238A  6FD3               	movwf	executeBuffer@w& (0+255),b
  6519  01238C  D054               	goto	l6878
  6520  01238E                     l6868:
  6521                           
  6522                           ; BSR set to: 0
  6523                           ;bufferint.c: 264: {
  6524                           ;bufferint.c: 266: my_FrameReceived[nbFramePH].receivedFramePH[y] = trameToParse[y];
  6525  01238E  0101               	movlb	1	; () banked
  6526  012390  0E9E               	movlw	low _trameToParse
  6527  012392  0100               	movlb	0	; () banked
  6528  012394  0100               	movlb	0	; () banked
  6529  012396  25D5               	addwf	executeBuffer@y& (0+255),w,b
  6530  012398  6ED9               	movwf	fsr2l,c
  6531  01239A  0101               	movlb	1	; () banked
  6532  01239C  0E01               	movlw	high _trameToParse
  6533  01239E  0100               	movlb	0	; () banked
  6534  0123A0  0100               	movlb	0	; () banked
  6535  0123A2  21D6               	addwfc	(executeBuffer@y+1)& (0+255),w,b
  6536  0123A4  6EDA               	movwf	fsr2h,c
  6537  0123A6  C088  F0C2         	movff	_nbFramePH,___wmul@multiplier
  6538  0123AA  C089  F0C3         	movff	_nbFramePH+1,___wmul@multiplier+1
  6539  0123AE  0E00               	movlw	0
  6540  0123B0  0100               	movlb	0	; () banked
  6541  0123B2  0100               	movlb	0	; () banked
  6542  0123B4  6FC5               	movwf	(___wmul@multiplicand+1)& (0+255),b
  6543  0123B6  0E1C               	movlw	28
  6544  0123B8  0100               	movlb	0	; () banked
  6545  0123BA  6FC4               	movwf	___wmul@multiplicand& (0+255),b
  6546  0123BC  ECE9  F0A6         	call	___wmul	;wreg free
  6547  0123C0  0E5C               	movlw	low _my_FrameReceived
  6548  0123C2  0100               	movlb	0	; () banked
  6549  0123C4  6FCE               	movwf	??_executeBuffer& (0+255),b
  6550  0123C6  0E08               	movlw	high _my_FrameReceived
  6551  0123C8  6FCF               	movwf	(??_executeBuffer+1)& (0+255),b
  6552  0123CA  0100               	movlb	0	; () banked
  6553  0123CC  0100               	movlb	0	; () banked
  6554  0123CE  51C2               	movf	?___wmul& (0+255),w,b
  6555  0123D0  0100               	movlb	0	; () banked
  6556  0123D2  27CE               	addwf	??_executeBuffer& (0+255),f,b
  6557  0123D4  0100               	movlb	0	; () banked
  6558  0123D6  0100               	movlb	0	; () banked
  6559  0123D8  51C3               	movf	(?___wmul+1)& (0+255),w,b
  6560  0123DA  0100               	movlb	0	; () banked
  6561  0123DC  23CF               	addwfc	(??_executeBuffer+1)& (0+255),f,b
  6562  0123DE  0100               	movlb	0	; () banked
  6563  0123E0  0100               	movlb	0	; () banked
  6564  0123E2  51D5               	movf	executeBuffer@y& (0+255),w,b
  6565  0123E4  0100               	movlb	0	; () banked
  6566  0123E6  25CE               	addwf	??_executeBuffer& (0+255),w,b
  6567  0123E8  6EE1               	movwf	fsr1l,c
  6568  0123EA  0100               	movlb	0	; () banked
  6569  0123EC  0100               	movlb	0	; () banked
  6570  0123EE  51D6               	movf	(executeBuffer@y+1)& (0+255),w,b
  6571  0123F0  0100               	movlb	0	; () banked
  6572  0123F2  21CF               	addwfc	(??_executeBuffer+1)& (0+255),w,b
  6573  0123F4  6EE2               	movwf	fsr1h,c
  6574  0123F6  CFDF FFE7          	movff	indf2,indf1
  6575                           
  6576                           ; BSR set to: 0
  6577                           ;bufferint.c: 267: y++;
  6578  0123FA  0100               	movlb	0	; () banked
  6579  0123FC  0100               	movlb	0	; () banked
  6580  0123FE  4BD5               	infsnz	executeBuffer@y& (0+255),f,b
  6581  012400  2BD6               	incf	(executeBuffer@y+1)& (0+255),f,b
  6582                           
  6583                           ; BSR set to: 0
  6584                           ;bufferint.c: 268: if(trameToParse[y]==';')
  6585  012402  0101               	movlb	1	; () banked
  6586  012404  0E9E               	movlw	low _trameToParse
  6587  012406  0100               	movlb	0	; () banked
  6588  012408  0100               	movlb	0	; () banked
  6589  01240A  25D5               	addwf	executeBuffer@y& (0+255),w,b
  6590  01240C  6ED9               	movwf	fsr2l,c
  6591  01240E  0101               	movlb	1	; () banked
  6592  012410  0E01               	movlw	high _trameToParse
  6593  012412  0100               	movlb	0	; () banked
  6594  012414  0100               	movlb	0	; () banked
  6595  012416  21D6               	addwfc	(executeBuffer@y+1)& (0+255),w,b
  6596  012418  6EDA               	movwf	fsr2h,c
  6597  01241A  0E3B               	movlw	59
  6598  01241C  62DF               	cpfseq	indf2,c
  6599  01241E  D007               	goto	l6876
  6600                           
  6601                           ; BSR set to: 0
  6602                           ;bufferint.c: 269: {
  6603                           ;bufferint.c: 270: w=30;
  6604  012420  0E00               	movlw	0
  6605  012422  0100               	movlb	0	; () banked
  6606  012424  0100               	movlb	0	; () banked
  6607  012426  6FD4               	movwf	(executeBuffer@w+1)& (0+255),b
  6608  012428  0E1E               	movlw	30
  6609  01242A  0100               	movlb	0	; () banked
  6610  01242C  6FD3               	movwf	executeBuffer@w& (0+255),b
  6611  01242E                     l6876:
  6612                           
  6613                           ; BSR set to: 0
  6614  01242E  0100               	movlb	0	; () banked
  6615  012430  0100               	movlb	0	; () banked
  6616  012432  4BD3               	infsnz	executeBuffer@w& (0+255),f,b
  6617  012434  2BD4               	incf	(executeBuffer@w+1)& (0+255),f,b
  6618  012436                     l6878:
  6619                           
  6620                           ; BSR set to: 0
  6621  012436  0EFF               	movlw	255
  6622  012438  0100               	movlb	0	; () banked
  6623  01243A  6FCE               	movwf	??_executeBuffer& (0+255),b
  6624  01243C  0EFF               	movlw	255
  6625  01243E  6FCF               	movwf	(??_executeBuffer+1)& (0+255),b
  6626  012440  0101               	movlb	1	; () banked
  6627  012442  0E01               	movlw	high _trameToParse
  6628  012444  0100               	movlb	0	; () banked
  6629  012446  0100               	movlb	0	; () banked
  6630  012448  6FC9               	movwf	(strlen@s+1)& (0+255),b
  6631  01244A  0101               	movlb	1	; () banked
  6632  01244C  0E9E               	movlw	low _trameToParse
  6633  01244E  0100               	movlb	0	; () banked
  6634  012450  0100               	movlb	0	; () banked
  6635  012452  6FC8               	movwf	strlen@s& (0+255),b
  6636  012454  ECFF  F0A5         	call	_strlen	;wreg free
  6637  012458  0100               	movlb	0	; () banked
  6638  01245A  51CE               	movf	??_executeBuffer& (0+255),w,b
  6639  01245C  0100               	movlb	0	; () banked
  6640  01245E  0100               	movlb	0	; () banked
  6641  012460  27C8               	addwf	?_strlen& (0+255),f,b
  6642  012462  0100               	movlb	0	; () banked
  6643  012464  51CF               	movf	(??_executeBuffer+1)& (0+255),w,b
  6644  012466  0100               	movlb	0	; () banked
  6645  012468  0100               	movlb	0	; () banked
  6646  01246A  23C9               	addwfc	(?_strlen+1)& (0+255),f,b
  6647  01246C  0100               	movlb	0	; () banked
  6648  01246E  0100               	movlb	0	; () banked
  6649  012470  51D3               	movf	executeBuffer@w& (0+255),w,b
  6650  012472  0100               	movlb	0	; () banked
  6651  012474  0100               	movlb	0	; () banked
  6652  012476  5DC8               	subwf	?_strlen& (0+255),w,b
  6653  012478  0100               	movlb	0	; () banked
  6654  01247A  0100               	movlb	0	; () banked
  6655  01247C  51D4               	movf	(executeBuffer@w+1)& (0+255),w,b
  6656  01247E  0100               	movlb	0	; () banked
  6657  012480  0100               	movlb	0	; () banked
  6658  012482  59C9               	subwfb	(?_strlen+1)& (0+255),w,b
  6659  012484  B0D8               	btfsc	status,0,c
  6660  012486  D783               	goto	l6868
  6661                           
  6662                           ; BSR set to: 0
  6663                           ;bufferint.c: 271: }
  6664                           ;bufferint.c: 272: }
  6665                           ;bufferint.c: 274: my_FrameReceived[nbFramePH].receivedDataTimePH = (int)trameToParse[y+
      +                          1] << 8;
  6666                           
  6667                           ; BSR set to: 0
  6668  012488  0E01               	movlw	1
  6669  01248A  0100               	movlb	0	; () banked
  6670  01248C  0100               	movlb	0	; () banked
  6671  01248E  25D5               	addwf	executeBuffer@y& (0+255),w,b
  6672  012490  0100               	movlb	0	; () banked
  6673  012492  6FCE               	movwf	??_executeBuffer& (0+255),b
  6674  012494  0E00               	movlw	0
  6675  012496  0100               	movlb	0	; () banked
  6676  012498  0100               	movlb	0	; () banked
  6677  01249A  21D6               	addwfc	(executeBuffer@y+1)& (0+255),w,b
  6678  01249C  0100               	movlb	0	; () banked
  6679  01249E  6FCF               	movwf	(??_executeBuffer+1)& (0+255),b
  6680  0124A0  0101               	movlb	1	; () banked
  6681  0124A2  0E9E               	movlw	low _trameToParse
  6682  0124A4  0100               	movlb	0	; () banked
  6683  0124A6  25CE               	addwf	??_executeBuffer& (0+255),w,b
  6684  0124A8  6ED9               	movwf	fsr2l,c
  6685  0124AA  0101               	movlb	1	; () banked
  6686  0124AC  0E01               	movlw	high _trameToParse
  6687  0124AE  0100               	movlb	0	; () banked
  6688  0124B0  21CF               	addwfc	(??_executeBuffer+1)& (0+255),w,b
  6689  0124B2  6EDA               	movwf	fsr2h,c
  6690  0124B4  50DF               	movf	indf2,w,c
  6691  0124B6  0100               	movlb	0	; () banked
  6692  0124B8  6FD0               	movwf	(??_executeBuffer+2)& (0+255),b
  6693  0124BA  0100               	movlb	0	; () banked
  6694  0124BC  51D0               	movf	(??_executeBuffer+2)& (0+255),w,b
  6695  0124BE  0100               	movlb	0	; () banked
  6696  0124C0  6FD2               	movwf	(??_executeBuffer+4)& (0+255),b
  6697  0124C2  6BD1               	clrf	(??_executeBuffer+3)& (0+255),b
  6698  0124C4  C088  F0C2         	movff	_nbFramePH,___wmul@multiplier
  6699  0124C8  C089  F0C3         	movff	_nbFramePH+1,___wmul@multiplier+1
  6700  0124CC  0E00               	movlw	0
  6701  0124CE  0100               	movlb	0	; () banked
  6702  0124D0  0100               	movlb	0	; () banked
  6703  0124D2  6FC5               	movwf	(___wmul@multiplicand+1)& (0+255),b
  6704  0124D4  0E1C               	movlw	28
  6705  0124D6  0100               	movlb	0	; () banked
  6706  0124D8  6FC4               	movwf	___wmul@multiplicand& (0+255),b
  6707  0124DA  ECE9  F0A6         	call	___wmul	;wreg free
  6708  0124DE  0E05               	movlw	5
  6709  0124E0  0100               	movlb	0	; () banked
  6710  0124E2  0100               	movlb	0	; () banked
  6711  0124E4  27C2               	addwf	?___wmul& (0+255),f,b
  6712  0124E6  0E00               	movlw	0
  6713  0124E8  0100               	movlb	0	; () banked
  6714  0124EA  23C3               	addwfc	(?___wmul+1)& (0+255),f,b
  6715  0124EC  0E5C               	movlw	low _my_FrameReceived
  6716  0124EE  0100               	movlb	0	; () banked
  6717  0124F0  0100               	movlb	0	; () banked
  6718  0124F2  25C2               	addwf	?___wmul& (0+255),w,b
  6719  0124F4  6ED9               	movwf	fsr2l,c
  6720  0124F6  0E08               	movlw	high _my_FrameReceived
  6721  0124F8  0100               	movlb	0	; () banked
  6722  0124FA  0100               	movlb	0	; () banked
  6723  0124FC  21C3               	addwfc	(?___wmul+1)& (0+255),w,b
  6724  0124FE  6EDA               	movwf	fsr2h,c
  6725  012500  C0D1  FFDE         	movff	??_executeBuffer+3,postinc2
  6726  012504  C0D2  FFDD         	movff	??_executeBuffer+4,postdec2
  6727                           
  6728                           ; BSR set to: 0
  6729                           ;bufferint.c: 275: my_FrameReceived[nbFramePH].receivedDataTimePH += (int)trameToParse[y
      +                          +2] & 0x0FF;
  6730  012508  C088  F0C2         	movff	_nbFramePH,___wmul@multiplier
  6731  01250C  C089  F0C3         	movff	_nbFramePH+1,___wmul@multiplier+1
  6732  012510  0E00               	movlw	0
  6733  012512  0100               	movlb	0	; () banked
  6734  012514  0100               	movlb	0	; () banked
  6735  012516  6FC5               	movwf	(___wmul@multiplicand+1)& (0+255),b
  6736  012518  0E1C               	movlw	28
  6737  01251A  0100               	movlb	0	; () banked
  6738  01251C  6FC4               	movwf	___wmul@multiplicand& (0+255),b
  6739  01251E  ECE9  F0A6         	call	___wmul	;wreg free
  6740  012522  0E05               	movlw	5
  6741  012524  0100               	movlb	0	; () banked
  6742  012526  0100               	movlb	0	; () banked
  6743  012528  27C2               	addwf	?___wmul& (0+255),f,b
  6744  01252A  0E00               	movlw	0
  6745  01252C  0100               	movlb	0	; () banked
  6746  01252E  23C3               	addwfc	(?___wmul+1)& (0+255),f,b
  6747  012530  0E5C               	movlw	low _my_FrameReceived
  6748  012532  0100               	movlb	0	; () banked
  6749  012534  0100               	movlb	0	; () banked
  6750  012536  25C2               	addwf	?___wmul& (0+255),w,b
  6751  012538  6ED9               	movwf	fsr2l,c
  6752  01253A  0E08               	movlw	high _my_FrameReceived
  6753  01253C  0100               	movlb	0	; () banked
  6754  01253E  0100               	movlb	0	; () banked
  6755  012540  21C3               	addwfc	(?___wmul+1)& (0+255),w,b
  6756  012542  6EDA               	movwf	fsr2h,c
  6757  012544  0E02               	movlw	2
  6758  012546  0100               	movlb	0	; () banked
  6759  012548  0100               	movlb	0	; () banked
  6760  01254A  25D5               	addwf	executeBuffer@y& (0+255),w,b
  6761  01254C  0100               	movlb	0	; () banked
  6762  01254E  6FCE               	movwf	??_executeBuffer& (0+255),b
  6763  012550  0E00               	movlw	0
  6764  012552  0100               	movlb	0	; () banked
  6765  012554  0100               	movlb	0	; () banked
  6766  012556  21D6               	addwfc	(executeBuffer@y+1)& (0+255),w,b
  6767  012558  0100               	movlb	0	; () banked
  6768  01255A  6FCF               	movwf	(??_executeBuffer+1)& (0+255),b
  6769  01255C  0101               	movlb	1	; () banked
  6770  01255E  0E9E               	movlw	low _trameToParse
  6771  012560  0100               	movlb	0	; () banked
  6772  012562  25CE               	addwf	??_executeBuffer& (0+255),w,b
  6773  012564  6EE1               	movwf	fsr1l,c
  6774  012566  0101               	movlb	1	; () banked
  6775  012568  0E01               	movlw	high _trameToParse
  6776  01256A  0100               	movlb	0	; () banked
  6777  01256C  21CF               	addwfc	(??_executeBuffer+1)& (0+255),w,b
  6778  01256E  6EE2               	movwf	fsr1h,c
  6779  012570  50E7               	movf	indf1,w,c
  6780  012572  0100               	movlb	0	; () banked
  6781  012574  6FD0               	movwf	(??_executeBuffer+2)& (0+255),b
  6782  012576  0100               	movlb	0	; () banked
  6783  012578  51D0               	movf	(??_executeBuffer+2)& (0+255),w,b
  6784  01257A  26DE               	addwf	postinc2,f,c
  6785  01257C  0E00               	movlw	0
  6786  01257E  22DD               	addwfc	postdec2,f,c
  6787                           
  6788                           ; BSR set to: 0
  6789                           ;bufferint.c: 276: nbFramePH ++;
  6790  012580  0100               	movlb	0	; () banked
  6791  012582  0100               	movlb	0	; () banked
  6792  012584  4B88               	infsnz	_nbFramePH& (0+255),f,b
  6793  012586  2B89               	incf	(_nbFramePH+1)& (0+255),f,b
  6794                           
  6795                           ; BSR set to: 0
  6796                           ;bufferint.c: 277: idReceived = 0;
  6797  012588  0E00               	movlw	0
  6798  01258A  6E2A               	movwf	_idReceived+1,c
  6799  01258C  0E00               	movlw	0
  6800  01258E  6E29               	movwf	_idReceived,c
  6801                           
  6802                           ;bufferint.c: 278: }
  6803  012590  0012               	return	
  6804  012592                     l6888:
  6805                           
  6806                           ; BSR set to: 0
  6807                           ;bufferint.c: 279: else if(idReceived == 0x11)
  6808  012592  5029               	movf	_idReceived,w,c
  6809  012594  0A11               	xorlw	17
  6810  012596  102A               	iorwf	_idReceived+1,w,c
  6811  012598  A4D8               	btfss	status,2,c
  6812  01259A  D122               	goto	l6912
  6813                           
  6814                           ; BSR set to: 0
  6815                           ;bufferint.c: 280: {
  6816                           ;bufferint.c: 281: w=0;
  6817  01259C  0E00               	movlw	0
  6818  01259E  0100               	movlb	0	; () banked
  6819  0125A0  0100               	movlb	0	; () banked
  6820  0125A2  6FD4               	movwf	(executeBuffer@w+1)& (0+255),b
  6821  0125A4  0E00               	movlw	0
  6822  0125A6  0100               	movlb	0	; () banked
  6823  0125A8  6FD3               	movwf	executeBuffer@w& (0+255),b
  6824                           
  6825                           ;bufferint.c: 282: y=0;
  6826  0125AA  0E00               	movlw	0
  6827  0125AC  0100               	movlb	0	; () banked
  6828  0125AE  0100               	movlb	0	; () banked
  6829  0125B0  6FD6               	movwf	(executeBuffer@y+1)& (0+255),b
  6830  0125B2  0E00               	movlw	0
  6831  0125B4  0100               	movlb	0	; () banked
  6832  0125B6  6FD5               	movwf	executeBuffer@y& (0+255),b
  6833                           
  6834                           ;bufferint.c: 283: for(w=0;w<=strlen(trameToParse)-1;w++)
  6835  0125B8  0E00               	movlw	0
  6836  0125BA  0100               	movlb	0	; () banked
  6837  0125BC  0100               	movlb	0	; () banked
  6838  0125BE  6FD4               	movwf	(executeBuffer@w+1)& (0+255),b
  6839  0125C0  0E00               	movlw	0
  6840  0125C2  0100               	movlb	0	; () banked
  6841  0125C4  6FD3               	movwf	executeBuffer@w& (0+255),b
  6842  0125C6  D05E               	goto	l6902
  6843  0125C8                     l6892:
  6844                           
  6845                           ; BSR set to: 0
  6846                           ;bufferint.c: 284: {
  6847                           ;bufferint.c: 285: my_FrameReceived[nbFrameDO].receivedFrameDO[y] = trameToParse[y];
  6848  0125C8  0101               	movlb	1	; () banked
  6849  0125CA  0E9E               	movlw	low _trameToParse
  6850  0125CC  0100               	movlb	0	; () banked
  6851  0125CE  0100               	movlb	0	; () banked
  6852  0125D0  25D5               	addwf	executeBuffer@y& (0+255),w,b
  6853  0125D2  6ED9               	movwf	fsr2l,c
  6854  0125D4  0101               	movlb	1	; () banked
  6855  0125D6  0E01               	movlw	high _trameToParse
  6856  0125D8  0100               	movlb	0	; () banked
  6857  0125DA  0100               	movlb	0	; () banked
  6858  0125DC  21D6               	addwfc	(executeBuffer@y+1)& (0+255),w,b
  6859  0125DE  6EDA               	movwf	fsr2h,c
  6860  0125E0  C084  F0C2         	movff	_nbFrameDO,___wmul@multiplier
  6861  0125E4  C085  F0C3         	movff	_nbFrameDO+1,___wmul@multiplier+1
  6862  0125E8  0E00               	movlw	0
  6863  0125EA  0100               	movlb	0	; () banked
  6864  0125EC  0100               	movlb	0	; () banked
  6865  0125EE  6FC5               	movwf	(___wmul@multiplicand+1)& (0+255),b
  6866  0125F0  0E1C               	movlw	28
  6867  0125F2  0100               	movlb	0	; () banked
  6868  0125F4  6FC4               	movwf	___wmul@multiplicand& (0+255),b
  6869  0125F6  ECE9  F0A6         	call	___wmul	;wreg free
  6870  0125FA  0E07               	movlw	7
  6871  0125FC  0100               	movlb	0	; () banked
  6872  0125FE  0100               	movlb	0	; () banked
  6873  012600  25D5               	addwf	executeBuffer@y& (0+255),w,b
  6874  012602  0100               	movlb	0	; () banked
  6875  012604  6FCE               	movwf	??_executeBuffer& (0+255),b
  6876  012606  0E00               	movlw	0
  6877  012608  0100               	movlb	0	; () banked
  6878  01260A  0100               	movlb	0	; () banked
  6879  01260C  21D6               	addwfc	(executeBuffer@y+1)& (0+255),w,b
  6880  01260E  0100               	movlb	0	; () banked
  6881  012610  6FCF               	movwf	(??_executeBuffer+1)& (0+255),b
  6882  012612  0E5C               	movlw	low _my_FrameReceived
  6883  012614  0100               	movlb	0	; () banked
  6884  012616  6FD0               	movwf	(??_executeBuffer+2)& (0+255),b
  6885  012618  0E08               	movlw	high _my_FrameReceived
  6886  01261A  6FD1               	movwf	(??_executeBuffer+3)& (0+255),b
  6887  01261C  0100               	movlb	0	; () banked
  6888  01261E  51CE               	movf	??_executeBuffer& (0+255),w,b
  6889  012620  0100               	movlb	0	; () banked
  6890  012622  27D0               	addwf	(??_executeBuffer+2)& (0+255),f,b
  6891  012624  0100               	movlb	0	; () banked
  6892  012626  51CF               	movf	(??_executeBuffer+1)& (0+255),w,b
  6893  012628  0100               	movlb	0	; () banked
  6894  01262A  23D1               	addwfc	(??_executeBuffer+3)& (0+255),f,b
  6895  01262C  0100               	movlb	0	; () banked
  6896  01262E  0100               	movlb	0	; () banked
  6897  012630  51C2               	movf	?___wmul& (0+255),w,b
  6898  012632  0100               	movlb	0	; () banked
  6899  012634  25D0               	addwf	(??_executeBuffer+2)& (0+255),w,b
  6900  012636  6EE1               	movwf	fsr1l,c
  6901  012638  0100               	movlb	0	; () banked
  6902  01263A  0100               	movlb	0	; () banked
  6903  01263C  51C3               	movf	(?___wmul+1)& (0+255),w,b
  6904  01263E  0100               	movlb	0	; () banked
  6905  012640  21D1               	addwfc	(??_executeBuffer+3)& (0+255),w,b
  6906  012642  6EE2               	movwf	fsr1h,c
  6907  012644  CFDF FFE7          	movff	indf2,indf1
  6908                           
  6909                           ; BSR set to: 0
  6910                           ;bufferint.c: 286: y++;
  6911  012648  0100               	movlb	0	; () banked
  6912  01264A  0100               	movlb	0	; () banked
  6913  01264C  4BD5               	infsnz	executeBuffer@y& (0+255),f,b
  6914  01264E  2BD6               	incf	(executeBuffer@y+1)& (0+255),f,b
  6915                           
  6916                           ; BSR set to: 0
  6917                           ;bufferint.c: 287: if(trameToParse[y]==';')
  6918  012650  0101               	movlb	1	; () banked
  6919  012652  0E9E               	movlw	low _trameToParse
  6920  012654  0100               	movlb	0	; () banked
  6921  012656  0100               	movlb	0	; () banked
  6922  012658  25D5               	addwf	executeBuffer@y& (0+255),w,b
  6923  01265A  6ED9               	movwf	fsr2l,c
  6924  01265C  0101               	movlb	1	; () banked
  6925  01265E  0E01               	movlw	high _trameToParse
  6926  012660  0100               	movlb	0	; () banked
  6927  012662  0100               	movlb	0	; () banked
  6928  012664  21D6               	addwfc	(executeBuffer@y+1)& (0+255),w,b
  6929  012666  6EDA               	movwf	fsr2h,c
  6930  012668  0E3B               	movlw	59
  6931  01266A  62DF               	cpfseq	indf2,c
  6932  01266C  D007               	goto	l6900
  6933                           
  6934                           ; BSR set to: 0
  6935                           ;bufferint.c: 288: {
  6936                           ;bufferint.c: 289: w=30;
  6937  01266E  0E00               	movlw	0
  6938  012670  0100               	movlb	0	; () banked
  6939  012672  0100               	movlb	0	; () banked
  6940  012674  6FD4               	movwf	(executeBuffer@w+1)& (0+255),b
  6941  012676  0E1E               	movlw	30
  6942  012678  0100               	movlb	0	; () banked
  6943  01267A  6FD3               	movwf	executeBuffer@w& (0+255),b
  6944  01267C                     l6900:
  6945                           
  6946                           ; BSR set to: 0
  6947  01267C  0100               	movlb	0	; () banked
  6948  01267E  0100               	movlb	0	; () banked
  6949  012680  4BD3               	infsnz	executeBuffer@w& (0+255),f,b
  6950  012682  2BD4               	incf	(executeBuffer@w+1)& (0+255),f,b
  6951  012684                     l6902:
  6952                           
  6953                           ; BSR set to: 0
  6954  012684  0EFF               	movlw	255
  6955  012686  0100               	movlb	0	; () banked
  6956  012688  6FCE               	movwf	??_executeBuffer& (0+255),b
  6957  01268A  0EFF               	movlw	255
  6958  01268C  6FCF               	movwf	(??_executeBuffer+1)& (0+255),b
  6959  01268E  0101               	movlb	1	; () banked
  6960  012690  0E01               	movlw	high _trameToParse
  6961  012692  0100               	movlb	0	; () banked
  6962  012694  0100               	movlb	0	; () banked
  6963  012696  6FC9               	movwf	(strlen@s+1)& (0+255),b
  6964  012698  0101               	movlb	1	; () banked
  6965  01269A  0E9E               	movlw	low _trameToParse
  6966  01269C  0100               	movlb	0	; () banked
  6967  01269E  0100               	movlb	0	; () banked
  6968  0126A0  6FC8               	movwf	strlen@s& (0+255),b
  6969  0126A2  ECFF  F0A5         	call	_strlen	;wreg free
  6970  0126A6  0100               	movlb	0	; () banked
  6971  0126A8  51CE               	movf	??_executeBuffer& (0+255),w,b
  6972  0126AA  0100               	movlb	0	; () banked
  6973  0126AC  0100               	movlb	0	; () banked
  6974  0126AE  27C8               	addwf	?_strlen& (0+255),f,b
  6975  0126B0  0100               	movlb	0	; () banked
  6976  0126B2  51CF               	movf	(??_executeBuffer+1)& (0+255),w,b
  6977  0126B4  0100               	movlb	0	; () banked
  6978  0126B6  0100               	movlb	0	; () banked
  6979  0126B8  23C9               	addwfc	(?_strlen+1)& (0+255),f,b
  6980  0126BA  0100               	movlb	0	; () banked
  6981  0126BC  0100               	movlb	0	; () banked
  6982  0126BE  51D3               	movf	executeBuffer@w& (0+255),w,b
  6983  0126C0  0100               	movlb	0	; () banked
  6984  0126C2  0100               	movlb	0	; () banked
  6985  0126C4  5DC8               	subwf	?_strlen& (0+255),w,b
  6986  0126C6  0100               	movlb	0	; () banked
  6987  0126C8  0100               	movlb	0	; () banked
  6988  0126CA  51D4               	movf	(executeBuffer@w+1)& (0+255),w,b
  6989  0126CC  0100               	movlb	0	; () banked
  6990  0126CE  0100               	movlb	0	; () banked
  6991  0126D0  59C9               	subwfb	(?_strlen+1)& (0+255),w,b
  6992  0126D2  B0D8               	btfsc	status,0,c
  6993  0126D4  D779               	goto	l6892
  6994                           
  6995                           ; BSR set to: 0
  6996                           ;bufferint.c: 290: }
  6997                           ;bufferint.c: 291: }
  6998                           ;bufferint.c: 293: my_FrameReceived[nbFrameDO].receivedDataTimeDO = (int)trameToParse[y+
      +                          1] << 8;
  6999                           
  7000                           ; BSR set to: 0
  7001  0126D6  0E01               	movlw	1
  7002  0126D8  0100               	movlb	0	; () banked
  7003  0126DA  0100               	movlb	0	; () banked
  7004  0126DC  25D5               	addwf	executeBuffer@y& (0+255),w,b
  7005  0126DE  0100               	movlb	0	; () banked
  7006  0126E0  6FCE               	movwf	??_executeBuffer& (0+255),b
  7007  0126E2  0E00               	movlw	0
  7008  0126E4  0100               	movlb	0	; () banked
  7009  0126E6  0100               	movlb	0	; () banked
  7010  0126E8  21D6               	addwfc	(executeBuffer@y+1)& (0+255),w,b
  7011  0126EA  0100               	movlb	0	; () banked
  7012  0126EC  6FCF               	movwf	(??_executeBuffer+1)& (0+255),b
  7013  0126EE  0101               	movlb	1	; () banked
  7014  0126F0  0E9E               	movlw	low _trameToParse
  7015  0126F2  0100               	movlb	0	; () banked
  7016  0126F4  25CE               	addwf	??_executeBuffer& (0+255),w,b
  7017  0126F6  6ED9               	movwf	fsr2l,c
  7018  0126F8  0101               	movlb	1	; () banked
  7019  0126FA  0E01               	movlw	high _trameToParse
  7020  0126FC  0100               	movlb	0	; () banked
  7021  0126FE  21CF               	addwfc	(??_executeBuffer+1)& (0+255),w,b
  7022  012700  6EDA               	movwf	fsr2h,c
  7023  012702  50DF               	movf	indf2,w,c
  7024  012704  0100               	movlb	0	; () banked
  7025  012706  6FD0               	movwf	(??_executeBuffer+2)& (0+255),b
  7026  012708  0100               	movlb	0	; () banked
  7027  01270A  51D0               	movf	(??_executeBuffer+2)& (0+255),w,b
  7028  01270C  0100               	movlb	0	; () banked
  7029  01270E  6FD2               	movwf	(??_executeBuffer+4)& (0+255),b
  7030  012710  6BD1               	clrf	(??_executeBuffer+3)& (0+255),b
  7031  012712  C084  F0C2         	movff	_nbFrameDO,___wmul@multiplier
  7032  012716  C085  F0C3         	movff	_nbFrameDO+1,___wmul@multiplier+1
  7033  01271A  0E00               	movlw	0
  7034  01271C  0100               	movlb	0	; () banked
  7035  01271E  0100               	movlb	0	; () banked
  7036  012720  6FC5               	movwf	(___wmul@multiplicand+1)& (0+255),b
  7037  012722  0E1C               	movlw	28
  7038  012724  0100               	movlb	0	; () banked
  7039  012726  6FC4               	movwf	___wmul@multiplicand& (0+255),b
  7040  012728  ECE9  F0A6         	call	___wmul	;wreg free
  7041  01272C  0E0C               	movlw	12
  7042  01272E  0100               	movlb	0	; () banked
  7043  012730  0100               	movlb	0	; () banked
  7044  012732  27C2               	addwf	?___wmul& (0+255),f,b
  7045  012734  0E00               	movlw	0
  7046  012736  0100               	movlb	0	; () banked
  7047  012738  23C3               	addwfc	(?___wmul+1)& (0+255),f,b
  7048  01273A  0E5C               	movlw	low _my_FrameReceived
  7049  01273C  0100               	movlb	0	; () banked
  7050  01273E  0100               	movlb	0	; () banked
  7051  012740  25C2               	addwf	?___wmul& (0+255),w,b
  7052  012742  6ED9               	movwf	fsr2l,c
  7053  012744  0E08               	movlw	high _my_FrameReceived
  7054  012746  0100               	movlb	0	; () banked
  7055  012748  0100               	movlb	0	; () banked
  7056  01274A  21C3               	addwfc	(?___wmul+1)& (0+255),w,b
  7057  01274C  6EDA               	movwf	fsr2h,c
  7058  01274E  C0D1  FFDE         	movff	??_executeBuffer+3,postinc2
  7059  012752  C0D2  FFDD         	movff	??_executeBuffer+4,postdec2
  7060                           
  7061                           ; BSR set to: 0
  7062                           ;bufferint.c: 294: my_FrameReceived[nbFrameDO].receivedDataTimeDO += (int)trameToParse[y
      +                          +2] & 0x0FF;
  7063  012756  C084  F0C2         	movff	_nbFrameDO,___wmul@multiplier
  7064  01275A  C085  F0C3         	movff	_nbFrameDO+1,___wmul@multiplier+1
  7065  01275E  0E00               	movlw	0
  7066  012760  0100               	movlb	0	; () banked
  7067  012762  0100               	movlb	0	; () banked
  7068  012764  6FC5               	movwf	(___wmul@multiplicand+1)& (0+255),b
  7069  012766  0E1C               	movlw	28
  7070  012768  0100               	movlb	0	; () banked
  7071  01276A  6FC4               	movwf	___wmul@multiplicand& (0+255),b
  7072  01276C  ECE9  F0A6         	call	___wmul	;wreg free
  7073  012770  0E0C               	movlw	12
  7074  012772  0100               	movlb	0	; () banked
  7075  012774  0100               	movlb	0	; () banked
  7076  012776  27C2               	addwf	?___wmul& (0+255),f,b
  7077  012778  0E00               	movlw	0
  7078  01277A  0100               	movlb	0	; () banked
  7079  01277C  23C3               	addwfc	(?___wmul+1)& (0+255),f,b
  7080  01277E  0E5C               	movlw	low _my_FrameReceived
  7081  012780  0100               	movlb	0	; () banked
  7082  012782  0100               	movlb	0	; () banked
  7083  012784  25C2               	addwf	?___wmul& (0+255),w,b
  7084  012786  6ED9               	movwf	fsr2l,c
  7085  012788  0E08               	movlw	high _my_FrameReceived
  7086  01278A  0100               	movlb	0	; () banked
  7087  01278C  0100               	movlb	0	; () banked
  7088  01278E  21C3               	addwfc	(?___wmul+1)& (0+255),w,b
  7089  012790  6EDA               	movwf	fsr2h,c
  7090  012792  0E02               	movlw	2
  7091  012794  0100               	movlb	0	; () banked
  7092  012796  0100               	movlb	0	; () banked
  7093  012798  25D5               	addwf	executeBuffer@y& (0+255),w,b
  7094  01279A  0100               	movlb	0	; () banked
  7095  01279C  6FCE               	movwf	??_executeBuffer& (0+255),b
  7096  01279E  0E00               	movlw	0
  7097  0127A0  0100               	movlb	0	; () banked
  7098  0127A2  0100               	movlb	0	; () banked
  7099  0127A4  21D6               	addwfc	(executeBuffer@y+1)& (0+255),w,b
  7100  0127A6  0100               	movlb	0	; () banked
  7101  0127A8  6FCF               	movwf	(??_executeBuffer+1)& (0+255),b
  7102  0127AA  0101               	movlb	1	; () banked
  7103  0127AC  0E9E               	movlw	low _trameToParse
  7104  0127AE  0100               	movlb	0	; () banked
  7105  0127B0  25CE               	addwf	??_executeBuffer& (0+255),w,b
  7106  0127B2  6EE1               	movwf	fsr1l,c
  7107  0127B4  0101               	movlb	1	; () banked
  7108  0127B6  0E01               	movlw	high _trameToParse
  7109  0127B8  0100               	movlb	0	; () banked
  7110  0127BA  21CF               	addwfc	(??_executeBuffer+1)& (0+255),w,b
  7111  0127BC  6EE2               	movwf	fsr1h,c
  7112  0127BE  50E7               	movf	indf1,w,c
  7113  0127C0  0100               	movlb	0	; () banked
  7114  0127C2  6FD0               	movwf	(??_executeBuffer+2)& (0+255),b
  7115  0127C4  0100               	movlb	0	; () banked
  7116  0127C6  51D0               	movf	(??_executeBuffer+2)& (0+255),w,b
  7117  0127C8  26DE               	addwf	postinc2,f,c
  7118  0127CA  0E00               	movlw	0
  7119  0127CC  22DD               	addwfc	postdec2,f,c
  7120                           
  7121                           ; BSR set to: 0
  7122                           ;bufferint.c: 295: nbFrameDO ++;
  7123  0127CE  0100               	movlb	0	; () banked
  7124  0127D0  0100               	movlb	0	; () banked
  7125  0127D2  4B84               	infsnz	_nbFrameDO& (0+255),f,b
  7126  0127D4  2B85               	incf	(_nbFrameDO+1)& (0+255),f,b
  7127                           
  7128                           ; BSR set to: 0
  7129                           ;bufferint.c: 296: idReceived = 0;
  7130  0127D6  0E00               	movlw	0
  7131  0127D8  6E2A               	movwf	_idReceived+1,c
  7132  0127DA  0E00               	movlw	0
  7133  0127DC  6E29               	movwf	_idReceived,c
  7134                           
  7135                           ;bufferint.c: 297: }
  7136  0127DE  0012               	return	
  7137  0127E0                     l6912:
  7138                           
  7139                           ; BSR set to: 0
  7140                           ;bufferint.c: 298: else if(idReceived == 0x12)
  7141  0127E0  5029               	movf	_idReceived,w,c
  7142  0127E2  0A12               	xorlw	18
  7143  0127E4  102A               	iorwf	_idReceived+1,w,c
  7144  0127E6  A4D8               	btfss	status,2,c
  7145  0127E8  D122               	goto	l6936
  7146                           
  7147                           ; BSR set to: 0
  7148                           ;bufferint.c: 299: {
  7149                           ;bufferint.c: 300: w=0;
  7150  0127EA  0E00               	movlw	0
  7151  0127EC  0100               	movlb	0	; () banked
  7152  0127EE  0100               	movlb	0	; () banked
  7153  0127F0  6FD4               	movwf	(executeBuffer@w+1)& (0+255),b
  7154  0127F2  0E00               	movlw	0
  7155  0127F4  0100               	movlb	0	; () banked
  7156  0127F6  6FD3               	movwf	executeBuffer@w& (0+255),b
  7157                           
  7158                           ;bufferint.c: 301: y=0;
  7159  0127F8  0E00               	movlw	0
  7160  0127FA  0100               	movlb	0	; () banked
  7161  0127FC  0100               	movlb	0	; () banked
  7162  0127FE  6FD6               	movwf	(executeBuffer@y+1)& (0+255),b
  7163  012800  0E00               	movlw	0
  7164  012802  0100               	movlb	0	; () banked
  7165  012804  6FD5               	movwf	executeBuffer@y& (0+255),b
  7166                           
  7167                           ;bufferint.c: 302: for(w=0;w<=strlen(trameToParse)-1;w++)
  7168  012806  0E00               	movlw	0
  7169  012808  0100               	movlb	0	; () banked
  7170  01280A  0100               	movlb	0	; () banked
  7171  01280C  6FD4               	movwf	(executeBuffer@w+1)& (0+255),b
  7172  01280E  0E00               	movlw	0
  7173  012810  0100               	movlb	0	; () banked
  7174  012812  6FD3               	movwf	executeBuffer@w& (0+255),b
  7175  012814  D05E               	goto	l6926
  7176  012816                     l6916:
  7177                           
  7178                           ; BSR set to: 0
  7179                           ;bufferint.c: 303: {
  7180                           ;bufferint.c: 304: my_FrameReceived[nbFrameEC].receivedFrameEC[y] = trameToParse[y];
  7181  012816  0101               	movlb	1	; () banked
  7182  012818  0E9E               	movlw	low _trameToParse
  7183  01281A  0100               	movlb	0	; () banked
  7184  01281C  0100               	movlb	0	; () banked
  7185  01281E  25D5               	addwf	executeBuffer@y& (0+255),w,b
  7186  012820  6ED9               	movwf	fsr2l,c
  7187  012822  0101               	movlb	1	; () banked
  7188  012824  0E01               	movlw	high _trameToParse
  7189  012826  0100               	movlb	0	; () banked
  7190  012828  0100               	movlb	0	; () banked
  7191  01282A  21D6               	addwfc	(executeBuffer@y+1)& (0+255),w,b
  7192  01282C  6EDA               	movwf	fsr2h,c
  7193  01282E  C086  F0C2         	movff	_nbFrameEC,___wmul@multiplier
  7194  012832  C087  F0C3         	movff	_nbFrameEC+1,___wmul@multiplier+1
  7195  012836  0E00               	movlw	0
  7196  012838  0100               	movlb	0	; () banked
  7197  01283A  0100               	movlb	0	; () banked
  7198  01283C  6FC5               	movwf	(___wmul@multiplicand+1)& (0+255),b
  7199  01283E  0E1C               	movlw	28
  7200  012840  0100               	movlb	0	; () banked
  7201  012842  6FC4               	movwf	___wmul@multiplicand& (0+255),b
  7202  012844  ECE9  F0A6         	call	___wmul	;wreg free
  7203  012848  0E0E               	movlw	14
  7204  01284A  0100               	movlb	0	; () banked
  7205  01284C  0100               	movlb	0	; () banked
  7206  01284E  25D5               	addwf	executeBuffer@y& (0+255),w,b
  7207  012850  0100               	movlb	0	; () banked
  7208  012852  6FCE               	movwf	??_executeBuffer& (0+255),b
  7209  012854  0E00               	movlw	0
  7210  012856  0100               	movlb	0	; () banked
  7211  012858  0100               	movlb	0	; () banked
  7212  01285A  21D6               	addwfc	(executeBuffer@y+1)& (0+255),w,b
  7213  01285C  0100               	movlb	0	; () banked
  7214  01285E  6FCF               	movwf	(??_executeBuffer+1)& (0+255),b
  7215  012860  0E5C               	movlw	low _my_FrameReceived
  7216  012862  0100               	movlb	0	; () banked
  7217  012864  6FD0               	movwf	(??_executeBuffer+2)& (0+255),b
  7218  012866  0E08               	movlw	high _my_FrameReceived
  7219  012868  6FD1               	movwf	(??_executeBuffer+3)& (0+255),b
  7220  01286A  0100               	movlb	0	; () banked
  7221  01286C  51CE               	movf	??_executeBuffer& (0+255),w,b
  7222  01286E  0100               	movlb	0	; () banked
  7223  012870  27D0               	addwf	(??_executeBuffer+2)& (0+255),f,b
  7224  012872  0100               	movlb	0	; () banked
  7225  012874  51CF               	movf	(??_executeBuffer+1)& (0+255),w,b
  7226  012876  0100               	movlb	0	; () banked
  7227  012878  23D1               	addwfc	(??_executeBuffer+3)& (0+255),f,b
  7228  01287A  0100               	movlb	0	; () banked
  7229  01287C  0100               	movlb	0	; () banked
  7230  01287E  51C2               	movf	?___wmul& (0+255),w,b
  7231  012880  0100               	movlb	0	; () banked
  7232  012882  25D0               	addwf	(??_executeBuffer+2)& (0+255),w,b
  7233  012884  6EE1               	movwf	fsr1l,c
  7234  012886  0100               	movlb	0	; () banked
  7235  012888  0100               	movlb	0	; () banked
  7236  01288A  51C3               	movf	(?___wmul+1)& (0+255),w,b
  7237  01288C  0100               	movlb	0	; () banked
  7238  01288E  21D1               	addwfc	(??_executeBuffer+3)& (0+255),w,b
  7239  012890  6EE2               	movwf	fsr1h,c
  7240  012892  CFDF FFE7          	movff	indf2,indf1
  7241                           
  7242                           ; BSR set to: 0
  7243                           ;bufferint.c: 305: y++;
  7244  012896  0100               	movlb	0	; () banked
  7245  012898  0100               	movlb	0	; () banked
  7246  01289A  4BD5               	infsnz	executeBuffer@y& (0+255),f,b
  7247  01289C  2BD6               	incf	(executeBuffer@y+1)& (0+255),f,b
  7248                           
  7249                           ; BSR set to: 0
  7250                           ;bufferint.c: 306: if(trameToParse[y]==';')
  7251  01289E  0101               	movlb	1	; () banked
  7252  0128A0  0E9E               	movlw	low _trameToParse
  7253  0128A2  0100               	movlb	0	; () banked
  7254  0128A4  0100               	movlb	0	; () banked
  7255  0128A6  25D5               	addwf	executeBuffer@y& (0+255),w,b
  7256  0128A8  6ED9               	movwf	fsr2l,c
  7257  0128AA  0101               	movlb	1	; () banked
  7258  0128AC  0E01               	movlw	high _trameToParse
  7259  0128AE  0100               	movlb	0	; () banked
  7260  0128B0  0100               	movlb	0	; () banked
  7261  0128B2  21D6               	addwfc	(executeBuffer@y+1)& (0+255),w,b
  7262  0128B4  6EDA               	movwf	fsr2h,c
  7263  0128B6  0E3B               	movlw	59
  7264  0128B8  62DF               	cpfseq	indf2,c
  7265  0128BA  D007               	goto	l6924
  7266                           
  7267                           ; BSR set to: 0
  7268                           ;bufferint.c: 307: {
  7269                           ;bufferint.c: 308: w=30;
  7270  0128BC  0E00               	movlw	0
  7271  0128BE  0100               	movlb	0	; () banked
  7272  0128C0  0100               	movlb	0	; () banked
  7273  0128C2  6FD4               	movwf	(executeBuffer@w+1)& (0+255),b
  7274  0128C4  0E1E               	movlw	30
  7275  0128C6  0100               	movlb	0	; () banked
  7276  0128C8  6FD3               	movwf	executeBuffer@w& (0+255),b
  7277  0128CA                     l6924:
  7278                           
  7279                           ; BSR set to: 0
  7280  0128CA  0100               	movlb	0	; () banked
  7281  0128CC  0100               	movlb	0	; () banked
  7282  0128CE  4BD3               	infsnz	executeBuffer@w& (0+255),f,b
  7283  0128D0  2BD4               	incf	(executeBuffer@w+1)& (0+255),f,b
  7284  0128D2                     l6926:
  7285                           
  7286                           ; BSR set to: 0
  7287  0128D2  0EFF               	movlw	255
  7288  0128D4  0100               	movlb	0	; () banked
  7289  0128D6  6FCE               	movwf	??_executeBuffer& (0+255),b
  7290  0128D8  0EFF               	movlw	255
  7291  0128DA  6FCF               	movwf	(??_executeBuffer+1)& (0+255),b
  7292  0128DC  0101               	movlb	1	; () banked
  7293  0128DE  0E01               	movlw	high _trameToParse
  7294  0128E0  0100               	movlb	0	; () banked
  7295  0128E2  0100               	movlb	0	; () banked
  7296  0128E4  6FC9               	movwf	(strlen@s+1)& (0+255),b
  7297  0128E6  0101               	movlb	1	; () banked
  7298  0128E8  0E9E               	movlw	low _trameToParse
  7299  0128EA  0100               	movlb	0	; () banked
  7300  0128EC  0100               	movlb	0	; () banked
  7301  0128EE  6FC8               	movwf	strlen@s& (0+255),b
  7302  0128F0  ECFF  F0A5         	call	_strlen	;wreg free
  7303  0128F4  0100               	movlb	0	; () banked
  7304  0128F6  51CE               	movf	??_executeBuffer& (0+255),w,b
  7305  0128F8  0100               	movlb	0	; () banked
  7306  0128FA  0100               	movlb	0	; () banked
  7307  0128FC  27C8               	addwf	?_strlen& (0+255),f,b
  7308  0128FE  0100               	movlb	0	; () banked
  7309  012900  51CF               	movf	(??_executeBuffer+1)& (0+255),w,b
  7310  012902  0100               	movlb	0	; () banked
  7311  012904  0100               	movlb	0	; () banked
  7312  012906  23C9               	addwfc	(?_strlen+1)& (0+255),f,b
  7313  012908  0100               	movlb	0	; () banked
  7314  01290A  0100               	movlb	0	; () banked
  7315  01290C  51D3               	movf	executeBuffer@w& (0+255),w,b
  7316  01290E  0100               	movlb	0	; () banked
  7317  012910  0100               	movlb	0	; () banked
  7318  012912  5DC8               	subwf	?_strlen& (0+255),w,b
  7319  012914  0100               	movlb	0	; () banked
  7320  012916  0100               	movlb	0	; () banked
  7321  012918  51D4               	movf	(executeBuffer@w+1)& (0+255),w,b
  7322  01291A  0100               	movlb	0	; () banked
  7323  01291C  0100               	movlb	0	; () banked
  7324  01291E  59C9               	subwfb	(?_strlen+1)& (0+255),w,b
  7325  012920  B0D8               	btfsc	status,0,c
  7326  012922  D779               	goto	l6916
  7327                           
  7328                           ; BSR set to: 0
  7329                           ;bufferint.c: 309: }
  7330                           ;bufferint.c: 310: }
  7331                           ;bufferint.c: 311: my_FrameReceived[nbFrameEC].receivedDataTimeEC = (int)trameToParse[y+
      +                          1] << 8;
  7332                           
  7333                           ; BSR set to: 0
  7334  012924  0E01               	movlw	1
  7335  012926  0100               	movlb	0	; () banked
  7336  012928  0100               	movlb	0	; () banked
  7337  01292A  25D5               	addwf	executeBuffer@y& (0+255),w,b
  7338  01292C  0100               	movlb	0	; () banked
  7339  01292E  6FCE               	movwf	??_executeBuffer& (0+255),b
  7340  012930  0E00               	movlw	0
  7341  012932  0100               	movlb	0	; () banked
  7342  012934  0100               	movlb	0	; () banked
  7343  012936  21D6               	addwfc	(executeBuffer@y+1)& (0+255),w,b
  7344  012938  0100               	movlb	0	; () banked
  7345  01293A  6FCF               	movwf	(??_executeBuffer+1)& (0+255),b
  7346  01293C  0101               	movlb	1	; () banked
  7347  01293E  0E9E               	movlw	low _trameToParse
  7348  012940  0100               	movlb	0	; () banked
  7349  012942  25CE               	addwf	??_executeBuffer& (0+255),w,b
  7350  012944  6ED9               	movwf	fsr2l,c
  7351  012946  0101               	movlb	1	; () banked
  7352  012948  0E01               	movlw	high _trameToParse
  7353  01294A  0100               	movlb	0	; () banked
  7354  01294C  21CF               	addwfc	(??_executeBuffer+1)& (0+255),w,b
  7355  01294E  6EDA               	movwf	fsr2h,c
  7356  012950  50DF               	movf	indf2,w,c
  7357  012952  0100               	movlb	0	; () banked
  7358  012954  6FD0               	movwf	(??_executeBuffer+2)& (0+255),b
  7359  012956  0100               	movlb	0	; () banked
  7360  012958  51D0               	movf	(??_executeBuffer+2)& (0+255),w,b
  7361  01295A  0100               	movlb	0	; () banked
  7362  01295C  6FD2               	movwf	(??_executeBuffer+4)& (0+255),b
  7363  01295E  6BD1               	clrf	(??_executeBuffer+3)& (0+255),b
  7364  012960  C086  F0C2         	movff	_nbFrameEC,___wmul@multiplier
  7365  012964  C087  F0C3         	movff	_nbFrameEC+1,___wmul@multiplier+1
  7366  012968  0E00               	movlw	0
  7367  01296A  0100               	movlb	0	; () banked
  7368  01296C  0100               	movlb	0	; () banked
  7369  01296E  6FC5               	movwf	(___wmul@multiplicand+1)& (0+255),b
  7370  012970  0E1C               	movlw	28
  7371  012972  0100               	movlb	0	; () banked
  7372  012974  6FC4               	movwf	___wmul@multiplicand& (0+255),b
  7373  012976  ECE9  F0A6         	call	___wmul	;wreg free
  7374  01297A  0E13               	movlw	19
  7375  01297C  0100               	movlb	0	; () banked
  7376  01297E  0100               	movlb	0	; () banked
  7377  012980  27C2               	addwf	?___wmul& (0+255),f,b
  7378  012982  0E00               	movlw	0
  7379  012984  0100               	movlb	0	; () banked
  7380  012986  23C3               	addwfc	(?___wmul+1)& (0+255),f,b
  7381  012988  0E5C               	movlw	low _my_FrameReceived
  7382  01298A  0100               	movlb	0	; () banked
  7383  01298C  0100               	movlb	0	; () banked
  7384  01298E  25C2               	addwf	?___wmul& (0+255),w,b
  7385  012990  6ED9               	movwf	fsr2l,c
  7386  012992  0E08               	movlw	high _my_FrameReceived
  7387  012994  0100               	movlb	0	; () banked
  7388  012996  0100               	movlb	0	; () banked
  7389  012998  21C3               	addwfc	(?___wmul+1)& (0+255),w,b
  7390  01299A  6EDA               	movwf	fsr2h,c
  7391  01299C  C0D1  FFDE         	movff	??_executeBuffer+3,postinc2
  7392  0129A0  C0D2  FFDD         	movff	??_executeBuffer+4,postdec2
  7393                           
  7394                           ; BSR set to: 0
  7395                           ;bufferint.c: 312: my_FrameReceived[nbFrameEC].receivedDataTimeEC += (int)trameToParse[y
      +                          +2] & 0x0FF;
  7396  0129A4  C086  F0C2         	movff	_nbFrameEC,___wmul@multiplier
  7397  0129A8  C087  F0C3         	movff	_nbFrameEC+1,___wmul@multiplier+1
  7398  0129AC  0E00               	movlw	0
  7399  0129AE  0100               	movlb	0	; () banked
  7400  0129B0  0100               	movlb	0	; () banked
  7401  0129B2  6FC5               	movwf	(___wmul@multiplicand+1)& (0+255),b
  7402  0129B4  0E1C               	movlw	28
  7403  0129B6  0100               	movlb	0	; () banked
  7404  0129B8  6FC4               	movwf	___wmul@multiplicand& (0+255),b
  7405  0129BA  ECE9  F0A6         	call	___wmul	;wreg free
  7406  0129BE  0E13               	movlw	19
  7407  0129C0  0100               	movlb	0	; () banked
  7408  0129C2  0100               	movlb	0	; () banked
  7409  0129C4  27C2               	addwf	?___wmul& (0+255),f,b
  7410  0129C6  0E00               	movlw	0
  7411  0129C8  0100               	movlb	0	; () banked
  7412  0129CA  23C3               	addwfc	(?___wmul+1)& (0+255),f,b
  7413  0129CC  0E5C               	movlw	low _my_FrameReceived
  7414  0129CE  0100               	movlb	0	; () banked
  7415  0129D0  0100               	movlb	0	; () banked
  7416  0129D2  25C2               	addwf	?___wmul& (0+255),w,b
  7417  0129D4  6ED9               	movwf	fsr2l,c
  7418  0129D6  0E08               	movlw	high _my_FrameReceived
  7419  0129D8  0100               	movlb	0	; () banked
  7420  0129DA  0100               	movlb	0	; () banked
  7421  0129DC  21C3               	addwfc	(?___wmul+1)& (0+255),w,b
  7422  0129DE  6EDA               	movwf	fsr2h,c
  7423  0129E0  0E02               	movlw	2
  7424  0129E2  0100               	movlb	0	; () banked
  7425  0129E4  0100               	movlb	0	; () banked
  7426  0129E6  25D5               	addwf	executeBuffer@y& (0+255),w,b
  7427  0129E8  0100               	movlb	0	; () banked
  7428  0129EA  6FCE               	movwf	??_executeBuffer& (0+255),b
  7429  0129EC  0E00               	movlw	0
  7430  0129EE  0100               	movlb	0	; () banked
  7431  0129F0  0100               	movlb	0	; () banked
  7432  0129F2  21D6               	addwfc	(executeBuffer@y+1)& (0+255),w,b
  7433  0129F4  0100               	movlb	0	; () banked
  7434  0129F6  6FCF               	movwf	(??_executeBuffer+1)& (0+255),b
  7435  0129F8  0101               	movlb	1	; () banked
  7436  0129FA  0E9E               	movlw	low _trameToParse
  7437  0129FC  0100               	movlb	0	; () banked
  7438  0129FE  25CE               	addwf	??_executeBuffer& (0+255),w,b
  7439  012A00  6EE1               	movwf	fsr1l,c
  7440  012A02  0101               	movlb	1	; () banked
  7441  012A04  0E01               	movlw	high _trameToParse
  7442  012A06  0100               	movlb	0	; () banked
  7443  012A08  21CF               	addwfc	(??_executeBuffer+1)& (0+255),w,b
  7444  012A0A  6EE2               	movwf	fsr1h,c
  7445  012A0C  50E7               	movf	indf1,w,c
  7446  012A0E  0100               	movlb	0	; () banked
  7447  012A10  6FD0               	movwf	(??_executeBuffer+2)& (0+255),b
  7448  012A12  0100               	movlb	0	; () banked
  7449  012A14  51D0               	movf	(??_executeBuffer+2)& (0+255),w,b
  7450  012A16  26DE               	addwf	postinc2,f,c
  7451  012A18  0E00               	movlw	0
  7452  012A1A  22DD               	addwfc	postdec2,f,c
  7453                           
  7454                           ; BSR set to: 0
  7455                           ;bufferint.c: 313: nbFrameEC ++;
  7456  012A1C  0100               	movlb	0	; () banked
  7457  012A1E  0100               	movlb	0	; () banked
  7458  012A20  4B86               	infsnz	_nbFrameEC& (0+255),f,b
  7459  012A22  2B87               	incf	(_nbFrameEC+1)& (0+255),f,b
  7460                           
  7461                           ; BSR set to: 0
  7462                           ;bufferint.c: 314: idReceived = 0;
  7463  012A24  0E00               	movlw	0
  7464  012A26  6E2A               	movwf	_idReceived+1,c
  7465  012A28  0E00               	movlw	0
  7466  012A2A  6E29               	movwf	_idReceived,c
  7467                           
  7468                           ;bufferint.c: 315: }
  7469  012A2C  0012               	return	
  7470  012A2E                     l6936:
  7471                           
  7472                           ; BSR set to: 0
  7473                           ;bufferint.c: 316: else if(idReceived == 0x13)
  7474  012A2E  5029               	movf	_idReceived,w,c
  7475  012A30  0A13               	xorlw	19
  7476  012A32  102A               	iorwf	_idReceived+1,w,c
  7477  012A34  A4D8               	btfss	status,2,c
  7478  012A36  D11A               	goto	l6960
  7479                           
  7480                           ; BSR set to: 0
  7481                           ;bufferint.c: 317: {
  7482                           ;bufferint.c: 318: w=0;
  7483  012A38  0E00               	movlw	0
  7484  012A3A  0100               	movlb	0	; () banked
  7485  012A3C  0100               	movlb	0	; () banked
  7486  012A3E  6FD4               	movwf	(executeBuffer@w+1)& (0+255),b
  7487  012A40  0E00               	movlw	0
  7488  012A42  0100               	movlb	0	; () banked
  7489  012A44  6FD3               	movwf	executeBuffer@w& (0+255),b
  7490                           
  7491                           ;bufferint.c: 319: y=0;
  7492  012A46  0E00               	movlw	0
  7493  012A48  0100               	movlb	0	; () banked
  7494  012A4A  0100               	movlb	0	; () banked
  7495  012A4C  6FD6               	movwf	(executeBuffer@y+1)& (0+255),b
  7496  012A4E  0E00               	movlw	0
  7497  012A50  0100               	movlb	0	; () banked
  7498  012A52  6FD5               	movwf	executeBuffer@y& (0+255),b
  7499                           
  7500                           ;bufferint.c: 320: for(w=0;w<=strlen(trameToParse)+2;w++)
  7501  012A54  0E00               	movlw	0
  7502  012A56  0100               	movlb	0	; () banked
  7503  012A58  0100               	movlb	0	; () banked
  7504  012A5A  6FD4               	movwf	(executeBuffer@w+1)& (0+255),b
  7505  012A5C  0E00               	movlw	0
  7506  012A5E  0100               	movlb	0	; () banked
  7507  012A60  6FD3               	movwf	executeBuffer@w& (0+255),b
  7508  012A62  D05E               	goto	l6950
  7509  012A64                     l6940:
  7510                           
  7511                           ; BSR set to: 0
  7512                           ;bufferint.c: 321: {
  7513                           ;bufferint.c: 322: my_FrameReceived[nbFrameTDS].receivedFrameTDS[y] = trameToParse[y];
  7514  012A64  0101               	movlb	1	; () banked
  7515  012A66  0E9E               	movlw	low _trameToParse
  7516  012A68  0100               	movlb	0	; () banked
  7517  012A6A  0100               	movlb	0	; () banked
  7518  012A6C  25D5               	addwf	executeBuffer@y& (0+255),w,b
  7519  012A6E  6ED9               	movwf	fsr2l,c
  7520  012A70  0101               	movlb	1	; () banked
  7521  012A72  0E01               	movlw	high _trameToParse
  7522  012A74  0100               	movlb	0	; () banked
  7523  012A76  0100               	movlb	0	; () banked
  7524  012A78  21D6               	addwfc	(executeBuffer@y+1)& (0+255),w,b
  7525  012A7A  6EDA               	movwf	fsr2h,c
  7526  012A7C  C08A  F0C2         	movff	_nbFrameTDS,___wmul@multiplier
  7527  012A80  C08B  F0C3         	movff	_nbFrameTDS+1,___wmul@multiplier+1
  7528  012A84  0E00               	movlw	0
  7529  012A86  0100               	movlb	0	; () banked
  7530  012A88  0100               	movlb	0	; () banked
  7531  012A8A  6FC5               	movwf	(___wmul@multiplicand+1)& (0+255),b
  7532  012A8C  0E1C               	movlw	28
  7533  012A8E  0100               	movlb	0	; () banked
  7534  012A90  6FC4               	movwf	___wmul@multiplicand& (0+255),b
  7535  012A92  ECE9  F0A6         	call	___wmul	;wreg free
  7536  012A96  0E15               	movlw	21
  7537  012A98  0100               	movlb	0	; () banked
  7538  012A9A  0100               	movlb	0	; () banked
  7539  012A9C  25D5               	addwf	executeBuffer@y& (0+255),w,b
  7540  012A9E  0100               	movlb	0	; () banked
  7541  012AA0  6FCE               	movwf	??_executeBuffer& (0+255),b
  7542  012AA2  0E00               	movlw	0
  7543  012AA4  0100               	movlb	0	; () banked
  7544  012AA6  0100               	movlb	0	; () banked
  7545  012AA8  21D6               	addwfc	(executeBuffer@y+1)& (0+255),w,b
  7546  012AAA  0100               	movlb	0	; () banked
  7547  012AAC  6FCF               	movwf	(??_executeBuffer+1)& (0+255),b
  7548  012AAE  0E5C               	movlw	low _my_FrameReceived
  7549  012AB0  0100               	movlb	0	; () banked
  7550  012AB2  6FD0               	movwf	(??_executeBuffer+2)& (0+255),b
  7551  012AB4  0E08               	movlw	high _my_FrameReceived
  7552  012AB6  6FD1               	movwf	(??_executeBuffer+3)& (0+255),b
  7553  012AB8  0100               	movlb	0	; () banked
  7554  012ABA  51CE               	movf	??_executeBuffer& (0+255),w,b
  7555  012ABC  0100               	movlb	0	; () banked
  7556  012ABE  27D0               	addwf	(??_executeBuffer+2)& (0+255),f,b
  7557  012AC0  0100               	movlb	0	; () banked
  7558  012AC2  51CF               	movf	(??_executeBuffer+1)& (0+255),w,b
  7559  012AC4  0100               	movlb	0	; () banked
  7560  012AC6  23D1               	addwfc	(??_executeBuffer+3)& (0+255),f,b
  7561  012AC8  0100               	movlb	0	; () banked
  7562  012ACA  0100               	movlb	0	; () banked
  7563  012ACC  51C2               	movf	?___wmul& (0+255),w,b
  7564  012ACE  0100               	movlb	0	; () banked
  7565  012AD0  25D0               	addwf	(??_executeBuffer+2)& (0+255),w,b
  7566  012AD2  6EE1               	movwf	fsr1l,c
  7567  012AD4  0100               	movlb	0	; () banked
  7568  012AD6  0100               	movlb	0	; () banked
  7569  012AD8  51C3               	movf	(?___wmul+1)& (0+255),w,b
  7570  012ADA  0100               	movlb	0	; () banked
  7571  012ADC  21D1               	addwfc	(??_executeBuffer+3)& (0+255),w,b
  7572  012ADE  6EE2               	movwf	fsr1h,c
  7573  012AE0  CFDF FFE7          	movff	indf2,indf1
  7574                           
  7575                           ; BSR set to: 0
  7576                           ;bufferint.c: 323: y++;
  7577  012AE4  0100               	movlb	0	; () banked
  7578  012AE6  0100               	movlb	0	; () banked
  7579  012AE8  4BD5               	infsnz	executeBuffer@y& (0+255),f,b
  7580  012AEA  2BD6               	incf	(executeBuffer@y+1)& (0+255),f,b
  7581                           
  7582                           ; BSR set to: 0
  7583                           ;bufferint.c: 324: if(trameToParse[y]==';')
  7584  012AEC  0101               	movlb	1	; () banked
  7585  012AEE  0E9E               	movlw	low _trameToParse
  7586  012AF0  0100               	movlb	0	; () banked
  7587  012AF2  0100               	movlb	0	; () banked
  7588  012AF4  25D5               	addwf	executeBuffer@y& (0+255),w,b
  7589  012AF6  6ED9               	movwf	fsr2l,c
  7590  012AF8  0101               	movlb	1	; () banked
  7591  012AFA  0E01               	movlw	high _trameToParse
  7592  012AFC  0100               	movlb	0	; () banked
  7593  012AFE  0100               	movlb	0	; () banked
  7594  012B00  21D6               	addwfc	(executeBuffer@y+1)& (0+255),w,b
  7595  012B02  6EDA               	movwf	fsr2h,c
  7596  012B04  0E3B               	movlw	59
  7597  012B06  62DF               	cpfseq	indf2,c
  7598  012B08  D007               	goto	l6948
  7599                           
  7600                           ; BSR set to: 0
  7601                           ;bufferint.c: 325: {
  7602                           ;bufferint.c: 326: w=30;
  7603  012B0A  0E00               	movlw	0
  7604  012B0C  0100               	movlb	0	; () banked
  7605  012B0E  0100               	movlb	0	; () banked
  7606  012B10  6FD4               	movwf	(executeBuffer@w+1)& (0+255),b
  7607  012B12  0E1E               	movlw	30
  7608  012B14  0100               	movlb	0	; () banked
  7609  012B16  6FD3               	movwf	executeBuffer@w& (0+255),b
  7610  012B18                     l6948:
  7611                           
  7612                           ; BSR set to: 0
  7613  012B18  0100               	movlb	0	; () banked
  7614  012B1A  0100               	movlb	0	; () banked
  7615  012B1C  4BD3               	infsnz	executeBuffer@w& (0+255),f,b
  7616  012B1E  2BD4               	incf	(executeBuffer@w+1)& (0+255),f,b
  7617  012B20                     l6950:
  7618                           
  7619                           ; BSR set to: 0
  7620  012B20  0101               	movlb	1	; () banked
  7621  012B22  0E01               	movlw	high _trameToParse
  7622  012B24  0100               	movlb	0	; () banked
  7623  012B26  0100               	movlb	0	; () banked
  7624  012B28  6FC9               	movwf	(strlen@s+1)& (0+255),b
  7625  012B2A  0101               	movlb	1	; () banked
  7626  012B2C  0E9E               	movlw	low _trameToParse
  7627  012B2E  0100               	movlb	0	; () banked
  7628  012B30  0100               	movlb	0	; () banked
  7629  012B32  6FC8               	movwf	strlen@s& (0+255),b
  7630  012B34  ECFF  F0A5         	call	_strlen	;wreg free
  7631  012B38  0E02               	movlw	2
  7632  012B3A  0100               	movlb	0	; () banked
  7633  012B3C  0100               	movlb	0	; () banked
  7634  012B3E  27C8               	addwf	?_strlen& (0+255),f,b
  7635  012B40  0E00               	movlw	0
  7636  012B42  0100               	movlb	0	; () banked
  7637  012B44  23C9               	addwfc	(?_strlen+1)& (0+255),f,b
  7638  012B46  0100               	movlb	0	; () banked
  7639  012B48  0100               	movlb	0	; () banked
  7640  012B4A  51D3               	movf	executeBuffer@w& (0+255),w,b
  7641  012B4C  0100               	movlb	0	; () banked
  7642  012B4E  0100               	movlb	0	; () banked
  7643  012B50  5DC8               	subwf	?_strlen& (0+255),w,b
  7644  012B52  0100               	movlb	0	; () banked
  7645  012B54  0100               	movlb	0	; () banked
  7646  012B56  51D4               	movf	(executeBuffer@w+1)& (0+255),w,b
  7647  012B58  0100               	movlb	0	; () banked
  7648  012B5A  0100               	movlb	0	; () banked
  7649  012B5C  59C9               	subwfb	(?_strlen+1)& (0+255),w,b
  7650  012B5E  B0D8               	btfsc	status,0,c
  7651  012B60  D781               	goto	l6940
  7652                           
  7653                           ; BSR set to: 0
  7654                           ;bufferint.c: 327: }
  7655                           ;bufferint.c: 328: }
  7656                           ;bufferint.c: 329: my_FrameReceived[nbFrameTDS].receivedDataTimeTDS = (int)trameToParse[
      +                          y+1] << 8;
  7657                           
  7658                           ; BSR set to: 0
  7659  012B62  0E01               	movlw	1
  7660  012B64  0100               	movlb	0	; () banked
  7661  012B66  0100               	movlb	0	; () banked
  7662  012B68  25D5               	addwf	executeBuffer@y& (0+255),w,b
  7663  012B6A  0100               	movlb	0	; () banked
  7664  012B6C  6FCE               	movwf	??_executeBuffer& (0+255),b
  7665  012B6E  0E00               	movlw	0
  7666  012B70  0100               	movlb	0	; () banked
  7667  012B72  0100               	movlb	0	; () banked
  7668  012B74  21D6               	addwfc	(executeBuffer@y+1)& (0+255),w,b
  7669  012B76  0100               	movlb	0	; () banked
  7670  012B78  6FCF               	movwf	(??_executeBuffer+1)& (0+255),b
  7671  012B7A  0101               	movlb	1	; () banked
  7672  012B7C  0E9E               	movlw	low _trameToParse
  7673  012B7E  0100               	movlb	0	; () banked
  7674  012B80  25CE               	addwf	??_executeBuffer& (0+255),w,b
  7675  012B82  6ED9               	movwf	fsr2l,c
  7676  012B84  0101               	movlb	1	; () banked
  7677  012B86  0E01               	movlw	high _trameToParse
  7678  012B88  0100               	movlb	0	; () banked
  7679  012B8A  21CF               	addwfc	(??_executeBuffer+1)& (0+255),w,b
  7680  012B8C  6EDA               	movwf	fsr2h,c
  7681  012B8E  50DF               	movf	indf2,w,c
  7682  012B90  0100               	movlb	0	; () banked
  7683  012B92  6FD0               	movwf	(??_executeBuffer+2)& (0+255),b
  7684  012B94  0100               	movlb	0	; () banked
  7685  012B96  51D0               	movf	(??_executeBuffer+2)& (0+255),w,b
  7686  012B98  0100               	movlb	0	; () banked
  7687  012B9A  6FD2               	movwf	(??_executeBuffer+4)& (0+255),b
  7688  012B9C  6BD1               	clrf	(??_executeBuffer+3)& (0+255),b
  7689  012B9E  C08A  F0C2         	movff	_nbFrameTDS,___wmul@multiplier
  7690  012BA2  C08B  F0C3         	movff	_nbFrameTDS+1,___wmul@multiplier+1
  7691  012BA6  0E00               	movlw	0
  7692  012BA8  0100               	movlb	0	; () banked
  7693  012BAA  0100               	movlb	0	; () banked
  7694  012BAC  6FC5               	movwf	(___wmul@multiplicand+1)& (0+255),b
  7695  012BAE  0E1C               	movlw	28
  7696  012BB0  0100               	movlb	0	; () banked
  7697  012BB2  6FC4               	movwf	___wmul@multiplicand& (0+255),b
  7698  012BB4  ECE9  F0A6         	call	___wmul	;wreg free
  7699  012BB8  0E1A               	movlw	26
  7700  012BBA  0100               	movlb	0	; () banked
  7701  012BBC  0100               	movlb	0	; () banked
  7702  012BBE  27C2               	addwf	?___wmul& (0+255),f,b
  7703  012BC0  0E00               	movlw	0
  7704  012BC2  0100               	movlb	0	; () banked
  7705  012BC4  23C3               	addwfc	(?___wmul+1)& (0+255),f,b
  7706  012BC6  0E5C               	movlw	low _my_FrameReceived
  7707  012BC8  0100               	movlb	0	; () banked
  7708  012BCA  0100               	movlb	0	; () banked
  7709  012BCC  25C2               	addwf	?___wmul& (0+255),w,b
  7710  012BCE  6ED9               	movwf	fsr2l,c
  7711  012BD0  0E08               	movlw	high _my_FrameReceived
  7712  012BD2  0100               	movlb	0	; () banked
  7713  012BD4  0100               	movlb	0	; () banked
  7714  012BD6  21C3               	addwfc	(?___wmul+1)& (0+255),w,b
  7715  012BD8  6EDA               	movwf	fsr2h,c
  7716  012BDA  C0D1  FFDE         	movff	??_executeBuffer+3,postinc2
  7717  012BDE  C0D2  FFDD         	movff	??_executeBuffer+4,postdec2
  7718                           
  7719                           ; BSR set to: 0
  7720                           ;bufferint.c: 330: my_FrameReceived[nbFrameTDS].receivedDataTimeTDS+= (int)trameToParse[
      +                          y+2] & 0x0FF;
  7721  012BE2  C08A  F0C2         	movff	_nbFrameTDS,___wmul@multiplier
  7722  012BE6  C08B  F0C3         	movff	_nbFrameTDS+1,___wmul@multiplier+1
  7723  012BEA  0E00               	movlw	0
  7724  012BEC  0100               	movlb	0	; () banked
  7725  012BEE  0100               	movlb	0	; () banked
  7726  012BF0  6FC5               	movwf	(___wmul@multiplicand+1)& (0+255),b
  7727  012BF2  0E1C               	movlw	28
  7728  012BF4  0100               	movlb	0	; () banked
  7729  012BF6  6FC4               	movwf	___wmul@multiplicand& (0+255),b
  7730  012BF8  ECE9  F0A6         	call	___wmul	;wreg free
  7731  012BFC  0E1A               	movlw	26
  7732  012BFE  0100               	movlb	0	; () banked
  7733  012C00  0100               	movlb	0	; () banked
  7734  012C02  27C2               	addwf	?___wmul& (0+255),f,b
  7735  012C04  0E00               	movlw	0
  7736  012C06  0100               	movlb	0	; () banked
  7737  012C08  23C3               	addwfc	(?___wmul+1)& (0+255),f,b
  7738  012C0A  0E5C               	movlw	low _my_FrameReceived
  7739  012C0C  0100               	movlb	0	; () banked
  7740  012C0E  0100               	movlb	0	; () banked
  7741  012C10  25C2               	addwf	?___wmul& (0+255),w,b
  7742  012C12  6ED9               	movwf	fsr2l,c
  7743  012C14  0E08               	movlw	high _my_FrameReceived
  7744  012C16  0100               	movlb	0	; () banked
  7745  012C18  0100               	movlb	0	; () banked
  7746  012C1A  21C3               	addwfc	(?___wmul+1)& (0+255),w,b
  7747  012C1C  6EDA               	movwf	fsr2h,c
  7748  012C1E  0E02               	movlw	2
  7749  012C20  0100               	movlb	0	; () banked
  7750  012C22  0100               	movlb	0	; () banked
  7751  012C24  25D5               	addwf	executeBuffer@y& (0+255),w,b
  7752  012C26  0100               	movlb	0	; () banked
  7753  012C28  6FCE               	movwf	??_executeBuffer& (0+255),b
  7754  012C2A  0E00               	movlw	0
  7755  012C2C  0100               	movlb	0	; () banked
  7756  012C2E  0100               	movlb	0	; () banked
  7757  012C30  21D6               	addwfc	(executeBuffer@y+1)& (0+255),w,b
  7758  012C32  0100               	movlb	0	; () banked
  7759  012C34  6FCF               	movwf	(??_executeBuffer+1)& (0+255),b
  7760  012C36  0101               	movlb	1	; () banked
  7761  012C38  0E9E               	movlw	low _trameToParse
  7762  012C3A  0100               	movlb	0	; () banked
  7763  012C3C  25CE               	addwf	??_executeBuffer& (0+255),w,b
  7764  012C3E  6EE1               	movwf	fsr1l,c
  7765  012C40  0101               	movlb	1	; () banked
  7766  012C42  0E01               	movlw	high _trameToParse
  7767  012C44  0100               	movlb	0	; () banked
  7768  012C46  21CF               	addwfc	(??_executeBuffer+1)& (0+255),w,b
  7769  012C48  6EE2               	movwf	fsr1h,c
  7770  012C4A  50E7               	movf	indf1,w,c
  7771  012C4C  0100               	movlb	0	; () banked
  7772  012C4E  6FD0               	movwf	(??_executeBuffer+2)& (0+255),b
  7773  012C50  0100               	movlb	0	; () banked
  7774  012C52  51D0               	movf	(??_executeBuffer+2)& (0+255),w,b
  7775  012C54  26DE               	addwf	postinc2,f,c
  7776  012C56  0E00               	movlw	0
  7777  012C58  22DD               	addwfc	postdec2,f,c
  7778                           
  7779                           ; BSR set to: 0
  7780                           ;bufferint.c: 331: nbFrameTDS ++;
  7781  012C5A  0100               	movlb	0	; () banked
  7782  012C5C  0100               	movlb	0	; () banked
  7783  012C5E  4B8A               	infsnz	_nbFrameTDS& (0+255),f,b
  7784  012C60  2B8B               	incf	(_nbFrameTDS+1)& (0+255),f,b
  7785                           
  7786                           ; BSR set to: 0
  7787                           ;bufferint.c: 332: idReceived = 0;
  7788  012C62  0E00               	movlw	0
  7789  012C64  6E2A               	movwf	_idReceived+1,c
  7790  012C66  0E00               	movlw	0
  7791  012C68  6E29               	movwf	_idReceived,c
  7792                           
  7793                           ;bufferint.c: 333: }
  7794  012C6A  0012               	return	
  7795  012C6C                     l6960:
  7796                           
  7797                           ; BSR set to: 0
  7798                           ;bufferint.c: 334: else if(idReceived == 0x21)
  7799  012C6C  5029               	movf	_idReceived,w,c
  7800  012C6E  0A21               	xorlw	33
  7801  012C70  102A               	iorwf	_idReceived+1,w,c
  7802  012C72  A4D8               	btfss	status,2,c
  7803  012C74  0012               	return	
  7804  012C76  D09E               	goto	l6992
  7805  012C78                     l6964:
  7806                           
  7807                           ;bufferint.c: 339: if(VpowerSensor)
  7808  012C78  5040               	movf	_VpowerSensor,w,c
  7809  012C7A  B4D8               	btfsc	status,2,c
  7810  012C7C  D00A               	goto	l975
  7811                           
  7812                           ;bufferint.c: 340: {
  7813                           ;bufferint.c: 341: PORTCbits.RC3 = 1;
  7814  012C7E  8682               	bsf	3970,3,c	;volatile
  7815  012C80                     l976:
  7816  012C80  A2AD               	btfss	4013,1,c	;volatile
  7817  012C82  D7FE               	goto	l976
  7818                           
  7819                           ;bufferint.c: 343: Write1USART('1');
  7820  012C84  0E31               	movlw	49
  7821  012C86  ECD9  F0A7         	call	_Write1USART
  7822                           
  7823                           ;bufferint.c: 344: VpowerSensor=0;
  7824  012C8A  0100               	movlb	0	; () banked
  7825  012C8C  6FCE               	movwf	??_executeBuffer& (0+255),b
  7826  012C8E  0E00               	movlw	0
  7827  012C90  D009               	goto	L2
  7828  012C92                     l975:
  7829                           
  7830                           ;bufferint.c: 346: else
  7831                           ;bufferint.c: 347: {
  7832                           ;bufferint.c: 348: PORTCbits.RC3 = 0;
  7833  012C92  9682               	bcf	3970,3,c	;volatile
  7834  012C94                     l980:
  7835  012C94  A2AD               	btfss	4013,1,c	;volatile
  7836  012C96  D7FE               	goto	l980
  7837                           
  7838                           ;bufferint.c: 350: Write1USART('0');
  7839  012C98  0E30               	movlw	48
  7840  012C9A  ECD9  F0A7         	call	_Write1USART
  7841                           
  7842                           ;bufferint.c: 351: VpowerSensor=1;
  7843  012C9E  0100               	movlb	0	; () banked
  7844  012CA0  6FCE               	movwf	??_executeBuffer& (0+255),b
  7845  012CA2  0E01               	movlw	1
  7846  012CA4                     L2:
  7847  012CA4  6E40               	movwf	_VpowerSensor,c
  7848  012CA6  D083               	goto	L7
  7849  012CA8                     l6976:
  7850                           
  7851                           ;bufferint.c: 355: Vo = 1;
  7852  012CA8  0100               	movlb	0	; () banked
  7853  012CAA  6FCE               	movwf	??_executeBuffer& (0+255),b
  7854  012CAC  0E01               	movlw	1
  7855  012CAE  0100               	movlb	0	; () banked
  7856  012CB0  0100               	movlb	0	; () banked
  7857  012CB2  6F96               	movwf	_Vo& (0+255),b
  7858  012CB4  D07C               	goto	L7
  7859  012CB6                     l6978:
  7860                           
  7861                           ;bufferint.c: 358: Vg = 1;
  7862  012CB6  0100               	movlb	0	; () banked
  7863  012CB8  6FCE               	movwf	??_executeBuffer& (0+255),b
  7864  012CBA  0E01               	movlw	1
  7865  012CBC  0100               	movlb	0	; () banked
  7866  012CBE  0100               	movlb	0	; () banked
  7867  012CC0  6F95               	movwf	_Vg& (0+255),b
  7868  012CC2  0100               	movlb	0	; () banked
  7869  012CC4  51CE               	movf	??_executeBuffer& (0+255),w,b
  7870                           
  7871                           ;bufferint.c: 359: VOK = 0;
  7872  012CC6  0100               	movlb	0	; () banked
  7873  012CC8  6FCE               	movwf	??_executeBuffer& (0+255),b
  7874  012CCA  0E00               	movlw	0
  7875  012CCC  0100               	movlb	0	; () banked
  7876  012CCE  0100               	movlb	0	; () banked
  7877  012CD0  6FF0               	movwf	_VOK& (0+255),b
  7878  012CD2  0100               	movlb	0	; () banked
  7879  012CD4  51CE               	movf	??_executeBuffer& (0+255),w,b
  7880                           
  7881                           ;bufferint.c: 360: VPH = 0;
  7882  012CD6  0100               	movlb	0	; () banked
  7883  012CD8  6FCE               	movwf	??_executeBuffer& (0+255),b
  7884  012CDA  0E00               	movlw	0
  7885  012CDC  0100               	movlb	0	; () banked
  7886  012CDE  0100               	movlb	0	; () banked
  7887  012CE0  6F93               	movwf	_VPH& (0+255),b
  7888  012CE2  0100               	movlb	0	; () banked
  7889  012CE4  51CE               	movf	??_executeBuffer& (0+255),w,b
  7890                           
  7891                           ;bufferint.c: 361: VFC = 0;
  7892  012CE6  0100               	movlb	0	; () banked
  7893  012CE8  6FCE               	movwf	??_executeBuffer& (0+255),b
  7894  012CEA  0E00               	movlw	0
  7895  012CEC  0100               	movlb	0	; () banked
  7896  012CEE  0100               	movlb	0	; () banked
  7897  012CF0  6F92               	movwf	_VFC& (0+255),b
  7898  012CF2  0100               	movlb	0	; () banked
  7899  012CF4  51CE               	movf	??_executeBuffer& (0+255),w,b
  7900                           
  7901                           ;bufferint.c: 362: VPOST = 0;
  7902  012CF6  0100               	movlb	0	; () banked
  7903  012CF8  6FCE               	movwf	??_executeBuffer& (0+255),b
  7904  012CFA  0E00               	movlw	0
  7905  012CFC  0100               	movlb	0	; () banked
  7906  012CFE  0100               	movlb	0	; () banked
  7907  012D00  6F94               	movwf	_VPOST& (0+255),b
  7908  012D02  0100               	movlb	0	; () banked
  7909  012D04  51CE               	movf	??_executeBuffer& (0+255),w,b
  7910                           
  7911                           ;bufferint.c: 363: Vy = 0;
  7912  012D06  0100               	movlb	0	; () banked
  7913  012D08  6FCE               	movwf	??_executeBuffer& (0+255),b
  7914  012D0A  0E00               	movlw	0
  7915  012D0C  0100               	movlb	0	; () banked
  7916  012D0E  0100               	movlb	0	; () banked
  7917  012D10  6F9A               	movwf	_Vy& (0+255),b
  7918  012D12  D04D               	goto	L7
  7919  012D14                     l6980:
  7920                           
  7921                           ;bufferint.c: 366: Vu = 1;
  7922  012D14  0100               	movlb	0	; () banked
  7923  012D16  6FCE               	movwf	??_executeBuffer& (0+255),b
  7924  012D18  0E01               	movlw	1
  7925  012D1A  0100               	movlb	0	; () banked
  7926  012D1C  0100               	movlb	0	; () banked
  7927  012D1E  6F99               	movwf	_Vu& (0+255),b
  7928  012D20  D046               	goto	L7
  7929  012D22                     l6982:
  7930                           
  7931                           ;bufferint.c: 369: Vy = 1;
  7932  012D22  0100               	movlb	0	; () banked
  7933  012D24  6FCE               	movwf	??_executeBuffer& (0+255),b
  7934  012D26  0E01               	movlw	1
  7935  012D28  0100               	movlb	0	; () banked
  7936  012D2A  0100               	movlb	0	; () banked
  7937  012D2C  6F9A               	movwf	_Vy& (0+255),b
  7938  012D2E  0100               	movlb	0	; () banked
  7939  012D30  51CE               	movf	??_executeBuffer& (0+255),w,b
  7940                           
  7941                           ;bufferint.c: 370: Vg = 0;
  7942  012D32  0100               	movlb	0	; () banked
  7943  012D34  6FCE               	movwf	??_executeBuffer& (0+255),b
  7944  012D36  0E00               	movlw	0
  7945  012D38  0100               	movlb	0	; () banked
  7946  012D3A  0100               	movlb	0	; () banked
  7947  012D3C  6F95               	movwf	_Vg& (0+255),b
  7948  012D3E  0100               	movlb	0	; () banked
  7949  012D40  51CE               	movf	??_executeBuffer& (0+255),w,b
  7950                           
  7951                           ;bufferint.c: 371: VOK = 0;
  7952  012D42  0100               	movlb	0	; () banked
  7953  012D44  6FCE               	movwf	??_executeBuffer& (0+255),b
  7954  012D46  0E00               	movlw	0
  7955  012D48  0100               	movlb	0	; () banked
  7956  012D4A  0100               	movlb	0	; () banked
  7957  012D4C  6FF0               	movwf	_VOK& (0+255),b
  7958  012D4E  0100               	movlb	0	; () banked
  7959  012D50  51CE               	movf	??_executeBuffer& (0+255),w,b
  7960                           
  7961                           ;bufferint.c: 372: VPH = 0;
  7962  012D52  0100               	movlb	0	; () banked
  7963  012D54  6FCE               	movwf	??_executeBuffer& (0+255),b
  7964  012D56  0E00               	movlw	0
  7965  012D58  0100               	movlb	0	; () banked
  7966  012D5A  0100               	movlb	0	; () banked
  7967  012D5C  6F93               	movwf	_VPH& (0+255),b
  7968  012D5E  0100               	movlb	0	; () banked
  7969  012D60  51CE               	movf	??_executeBuffer& (0+255),w,b
  7970                           
  7971                           ;bufferint.c: 373: VFC = 0;
  7972  012D62  0100               	movlb	0	; () banked
  7973  012D64  6FCE               	movwf	??_executeBuffer& (0+255),b
  7974  012D66  0E00               	movlw	0
  7975  012D68  0100               	movlb	0	; () banked
  7976  012D6A  0100               	movlb	0	; () banked
  7977  012D6C  6F92               	movwf	_VFC& (0+255),b
  7978  012D6E  0100               	movlb	0	; () banked
  7979  012D70  51CE               	movf	??_executeBuffer& (0+255),w,b
  7980                           
  7981                           ;bufferint.c: 374: VPOST = 0;
  7982  012D72  0100               	movlb	0	; () banked
  7983  012D74  6FCE               	movwf	??_executeBuffer& (0+255),b
  7984  012D76  0E00               	movlw	0
  7985  012D78  0100               	movlb	0	; () banked
  7986  012D7A  0100               	movlb	0	; () banked
  7987  012D7C  6F94               	movwf	_VPOST& (0+255),b
  7988  012D7E  0100               	movlb	0	; () banked
  7989  012D80  51CE               	movf	??_executeBuffer& (0+255),w,b
  7990                           
  7991                           ; BSR set to: 0
  7992                           ;bufferint.c: 375: mcStartGSM = 20;
  7993  012D82  0E00               	movlw	0
  7994  012D84  6E2C               	movwf	_mcStartGSM+1,c
  7995  012D86  0E14               	movlw	20
  7996  012D88  6E2B               	movwf	_mcStartGSM,c
  7997                           
  7998                           ; BSR set to: 0
  7999                           ;bufferint.c: 376: mcPostGSM = 0;
  8000  012D8A  0E00               	movlw	0
  8001  012D8C  0100               	movlb	0	; () banked
  8002  012D8E  0100               	movlb	0	; () banked
  8003  012D90  6F83               	movwf	(_mcPostGSM+1)& (0+255),b
  8004  012D92  0E00               	movlw	0
  8005  012D94  0100               	movlb	0	; () banked
  8006  012D96  6F82               	movwf	_mcPostGSM& (0+255),b
  8007                           
  8008                           ;bufferint.c: 377: VstartReady = 0;
  8009  012D98  0100               	movlb	0	; () banked
  8010  012D9A  6FCE               	movwf	??_executeBuffer& (0+255),b
  8011  012D9C  0E00               	movlw	0
  8012  012D9E  6E38               	movwf	_VstartReady,c
  8013  012DA0  D006               	goto	L7
  8014  012DA2                     l6988:
  8015                           
  8016                           ;bufferint.c: 380: Vq = 1;
  8017  012DA2  0100               	movlb	0	; () banked
  8018  012DA4  6FCE               	movwf	??_executeBuffer& (0+255),b
  8019  012DA6  0E01               	movlw	1
  8020  012DA8  0100               	movlb	0	; () banked
  8021  012DAA  0100               	movlb	0	; () banked
  8022  012DAC  6F97               	movwf	_Vq& (0+255),b
  8023  012DAE                     L7:
  8024  012DAE  0100               	movlb	0	; () banked
  8025  012DB0  51CE               	movf	??_executeBuffer& (0+255),w,b
  8026                           
  8027                           ;bufferint.c: 381: break;
  8028  012DB2  D015               	goto	l6994
  8029  012DB4                     l6992:
  8030                           
  8031                           ; BSR set to: 0
  8032  012DB4  0101               	movlb	1	; () banked
  8033  012DB6  0101               	movlb	1	; () banked
  8034  012DB8  519E               	movf	_trameToParse& (0+255),w,b
  8035                           
  8036                           ; Switch size 1, requested type "space"
  8037                           ; Number of cases is 6, Range of values is 103 to 121
  8038                           ; switch strategies available:
  8039                           ; Name         Instructions Cycles
  8040                           ; simple_byte           19    10 (average)
  8041                           ;	Chosen strategy is simple_byte
  8042  012DBA  0A67               	xorlw	103	; case 103
  8043  012DBC  B4D8               	btfsc	status,2,c
  8044  012DBE  D77B               	goto	l6978
  8045  012DC0  0A08               	xorlw	8	; case 111
  8046  012DC2  B4D8               	btfsc	status,2,c
  8047  012DC4  D771               	goto	l6976
  8048  012DC6  0A1F               	xorlw	31	; case 112
  8049  012DC8  B4D8               	btfsc	status,2,c
  8050  012DCA  D756               	goto	l6964
  8051  012DCC  0A01               	xorlw	1	; case 113
  8052  012DCE  B4D8               	btfsc	status,2,c
  8053  012DD0  D7E8               	goto	l6988
  8054  012DD2  0A04               	xorlw	4	; case 117
  8055  012DD4  B4D8               	btfsc	status,2,c
  8056  012DD6  D79E               	goto	l6980
  8057  012DD8  0A0C               	xorlw	12	; case 121
  8058  012DDA  B4D8               	btfsc	status,2,c
  8059  012DDC  D7A2               	goto	l6982
  8060  012DDE                     l6994:
  8061                           
  8062                           ;bufferint.c: 389: idReceived = 0;
  8063  012DDE  0E00               	movlw	0
  8064  012DE0  6E2A               	movwf	_idReceived+1,c
  8065  012DE2  0E00               	movlw	0
  8066  012DE4  6E29               	movwf	_idReceived,c
  8067  012DE6  0012               	return	
  8068  012DE8                     __end_of_executeBuffer:
  8069                           	opt stack 0
  8070                           tblptru	equ	0xFF8
  8071                           tblptrh	equ	0xFF7
  8072                           tblptrl	equ	0xFF6
  8073                           tablat	equ	0xFF5
  8074                           intcon	equ	0xFF2
  8075                           intcon2	equ	0xFF1
  8076                           postinc0	equ	0xFEE
  8077                           wreg	equ	0xFE8
  8078                           indf1	equ	0xFE7
  8079                           postdec1	equ	0xFE5
  8080                           fsr1h	equ	0xFE2
  8081                           fsr1l	equ	0xFE1
  8082                           indf2	equ	0xFDF
  8083                           postinc2	equ	0xFDE
  8084                           postdec2	equ	0xFDD
  8085                           fsr2h	equ	0xFDA
  8086                           fsr2l	equ	0xFD9
  8087                           status	equ	0xFD8
  8088                           
  8089 ;; *************** function _commun_initialisationRegistres *****************
  8090 ;; Defined at:
  8091 ;;		line 7 in file "commun.c"
  8092 ;; Parameters:    Size  Location     Type
  8093 ;;		None
  8094 ;; Auto vars:     Size  Location     Type
  8095 ;;		None
  8096 ;; Return value:  Size  Location     Type
  8097 ;;		None               void
  8098 ;; Registers used:
  8099 ;;		None
  8100 ;; Tracked objects:
  8101 ;;		On entry : 0/0
  8102 ;;		On exit  : 0/0
  8103 ;;		Unchanged: 0/0
  8104 ;; Data sizes:     COMRAM   BANK0   BANK1   BANK2   BANK3   BANK4   BANK5   BANK6   BANK7   BANK8   BANK9  BANK10  BANK1
      +1  BANK12  BANK13  BANK14
  8105 ;;      Params:         0       0       0       0       0       0       0       0       0       0       0       0       
      +0       0       0       0
  8106 ;;      Locals:         0       0       0       0       0       0       0       0       0       0       0       0       
      +0       0       0       0
  8107 ;;      Temps:          0       0       0       0       0       0       0       0       0       0       0       0       
      +0       0       0       0
  8108 ;;      Totals:         0       0       0       0       0       0       0       0       0       0       0       0       
      +0       0       0       0
  8109 ;;Total ram usage:        0 bytes
  8110 ;; Hardware stack levels used:    1
  8111 ;; Hardware stack levels required when called:    3
  8112 ;; This function calls:
  8113 ;;		Nothing
  8114 ;; This function is called by:
  8115 ;;		_main
  8116 ;; This function uses a non-reentrant model
  8117 ;;
  8118                           
  8119                           	psect	text12
  8120  014F6E                     __ptext12:
  8121                           	opt stack 0
  8122  014F6E                     _commun_initialisationRegistres:
  8123                           	opt stack 27
  8124                           
  8125                           ;commun.c: 10: RCONbits.IPEN = 1;
  8126                           
  8127                           ;incstack = 0
  8128  014F6E  8ED0               	bsf	4048,7,c	;volatile
  8129                           
  8130                           ;commun.c: 11: INTCONbits.GIE = 1;
  8131  014F70  8EF2               	bsf	intcon,7,c	;volatile
  8132                           
  8133                           ;commun.c: 12: INTCONbits.PEIE = 1;
  8134  014F72  8CF2               	bsf	intcon,6,c	;volatile
  8135                           
  8136                           ;commun.c: 13: TRISBbits.TRISB3 = 0;
  8137  014F74  9693               	bcf	3987,3,c	;volatile
  8138                           
  8139                           ;commun.c: 14: PORTBbits.RB3 = 0;
  8140  014F76  9681               	bcf	3969,3,c	;volatile
  8141                           
  8142                           ;commun.c: 16: TRISBbits.TRISB2 = 0;
  8143  014F78  9493               	bcf	3987,2,c	;volatile
  8144                           
  8145                           ;commun.c: 17: PORTBbits.RB2 = 0;
  8146  014F7A  9481               	bcf	3969,2,c	;volatile
  8147                           
  8148                           ;commun.c: 19: TRISCbits.TRISC4 = 0;
  8149  014F7C  9894               	bcf	3988,4,c	;volatile
  8150                           
  8151                           ;commun.c: 20: PORTCbits.RC4 = 0;
  8152  014F7E  9882               	bcf	3970,4,c	;volatile
  8153                           
  8154                           ;commun.c: 22: TRISCbits.TRISC3 = 0;
  8155  014F80  9694               	bcf	3988,3,c	;volatile
  8156                           
  8157                           ;commun.c: 23: PORTCbits.RC3 = 0;
  8158  014F82  9682               	bcf	3970,3,c	;volatile
  8159                           
  8160                           ;commun.c: 24: TRISCbits.TRISC1 = 0;
  8161  014F84  9294               	bcf	3988,1,c	;volatile
  8162                           
  8163                           ;commun.c: 25: PORTCbits.RC1 = 0;
  8164  014F86  9282               	bcf	3970,1,c	;volatile
  8165  014F88  0012               	return	
  8166  014F8A                     __end_of_commun_initialisationRegistres:
  8167                           	opt stack 0
  8168                           tblptru	equ	0xFF8
  8169                           tblptrh	equ	0xFF7
  8170                           tblptrl	equ	0xFF6
  8171                           tablat	equ	0xFF5
  8172                           intcon	equ	0xFF2
  8173                           intcon2	equ	0xFF1
  8174                           postinc0	equ	0xFEE
  8175                           wreg	equ	0xFE8
  8176                           indf1	equ	0xFE7
  8177                           postdec1	equ	0xFE5
  8178                           fsr1h	equ	0xFE2
  8179                           fsr1l	equ	0xFE1
  8180                           indf2	equ	0xFDF
  8181                           postinc2	equ	0xFDE
  8182                           postdec2	equ	0xFDD
  8183                           fsr2h	equ	0xFDA
  8184                           fsr2l	equ	0xFD9
  8185                           status	equ	0xFD8
  8186                           
  8187 ;; *************** function _RtccInitClock *****************
  8188 ;; Defined at:
  8189 ;;		line 21 in file "C:\Program Files (x86)\Microchip\xc8\v1.30\sources\pic18\plib\rtcc\RTCCInitClock.c"
  8190 ;; Parameters:    Size  Location     Type
  8191 ;;		None
  8192 ;; Auto vars:     Size  Location     Type
  8193 ;;		None
  8194 ;; Return value:  Size  Location     Type
  8195 ;;		None               void
  8196 ;; Registers used:
  8197 ;;		wreg, status,2, cstack
  8198 ;; Tracked objects:
  8199 ;;		On entry : 0/0
  8200 ;;		On exit  : 0/0
  8201 ;;		Unchanged: 0/0
  8202 ;; Data sizes:     COMRAM   BANK0   BANK1   BANK2   BANK3   BANK4   BANK5   BANK6   BANK7   BANK8   BANK9  BANK10  BANK1
      +1  BANK12  BANK13  BANK14
  8203 ;;      Params:         0       0       0       0       0       0       0       0       0       0       0       0       
      +0       0       0       0
  8204 ;;      Locals:         0       0       0       0       0       0       0       0       0       0       0       0       
      +0       0       0       0
  8205 ;;      Temps:          0       0       0       0       0       0       0       0       0       0       0       0       
      +0       0       0       0
  8206 ;;      Totals:         0       0       0       0       0       0       0       0       0       0       0       0       
      +0       0       0       0
  8207 ;;Total ram usage:        0 bytes
  8208 ;; Hardware stack levels used:    1
  8209 ;; Hardware stack levels required when called:    4
  8210 ;; This function calls:
  8211 ;;		_RtccWrOn
  8212 ;; This function is called by:
  8213 ;;		_main
  8214 ;; This function uses a non-reentrant model
  8215 ;;
  8216                           
  8217                           	psect	text13
  8218  014EE2                     __ptext13:
  8219                           	opt stack 0
  8220  014EE2                     _RtccInitClock:
  8221                           	opt stack 26
  8222                           
  8223                           ;incstack = 0
  8224  014EE2  86CD               	bsf	4045,3,c	;volatile
  8225  014EE4  0E00               	movlw	0
  8226  014EE6  010F               	movlb	15	; () banked
  8227  014EE8  010F               	movlb	15	; () banked
  8228  014EEA  6F3F               	movwf	63,b	;volatile
  8229  014EEC  0E00               	movlw	0
  8230  014EEE  010F               	movlb	15	; () banked
  8231  014EF0  010F               	movlb	15	; () banked
  8232  014EF2  6F3E               	movwf	62,b	;volatile
  8233                           
  8234                           ; BSR set to: 15
  8235  014EF4  010F               	movlb	15	; () banked
  8236  014EF6  AF3F               	btfss	63,7,b	;volatile
  8237  014EF8  D007               	goto	l6828
  8238                           
  8239                           ; BSR set to: 15
  8240  014EFA  010F               	movlb	15	; () banked
  8241  014EFC  AB3F               	btfss	63,5,b	;volatile
  8242                           
  8243                           ; BSR set to: 15
  8244  014EFE  ECC5  F0A7         	call	_RtccWrOn	;wreg free
  8245  014F02  010F               	movlb	15	; () banked
  8246  014F04  010F               	movlb	15	; () banked
  8247  014F06  9F3F               	bcf	63,7,b	;volatile
  8248  014F08                     l6828:
  8249                           
  8250                           ; BSR set to: 15
  8251  014F08  010F               	movlb	15	; () banked
  8252  014F0A  010F               	movlb	15	; () banked
  8253  014F0C  9B3F               	bcf	63,5,b	;volatile
  8254                           
  8255                           ; BSR set to: 15
  8256  014F0E  0012               	return	
  8257  014F10                     __end_of_RtccInitClock:
  8258                           	opt stack 0
  8259                           tblptru	equ	0xFF8
  8260                           tblptrh	equ	0xFF7
  8261                           tblptrl	equ	0xFF6
  8262                           tablat	equ	0xFF5
  8263                           intcon	equ	0xFF2
  8264                           intcon2	equ	0xFF1
  8265                           postinc0	equ	0xFEE
  8266                           wreg	equ	0xFE8
  8267                           indf1	equ	0xFE7
  8268                           postdec1	equ	0xFE5
  8269                           fsr1h	equ	0xFE2
  8270                           fsr1l	equ	0xFE1
  8271                           indf2	equ	0xFDF
  8272                           postinc2	equ	0xFDE
  8273                           postdec2	equ	0xFDD
  8274                           fsr2h	equ	0xFDA
  8275                           fsr2l	equ	0xFD9
  8276                           status	equ	0xFD8
  8277                           
  8278 ;; *************** function _RtccWrOn *****************
  8279 ;; Defined at:
  8280 ;;		line 21 in file "C:\Program Files (x86)\Microchip\xc8\v1.30\sources\pic18\plib\rtcc\RtccWrOn.c"
  8281 ;; Parameters:    Size  Location     Type
  8282 ;;		None
  8283 ;; Auto vars:     Size  Location     Type
  8284 ;;  data            2    0        unsigned int 
  8285 ;; Return value:  Size  Location     Type
  8286 ;;		None               void
  8287 ;; Registers used:
  8288 ;;		wreg, status,2
  8289 ;; Tracked objects:
  8290 ;;		On entry : 0/0
  8291 ;;		On exit  : 0/0
  8292 ;;		Unchanged: 0/0
  8293 ;; Data sizes:     COMRAM   BANK0   BANK1   BANK2   BANK3   BANK4   BANK5   BANK6   BANK7   BANK8   BANK9  BANK10  BANK1
      +1  BANK12  BANK13  BANK14
  8294 ;;      Params:         0       0       0       0       0       0       0       0       0       0       0       0       
      +0       0       0       0
  8295 ;;      Locals:         0       0       0       0       0       0       0       0       0       0       0       0       
      +0       0       0       0
  8296 ;;      Temps:          0       0       0       0       0       0       0       0       0       0       0       0       
      +0       0       0       0
  8297 ;;      Totals:         0       0       0       0       0       0       0       0       0       0       0       0       
      +0       0       0       0
  8298 ;;Total ram usage:        0 bytes
  8299 ;; Hardware stack levels used:    1
  8300 ;; Hardware stack levels required when called:    3
  8301 ;; This function calls:
  8302 ;;		Nothing
  8303 ;; This function is called by:
  8304 ;;		_RtccInitClock
  8305 ;; This function uses a non-reentrant model
  8306 ;;
  8307                           
  8308                           	psect	text14
  8309  014F8A                     __ptext14:
  8310                           	opt stack 0
  8311  014F8A                     _RtccWrOn:
  8312                           	opt stack 26
  8313                           
  8314                           ; BSR set to: 15
  8315                           ;incstack = 0
  8316  014F8A  9CF2               	bcf	intcon,6,c	;volatile
  8317  014F8C  0E55               	movlw	85
  8318  014F8E  6EA7               	movwf	4007,c	;volatile
  8319  014F90  0EAA               	movlw	170
  8320  014F92  6EA7               	movwf	4007,c	;volatile
  8321  014F94  010F               	movlb	15	; () banked
  8322  014F96  010F               	movlb	15	; () banked
  8323  014F98  8B3F               	bsf	63,5,b	;volatile
  8324                           
  8325                           ; BSR set to: 15
  8326  014F9A  8CF2               	bsf	intcon,6,c	;volatile
  8327                           
  8328                           ; BSR set to: 15
  8329  014F9C  0012               	return	
  8330  014F9E                     __end_of_RtccWrOn:
  8331                           	opt stack 0
  8332                           tblptru	equ	0xFF8
  8333                           tblptrh	equ	0xFF7
  8334                           tblptrl	equ	0xFF6
  8335                           tablat	equ	0xFF5
  8336                           intcon	equ	0xFF2
  8337                           intcon2	equ	0xFF1
  8338                           postinc0	equ	0xFEE
  8339                           wreg	equ	0xFE8
  8340                           indf1	equ	0xFE7
  8341                           postdec1	equ	0xFE5
  8342                           fsr1h	equ	0xFE2
  8343                           fsr1l	equ	0xFE1
  8344                           indf2	equ	0xFDF
  8345                           postinc2	equ	0xFDE
  8346                           postdec2	equ	0xFDD
  8347                           fsr2h	equ	0xFDA
  8348                           fsr2l	equ	0xFD9
  8349                           status	equ	0xFD8
  8350                           
  8351 ;; *************** function _POST *****************
  8352 ;; Defined at:
  8353 ;;		line 18 in file "GSM.c"
  8354 ;; Parameters:    Size  Location     Type
  8355 ;;		None
  8356 ;; Auto vars:     Size  Location     Type
  8357 ;;  erase           2   36[BANK0 ] int 
  8358 ;;  v               2   38[BANK0 ] int 
  8359 ;;  STrLenghC       4   30[BANK0 ] unsigned char [4]
  8360 ;;  STrLenghI       2   34[BANK0 ] int 
  8361 ;; Return value:  Size  Location     Type
  8362 ;;		None               void
  8363 ;; Registers used:
  8364 ;;		wreg, fsr0l, fsr0h, fsr1l, fsr1h, fsr1l, fsr1h, fsr2l, fsr2h, status,2, status,0, pclat, btemp, btemp+1, btemp+2, bt
      +emp+3, btemp+4, btemp+5, btemp+6, btemp+7, btemp+8, btemp+9, btemp+10, btemp+11, tosl, structret, tblptrl, tblptrh, tblp
      +tru, prodl, prodh, bsr, cstack
  8365 ;; Tracked objects:
  8366 ;;		On entry : 0/0
  8367 ;;		On exit  : 0/0
  8368 ;;		Unchanged: 0/0
  8369 ;; Data sizes:     COMRAM   BANK0   BANK1   BANK2   BANK3   BANK4   BANK5   BANK6   BANK7   BANK8   BANK9  BANK10  BANK1
      +1  BANK12  BANK13  BANK14
  8370 ;;      Params:         0       0       0       0       0       0       0       0       0       0       0       0       
      +0       0       0       0
  8371 ;;      Locals:         0      10       0       0       0       0       0       0       0       0       0       0       
      +0       0       0       0
  8372 ;;      Temps:          0       1       0       0       0       0       0       0       0       0       0       0       
      +0       0       0       0
  8373 ;;      Totals:         0      11       0       0       0       0       0       0       0       0       0       0       
      +0       0       0       0
  8374 ;;Total ram usage:       11 bytes
  8375 ;; Hardware stack levels used:    1
  8376 ;; Hardware stack levels required when called:    6
  8377 ;; This function calls:
  8378 ;;		_commun_delaiMS
  8379 ;;		_itoa
  8380 ;;		_sendJsonDO
  8381 ;;		_send_char2USART
  8382 ;;		_send_cr
  8383 ;;		_strlen
  8384 ;;		_writeUsart1Trame
  8385 ;;		_writeUsart2
  8386 ;; This function is called by:
  8387 ;;		_main
  8388 ;; This function uses a non-reentrant model
  8389 ;;
  8390                           
  8391                           	psect	text15
  8392  012DE8                     __ptext15:
  8393                           	opt stack 0
  8394  012DE8                     _POST:
  8395                           	opt stack 24
  8396                           
  8397                           ;GSM.c: 20: if(mcPostGSM ==9)
  8398                           
  8399                           ; BSR set to: 15
  8400                           ;incstack = 0
  8401  012DE8  0100               	movlb	0	; () banked
  8402  012DEA  0100               	movlb	0	; () banked
  8403  012DEC  5182               	movf	_mcPostGSM& (0+255),w,b
  8404  012DEE  0A09               	xorlw	9
  8405  012DF0  1183               	iorwf	(_mcPostGSM+1)& (0+255),w,b
  8406  012DF2  A4D8               	btfss	status,2,c
  8407  012DF4  D01F               	goto	l7320
  8408                           
  8409                           ; BSR set to: 0
  8410                           ;GSM.c: 21: {
  8411                           ;GSM.c: 22: send_cr();
  8412  012DF6  ECF7  F0A7         	call	_send_cr	;wreg free
  8413                           
  8414                           ;GSM.c: 23: howtimeIsIt =1;
  8415  012DFA  0100               	movlb	0	; () banked
  8416  012DFC  6FDF               	movwf	??_POST& (0+255),b
  8417  012DFE  0E01               	movlw	1
  8418  012E00  6E3C               	movwf	_howtimeIsIt,c
  8419  012E02  0100               	movlb	0	; () banked
  8420  012E04  51DF               	movf	??_POST& (0+255),w,b
  8421                           
  8422                           ; BSR set to: 0
  8423                           ;GSM.c: 24: writeUsart2((char*)"AT+CCLK?");
  8424  012E06  0EFF               	movlw	high STR_5
  8425  012E08  0100               	movlb	0	; () banked
  8426  012E0A  0100               	movlb	0	; () banked
  8427  012E0C  6FCF               	movwf	(writeUsart2@datas+1)& (0+255),b
  8428  012E0E  0E9D               	movlw	low STR_5
  8429  012E10  0100               	movlb	0	; () banked
  8430  012E12  0100               	movlb	0	; () banked
  8431  012E14  6FCE               	movwf	writeUsart2@datas& (0+255),b
  8432  012E16  EC40  F0A4         	call	_writeUsart2	;wreg free
  8433                           
  8434                           ;GSM.c: 25: send_cr();
  8435  012E1A  ECF7  F0A7         	call	_send_cr	;wreg free
  8436                           
  8437                           ;GSM.c: 27: mcPostGSM =10;
  8438  012E1E  0E00               	movlw	0
  8439  012E20  0100               	movlb	0	; () banked
  8440  012E22  0100               	movlb	0	; () banked
  8441  012E24  6F83               	movwf	(_mcPostGSM+1)& (0+255),b
  8442  012E26  0E0A               	movlw	10
  8443  012E28  0100               	movlb	0	; () banked
  8444  012E2A  6F82               	movwf	_mcPostGSM& (0+255),b
  8445                           
  8446                           ; BSR set to: 0
  8447                           ;GSM.c: 28: compteurTimer0 = 10;
  8448  012E2C  0E00               	movlw	0
  8449  012E2E  6E28               	movwf	_compteurTimer0+1,c
  8450  012E30  0E0A               	movlw	10
  8451  012E32  6E27               	movwf	_compteurTimer0,c
  8452  012E34                     l7320:
  8453                           
  8454                           ; BSR set to: 0
  8455                           ;GSM.c: 30: }
  8456                           ;GSM.c: 31: if(mcPostGSM ==10 && compteurTimer0 >= 14)
  8457  012E34  0100               	movlb	0	; () banked
  8458  012E36  0100               	movlb	0	; () banked
  8459  012E38  5182               	movf	_mcPostGSM& (0+255),w,b
  8460  012E3A  0A0A               	xorlw	10
  8461  012E3C  1183               	iorwf	(_mcPostGSM+1)& (0+255),w,b
  8462  012E3E  A4D8               	btfss	status,2,c
  8463  012E40  D0CA               	goto	l7398
  8464                           
  8465                           ; BSR set to: 0
  8466  012E42  5028               	movf	_compteurTimer0+1,w,c
  8467  012E44  0A80               	xorlw	128
  8468  012E46  0F80               	addlw	-128
  8469  012E48  0E0E               	movlw	14
  8470  012E4A  B4D8               	btfsc	status,2,c
  8471  012E4C  5C27               	subwf	_compteurTimer0,w,c
  8472  012E4E  A0D8               	btfss	status,0,c
  8473  012E50  D0C2               	goto	l7398
  8474                           
  8475                           ; BSR set to: 0
  8476                           ;GSM.c: 32: {
  8477                           ;GSM.c: 33: send_cr();
  8478  012E52  ECF7  F0A7         	call	_send_cr	;wreg free
  8479                           
  8480                           ;GSM.c: 34: timetoPost[0]='2';
  8481  012E56  0100               	movlb	0	; () banked
  8482  012E58  6FDF               	movwf	??_POST& (0+255),b
  8483  012E5A  0E32               	movlw	50
  8484  012E5C  0100               	movlb	0	; () banked
  8485  012E5E  0100               	movlb	0	; () banked
  8486  012E60  6F9B               	movwf	_timetoPost& (0+255),b
  8487  012E62  0100               	movlb	0	; () banked
  8488  012E64  51DF               	movf	??_POST& (0+255),w,b
  8489                           
  8490                           ; BSR set to: 0
  8491                           ;GSM.c: 35: timetoPost[1]='0';
  8492  012E66  0100               	movlb	0	; () banked
  8493  012E68  6FDF               	movwf	??_POST& (0+255),b
  8494  012E6A  0E30               	movlw	48
  8495  012E6C  0100               	movlb	0	; () banked
  8496  012E6E  0100               	movlb	0	; () banked
  8497  012E70  6F9C               	movwf	(_timetoPost+1)& (0+255),b
  8498  012E72  0100               	movlb	0	; () banked
  8499  012E74  51DF               	movf	??_POST& (0+255),w,b
  8500                           
  8501                           ; BSR set to: 0
  8502                           ;GSM.c: 36: timetoPost[2]=timeReceived[8];
  8503  012E76  C188  F09D         	movff	_timeReceived+8,_timetoPost+2
  8504                           
  8505                           ; BSR set to: 0
  8506                           ;GSM.c: 37: timetoPost[3]=timeReceived[9];
  8507  012E7A  C189  F09E         	movff	_timeReceived+9,_timetoPost+3
  8508                           
  8509                           ; BSR set to: 0
  8510                           ;GSM.c: 38: timetoPost[4]='-';
  8511  012E7E  0100               	movlb	0	; () banked
  8512  012E80  6FDF               	movwf	??_POST& (0+255),b
  8513  012E82  0E2D               	movlw	45
  8514  012E84  0100               	movlb	0	; () banked
  8515  012E86  0100               	movlb	0	; () banked
  8516  012E88  6F9F               	movwf	(_timetoPost+4)& (0+255),b
  8517  012E8A  0100               	movlb	0	; () banked
  8518  012E8C  51DF               	movf	??_POST& (0+255),w,b
  8519                           
  8520                           ; BSR set to: 0
  8521                           ;GSM.c: 39: timetoPost[5]=timeReceived[11];
  8522  012E8E  C18B  F0A0         	movff	_timeReceived+11,_timetoPost+5
  8523                           
  8524                           ; BSR set to: 0
  8525                           ;GSM.c: 40: timetoPost[6]=timeReceived[12];
  8526  012E92  C18C  F0A1         	movff	_timeReceived+12,_timetoPost+6
  8527                           
  8528                           ; BSR set to: 0
  8529                           ;GSM.c: 41: timetoPost[7]='-';
  8530  012E96  0100               	movlb	0	; () banked
  8531  012E98  6FDF               	movwf	??_POST& (0+255),b
  8532  012E9A  0E2D               	movlw	45
  8533  012E9C  0100               	movlb	0	; () banked
  8534  012E9E  0100               	movlb	0	; () banked
  8535  012EA0  6FA2               	movwf	(_timetoPost+7)& (0+255),b
  8536  012EA2  0100               	movlb	0	; () banked
  8537  012EA4  51DF               	movf	??_POST& (0+255),w,b
  8538                           
  8539                           ; BSR set to: 0
  8540                           ;GSM.c: 42: timetoPost[8]=timeReceived[14];
  8541  012EA6  C18E  F0A3         	movff	_timeReceived+14,_timetoPost+8
  8542                           
  8543                           ; BSR set to: 0
  8544                           ;GSM.c: 43: timetoPost[9]=timeReceived[15];
  8545  012EAA  C18F  F0A4         	movff	_timeReceived+15,_timetoPost+9
  8546                           
  8547                           ; BSR set to: 0
  8548                           ;GSM.c: 44: timetoPost[10]=' ';
  8549  012EAE  0100               	movlb	0	; () banked
  8550  012EB0  6FDF               	movwf	??_POST& (0+255),b
  8551  012EB2  0E20               	movlw	32
  8552  012EB4  0100               	movlb	0	; () banked
  8553  012EB6  0100               	movlb	0	; () banked
  8554  012EB8  6FA5               	movwf	(_timetoPost+10)& (0+255),b
  8555  012EBA  0100               	movlb	0	; () banked
  8556  012EBC  51DF               	movf	??_POST& (0+255),w,b
  8557                           
  8558                           ; BSR set to: 0
  8559                           ;GSM.c: 45: timetoPost[11]=timeReceived[17];
  8560  012EBE  C191  F0A6         	movff	_timeReceived+17,_timetoPost+11
  8561                           
  8562                           ; BSR set to: 0
  8563                           ;GSM.c: 46: timetoPost2[0]=timeReceived[17];
  8564  012EC2  C191  F0B6         	movff	_timeReceived+17,_timetoPost2
  8565                           
  8566                           ; BSR set to: 0
  8567                           ;GSM.c: 47: timetoPost[12]=timeReceived[18];
  8568  012EC6  C192  F0A7         	movff	_timeReceived+18,_timetoPost+12
  8569                           
  8570                           ; BSR set to: 0
  8571                           ;GSM.c: 48: timetoPost2[1]=timeReceived[18];
  8572  012ECA  C192  F0B7         	movff	_timeReceived+18,_timetoPost2+1
  8573                           
  8574                           ; BSR set to: 0
  8575                           ;GSM.c: 49: timetoPost[13]=':';
  8576  012ECE  0100               	movlb	0	; () banked
  8577  012ED0  6FDF               	movwf	??_POST& (0+255),b
  8578  012ED2  0E3A               	movlw	58
  8579  012ED4  0100               	movlb	0	; () banked
  8580  012ED6  0100               	movlb	0	; () banked
  8581  012ED8  6FA8               	movwf	(_timetoPost+13)& (0+255),b
  8582  012EDA  0100               	movlb	0	; () banked
  8583  012EDC  51DF               	movf	??_POST& (0+255),w,b
  8584                           
  8585                           ; BSR set to: 0
  8586                           ;GSM.c: 50: timetoPost2[2]=':';
  8587  012EDE  0100               	movlb	0	; () banked
  8588  012EE0  6FDF               	movwf	??_POST& (0+255),b
  8589  012EE2  0E3A               	movlw	58
  8590  012EE4  0100               	movlb	0	; () banked
  8591  012EE6  0100               	movlb	0	; () banked
  8592  012EE8  6FB8               	movwf	(_timetoPost2+2)& (0+255),b
  8593  012EEA  0100               	movlb	0	; () banked
  8594  012EEC  51DF               	movf	??_POST& (0+255),w,b
  8595                           
  8596                           ; BSR set to: 0
  8597                           ;GSM.c: 51: timetoPost[14]=timeReceived[20];
  8598  012EEE  C194  F0A9         	movff	_timeReceived+20,_timetoPost+14
  8599                           
  8600                           ; BSR set to: 0
  8601                           ;GSM.c: 52: timetoPost2[3]=timeReceived[20];
  8602  012EF2  C194  F0B9         	movff	_timeReceived+20,_timetoPost2+3
  8603                           
  8604                           ; BSR set to: 0
  8605                           ;GSM.c: 53: timetoPost[15]=timeReceived[21];
  8606  012EF6  C195  F0AA         	movff	_timeReceived+21,_timetoPost+15
  8607                           
  8608                           ; BSR set to: 0
  8609                           ;GSM.c: 54: timetoPost2[4]=timeReceived[21];
  8610  012EFA  C195  F0BA         	movff	_timeReceived+21,_timetoPost2+4
  8611                           
  8612                           ; BSR set to: 0
  8613                           ;GSM.c: 55: timetoPost[16]=':';
  8614  012EFE  0100               	movlb	0	; () banked
  8615  012F00  6FDF               	movwf	??_POST& (0+255),b
  8616  012F02  0E3A               	movlw	58
  8617  012F04  0100               	movlb	0	; () banked
  8618  012F06  0100               	movlb	0	; () banked
  8619  012F08  6FAB               	movwf	(_timetoPost+16)& (0+255),b
  8620  012F0A  0100               	movlb	0	; () banked
  8621  012F0C  51DF               	movf	??_POST& (0+255),w,b
  8622                           
  8623                           ; BSR set to: 0
  8624                           ;GSM.c: 56: timetoPost2[5]=':';
  8625  012F0E  0100               	movlb	0	; () banked
  8626  012F10  6FDF               	movwf	??_POST& (0+255),b
  8627  012F12  0E3A               	movlw	58
  8628  012F14  0100               	movlb	0	; () banked
  8629  012F16  0100               	movlb	0	; () banked
  8630  012F18  6FBB               	movwf	(_timetoPost2+5)& (0+255),b
  8631  012F1A  0100               	movlb	0	; () banked
  8632  012F1C  51DF               	movf	??_POST& (0+255),w,b
  8633                           
  8634                           ; BSR set to: 0
  8635                           ;GSM.c: 57: timetoPost[17]=timeReceived[23];
  8636  012F1E  C197  F0AC         	movff	_timeReceived+23,_timetoPost+17
  8637                           
  8638                           ; BSR set to: 0
  8639                           ;GSM.c: 58: timetoPost2[6]=timeReceived[23];
  8640  012F22  C197  F0BC         	movff	_timeReceived+23,_timetoPost2+6
  8641                           
  8642                           ; BSR set to: 0
  8643                           ;GSM.c: 59: timetoPost[18]=timeReceived[24];
  8644  012F26  C198  F0AD         	movff	_timeReceived+24,_timetoPost+18
  8645                           
  8646                           ; BSR set to: 0
  8647                           ;GSM.c: 60: timetoPost2[7]=timeReceived[24];
  8648  012F2A  C198  F0BD         	movff	_timeReceived+24,_timetoPost2+7
  8649                           
  8650                           ; BSR set to: 0
  8651                           ;GSM.c: 61: timetoPost[19]='\0';
  8652  012F2E  0100               	movlb	0	; () banked
  8653  012F30  6FDF               	movwf	??_POST& (0+255),b
  8654  012F32  0E00               	movlw	0
  8655  012F34  0100               	movlb	0	; () banked
  8656  012F36  0100               	movlb	0	; () banked
  8657  012F38  6FAE               	movwf	(_timetoPost+19)& (0+255),b
  8658  012F3A  0100               	movlb	0	; () banked
  8659  012F3C  51DF               	movf	??_POST& (0+255),w,b
  8660                           
  8661                           ; BSR set to: 0
  8662                           ;GSM.c: 62: timetoPost2[8]='\0';
  8663  012F3E  0100               	movlb	0	; () banked
  8664  012F40  6FDF               	movwf	??_POST& (0+255),b
  8665  012F42  0E00               	movlw	0
  8666  012F44  0100               	movlb	0	; () banked
  8667  012F46  0100               	movlb	0	; () banked
  8668  012F48  6FBE               	movwf	(_timetoPost2+8)& (0+255),b
  8669  012F4A  0100               	movlb	0	; () banked
  8670  012F4C  51DF               	movf	??_POST& (0+255),w,b
  8671                           
  8672                           ; BSR set to: 0
  8673                           ;GSM.c: 63: virguleRecu = 0;
  8674  012F4E  0E00               	movlw	0
  8675  012F50  0100               	movlb	0	; () banked
  8676  012F52  0100               	movlb	0	; () banked
  8677  012F54  6F91               	movwf	(_virguleRecu+1)& (0+255),b
  8678  012F56  0E00               	movlw	0
  8679  012F58  0100               	movlb	0	; () banked
  8680  012F5A  6F90               	movwf	_virguleRecu& (0+255),b
  8681                           
  8682                           ; BSR set to: 0
  8683                           ;GSM.c: 64: timeRE = 0;
  8684  012F5C  0100               	movlb	0	; () banked
  8685  012F5E  6FDF               	movwf	??_POST& (0+255),b
  8686  012F60  0E00               	movlw	0
  8687  012F62  0100               	movlb	0	; () banked
  8688  012F64  0100               	movlb	0	; () banked
  8689  012F66  6FF1               	movwf	_timeRE& (0+255),b
  8690  012F68  0100               	movlb	0	; () banked
  8691  012F6A  51DF               	movf	??_POST& (0+255),w,b
  8692                           
  8693                           ; BSR set to: 0
  8694                           ;GSM.c: 65: CtoS[0] = 'h';
  8695  012F6C  0100               	movlb	0	; () banked
  8696  012F6E  6FDF               	movwf	??_POST& (0+255),b
  8697  012F70  0E68               	movlw	104
  8698  012F72  0100               	movlb	0	; () banked
  8699  012F74  0100               	movlb	0	; () banked
  8700  012F76  6FC0               	movwf	_CtoS& (0+255),b
  8701  012F78  0100               	movlb	0	; () banked
  8702  012F7A  51DF               	movf	??_POST& (0+255),w,b
  8703                           
  8704                           ; BSR set to: 0
  8705                           ;GSM.c: 66: writeUsart1Trame(CtoS,0xFFFF,0x21);
  8706  012F7C  0100               	movlb	0	; () banked
  8707  012F7E  0E00               	movlw	high _CtoS
  8708  012F80  0100               	movlb	0	; () banked
  8709  012F82  0100               	movlb	0	; () banked
  8710  012F84  6FC5               	movwf	(writeUsart1Trame@datas2+1)& (0+255),b
  8711  012F86  0100               	movlb	0	; () banked
  8712  012F88  0EC0               	movlw	low _CtoS
  8713  012F8A  0100               	movlb	0	; () banked
  8714  012F8C  0100               	movlb	0	; () banked
  8715  012F8E  6FC4               	movwf	writeUsart1Trame@datas2& (0+255),b
  8716  012F90  0EFF               	movlw	255
  8717  012F92  0100               	movlb	0	; () banked
  8718  012F94  0100               	movlb	0	; () banked
  8719  012F96  6FC7               	movwf	(writeUsart1Trame@datatime+1)& (0+255),b
  8720  012F98  0EFF               	movlw	255
  8721  012F9A  0100               	movlb	0	; () banked
  8722  012F9C  6FC6               	movwf	writeUsart1Trame@datatime& (0+255),b
  8723  012F9E  0E00               	movlw	0
  8724  012FA0  0100               	movlb	0	; () banked
  8725  012FA2  0100               	movlb	0	; () banked
  8726  012FA4  6FC9               	movwf	(writeUsart1Trame@id+1)& (0+255),b
  8727  012FA6  0E21               	movlw	33
  8728  012FA8  0100               	movlb	0	; () banked
  8729  012FAA  6FC8               	movwf	writeUsart1Trame@id& (0+255),b
  8730  012FAC  ECA9  F09F         	call	_writeUsart1Trame	;wreg free
  8731                           
  8732                           ;GSM.c: 67: mcPostGSM = 11;
  8733  012FB0  0E00               	movlw	0
  8734  012FB2  0100               	movlb	0	; () banked
  8735  012FB4  0100               	movlb	0	; () banked
  8736  012FB6  6F83               	movwf	(_mcPostGSM+1)& (0+255),b
  8737  012FB8  0E0B               	movlw	11
  8738  012FBA  0100               	movlb	0	; () banked
  8739  012FBC  6F82               	movwf	_mcPostGSM& (0+255),b
  8740                           
  8741                           ; BSR set to: 0
  8742                           ;GSM.c: 68: compteurTimer0 = 10;
  8743  012FBE  0E00               	movlw	0
  8744  012FC0  6E28               	movwf	_compteurTimer0+1,c
  8745  012FC2  0E0A               	movlw	10
  8746  012FC4  6E27               	movwf	_compteurTimer0,c
  8747                           
  8748                           ; BSR set to: 0
  8749                           ;GSM.c: 69: timeRE = 0;
  8750  012FC6  0100               	movlb	0	; () banked
  8751  012FC8  6FDF               	movwf	??_POST& (0+255),b
  8752  012FCA  0E00               	movlw	0
  8753  012FCC  0100               	movlb	0	; () banked
  8754  012FCE  0100               	movlb	0	; () banked
  8755  012FD0  6FF1               	movwf	_timeRE& (0+255),b
  8756  012FD2  0100               	movlb	0	; () banked
  8757  012FD4  51DF               	movf	??_POST& (0+255),w,b
  8758  012FD6                     l7398:
  8759                           
  8760                           ; BSR set to: 0
  8761                           ;GSM.c: 71: }
  8762                           ;GSM.c: 72: if(mcPostGSM ==11 && compteurTimer0 >= 14)
  8763  012FD6  0100               	movlb	0	; () banked
  8764  012FD8  0100               	movlb	0	; () banked
  8765  012FDA  5182               	movf	_mcPostGSM& (0+255),w,b
  8766  012FDC  0A0B               	xorlw	11
  8767  012FDE  1183               	iorwf	(_mcPostGSM+1)& (0+255),w,b
  8768  012FE0  A4D8               	btfss	status,2,c
  8769  012FE2  D037               	goto	l7412
  8770                           
  8771                           ; BSR set to: 0
  8772  012FE4  5028               	movf	_compteurTimer0+1,w,c
  8773  012FE6  0A80               	xorlw	128
  8774  012FE8  0F80               	addlw	-128
  8775  012FEA  0E0E               	movlw	14
  8776  012FEC  B4D8               	btfsc	status,2,c
  8777  012FEE  5C27               	subwf	_compteurTimer0,w,c
  8778  012FF0  A0D8               	btfss	status,0,c
  8779  012FF2  D02F               	goto	l7412
  8780                           
  8781                           ; BSR set to: 0
  8782                           ;GSM.c: 73: {
  8783                           ;GSM.c: 74: send_cr();
  8784  012FF4  ECF7  F0A7         	call	_send_cr	;wreg free
  8785                           
  8786                           ;GSM.c: 75: CtoS[0] = 'k';
  8787  012FF8  0100               	movlb	0	; () banked
  8788  012FFA  6FDF               	movwf	??_POST& (0+255),b
  8789  012FFC  0E6B               	movlw	107
  8790  012FFE  0100               	movlb	0	; () banked
  8791  013000  0100               	movlb	0	; () banked
  8792  013002  6FC0               	movwf	_CtoS& (0+255),b
  8793  013004  0100               	movlb	0	; () banked
  8794  013006  51DF               	movf	??_POST& (0+255),w,b
  8795                           
  8796                           ; BSR set to: 0
  8797                           ;GSM.c: 76: writeUsart1Trame(CtoS,0xFFFF,0x21);
  8798  013008  0100               	movlb	0	; () banked
  8799  01300A  0E00               	movlw	high _CtoS
  8800  01300C  0100               	movlb	0	; () banked
  8801  01300E  0100               	movlb	0	; () banked
  8802  013010  6FC5               	movwf	(writeUsart1Trame@datas2+1)& (0+255),b
  8803  013012  0100               	movlb	0	; () banked
  8804  013014  0EC0               	movlw	low _CtoS
  8805  013016  0100               	movlb	0	; () banked
  8806  013018  0100               	movlb	0	; () banked
  8807  01301A  6FC4               	movwf	writeUsart1Trame@datas2& (0+255),b
  8808  01301C  0EFF               	movlw	255
  8809  01301E  0100               	movlb	0	; () banked
  8810  013020  0100               	movlb	0	; () banked
  8811  013022  6FC7               	movwf	(writeUsart1Trame@datatime+1)& (0+255),b
  8812  013024  0EFF               	movlw	255
  8813  013026  0100               	movlb	0	; () banked
  8814  013028  6FC6               	movwf	writeUsart1Trame@datatime& (0+255),b
  8815  01302A  0E00               	movlw	0
  8816  01302C  0100               	movlb	0	; () banked
  8817  01302E  0100               	movlb	0	; () banked
  8818  013030  6FC9               	movwf	(writeUsart1Trame@id+1)& (0+255),b
  8819  013032  0E21               	movlw	33
  8820  013034  0100               	movlb	0	; () banked
  8821  013036  6FC8               	movwf	writeUsart1Trame@id& (0+255),b
  8822  013038  ECA9  F09F         	call	_writeUsart1Trame	;wreg free
  8823                           
  8824                           ;GSM.c: 77: mcPostGSM =12;
  8825  01303C  0E00               	movlw	0
  8826  01303E  0100               	movlb	0	; () banked
  8827  013040  0100               	movlb	0	; () banked
  8828  013042  6F83               	movwf	(_mcPostGSM+1)& (0+255),b
  8829  013044  0E0C               	movlw	12
  8830  013046  0100               	movlb	0	; () banked
  8831  013048  6F82               	movwf	_mcPostGSM& (0+255),b
  8832                           
  8833                           ; BSR set to: 0
  8834                           ;GSM.c: 78: compteurTimer0 = 10;
  8835  01304A  0E00               	movlw	0
  8836  01304C  6E28               	movwf	_compteurTimer0+1,c
  8837  01304E  0E0A               	movlw	10
  8838  013050  6E27               	movwf	_compteurTimer0,c
  8839  013052                     l7412:
  8840                           
  8841                           ; BSR set to: 0
  8842                           ;GSM.c: 79: }
  8843                           ;GSM.c: 80: if(mcPostGSM ==12 && compteurTimer0 >= 14)
  8844  013052  0100               	movlb	0	; () banked
  8845  013054  0100               	movlb	0	; () banked
  8846  013056  5182               	movf	_mcPostGSM& (0+255),w,b
  8847  013058  0A0C               	xorlw	12
  8848  01305A  1183               	iorwf	(_mcPostGSM+1)& (0+255),w,b
  8849  01305C  A4D8               	btfss	status,2,c
  8850  01305E  D037               	goto	l7426
  8851                           
  8852                           ; BSR set to: 0
  8853  013060  5028               	movf	_compteurTimer0+1,w,c
  8854  013062  0A80               	xorlw	128
  8855  013064  0F80               	addlw	-128
  8856  013066  0E0E               	movlw	14
  8857  013068  B4D8               	btfsc	status,2,c
  8858  01306A  5C27               	subwf	_compteurTimer0,w,c
  8859  01306C  A0D8               	btfss	status,0,c
  8860  01306E  D02F               	goto	l7426
  8861                           
  8862                           ; BSR set to: 0
  8863                           ;GSM.c: 81: {
  8864                           ;GSM.c: 82: send_cr();
  8865  013070  ECF7  F0A7         	call	_send_cr	;wreg free
  8866                           
  8867                           ;GSM.c: 83: CtoS[0] = 'l';
  8868  013074  0100               	movlb	0	; () banked
  8869  013076  6FDF               	movwf	??_POST& (0+255),b
  8870  013078  0E6C               	movlw	108
  8871  01307A  0100               	movlb	0	; () banked
  8872  01307C  0100               	movlb	0	; () banked
  8873  01307E  6FC0               	movwf	_CtoS& (0+255),b
  8874  013080  0100               	movlb	0	; () banked
  8875  013082  51DF               	movf	??_POST& (0+255),w,b
  8876                           
  8877                           ; BSR set to: 0
  8878                           ;GSM.c: 84: writeUsart1Trame(CtoS,0xFFFF,0x21);
  8879  013084  0100               	movlb	0	; () banked
  8880  013086  0E00               	movlw	high _CtoS
  8881  013088  0100               	movlb	0	; () banked
  8882  01308A  0100               	movlb	0	; () banked
  8883  01308C  6FC5               	movwf	(writeUsart1Trame@datas2+1)& (0+255),b
  8884  01308E  0100               	movlb	0	; () banked
  8885  013090  0EC0               	movlw	low _CtoS
  8886  013092  0100               	movlb	0	; () banked
  8887  013094  0100               	movlb	0	; () banked
  8888  013096  6FC4               	movwf	writeUsart1Trame@datas2& (0+255),b
  8889  013098  0EFF               	movlw	255
  8890  01309A  0100               	movlb	0	; () banked
  8891  01309C  0100               	movlb	0	; () banked
  8892  01309E  6FC7               	movwf	(writeUsart1Trame@datatime+1)& (0+255),b
  8893  0130A0  0EFF               	movlw	255
  8894  0130A2  0100               	movlb	0	; () banked
  8895  0130A4  6FC6               	movwf	writeUsart1Trame@datatime& (0+255),b
  8896  0130A6  0E00               	movlw	0
  8897  0130A8  0100               	movlb	0	; () banked
  8898  0130AA  0100               	movlb	0	; () banked
  8899  0130AC  6FC9               	movwf	(writeUsart1Trame@id+1)& (0+255),b
  8900  0130AE  0E21               	movlw	33
  8901  0130B0  0100               	movlb	0	; () banked
  8902  0130B2  6FC8               	movwf	writeUsart1Trame@id& (0+255),b
  8903  0130B4  ECA9  F09F         	call	_writeUsart1Trame	;wreg free
  8904                           
  8905                           ;GSM.c: 85: mcPostGSM =1;
  8906  0130B8  0E00               	movlw	0
  8907  0130BA  0100               	movlb	0	; () banked
  8908  0130BC  0100               	movlb	0	; () banked
  8909  0130BE  6F83               	movwf	(_mcPostGSM+1)& (0+255),b
  8910  0130C0  0E01               	movlw	1
  8911  0130C2  0100               	movlb	0	; () banked
  8912  0130C4  6F82               	movwf	_mcPostGSM& (0+255),b
  8913                           
  8914                           ; BSR set to: 0
  8915                           ;GSM.c: 86: compteurTimer0 = 10;
  8916  0130C6  0E00               	movlw	0
  8917  0130C8  6E28               	movwf	_compteurTimer0+1,c
  8918  0130CA  0E0A               	movlw	10
  8919  0130CC  6E27               	movwf	_compteurTimer0,c
  8920  0130CE                     l7426:
  8921                           
  8922                           ; BSR set to: 0
  8923                           ;GSM.c: 87: }
  8924                           ;GSM.c: 88: if(mcPostGSM ==1 && compteurTimer0 >= 14)
  8925  0130CE  0100               	movlb	0	; () banked
  8926  0130D0  0100               	movlb	0	; () banked
  8927  0130D2  0582               	decf	_mcPostGSM& (0+255),w,b
  8928  0130D4  1183               	iorwf	(_mcPostGSM+1)& (0+255),w,b
  8929  0130D6  A4D8               	btfss	status,2,c
  8930  0130D8  D0B0               	goto	l7470
  8931                           
  8932                           ; BSR set to: 0
  8933  0130DA  5028               	movf	_compteurTimer0+1,w,c
  8934  0130DC  0A80               	xorlw	128
  8935  0130DE  0F80               	addlw	-128
  8936  0130E0  0E0E               	movlw	14
  8937  0130E2  B4D8               	btfsc	status,2,c
  8938  0130E4  5C27               	subwf	_compteurTimer0,w,c
  8939  0130E6  A0D8               	btfss	status,0,c
  8940  0130E8  D0A8               	goto	l7470
  8941                           
  8942                           ; BSR set to: 0
  8943                           ;GSM.c: 89: {
  8944                           ;GSM.c: 90: compteurTimer0 = 0;
  8945  0130EA  0E00               	movlw	0
  8946  0130EC  6E28               	movwf	_compteurTimer0+1,c
  8947  0130EE  0E00               	movlw	0
  8948  0130F0  6E27               	movwf	_compteurTimer0,c
  8949                           
  8950                           ; BSR set to: 0
  8951                           ;GSM.c: 91: VOK = 0;
  8952  0130F2  0100               	movlb	0	; () banked
  8953  0130F4  6FDF               	movwf	??_POST& (0+255),b
  8954  0130F6  0E00               	movlw	0
  8955  0130F8  0100               	movlb	0	; () banked
  8956  0130FA  0100               	movlb	0	; () banked
  8957  0130FC  6FF0               	movwf	_VOK& (0+255),b
  8958  0130FE  0100               	movlb	0	; () banked
  8959  013100  51DF               	movf	??_POST& (0+255),w,b
  8960                           
  8961                           ; BSR set to: 0
  8962                           ;GSM.c: 92: mcPostGSM =2;
  8963  013102  0E00               	movlw	0
  8964  013104  0100               	movlb	0	; () banked
  8965  013106  0100               	movlb	0	; () banked
  8966  013108  6F83               	movwf	(_mcPostGSM+1)& (0+255),b
  8967  01310A  0E02               	movlw	2
  8968  01310C  0100               	movlb	0	; () banked
  8969  01310E  6F82               	movwf	_mcPostGSM& (0+255),b
  8970                           
  8971                           ; BSR set to: 0
  8972                           ;GSM.c: 93: char STrLenghC[4]="\0";
  8973  013110  C074  F0E0         	movff	POST@F9759,POST@STrLenghC
  8974  013114  C075  F0E1         	movff	POST@F9759+1,POST@STrLenghC+1
  8975  013118  C076  F0E2         	movff	POST@F9759+2,POST@STrLenghC+2
  8976  01311C  C077  F0E3         	movff	POST@F9759+3,POST@STrLenghC+3
  8977                           
  8978                           ; BSR set to: 0
  8979                           ;GSM.c: 94: sendJsonDO();
  8980  013120  EC00  F080         	call	_sendJsonDO	;wreg free
  8981                           
  8982                           ;GSM.c: 95: int STrLenghI = 0;
  8983  013124  0E00               	movlw	0
  8984  013126  0100               	movlb	0	; () banked
  8985  013128  0100               	movlb	0	; () banked
  8986  01312A  6FE5               	movwf	(POST@STrLenghI+1)& (0+255),b
  8987  01312C  0E00               	movlw	0
  8988  01312E  0100               	movlb	0	; () banked
  8989  013130  6FE4               	movwf	POST@STrLenghI& (0+255),b
  8990                           
  8991                           ; BSR set to: 0
  8992                           ;GSM.c: 96: STrLenghI = strlen(dataToSend);
  8993  013132  0E02               	movlw	high _dataToSend
  8994  013134  0100               	movlb	0	; () banked
  8995  013136  0100               	movlb	0	; () banked
  8996  013138  6FC9               	movwf	(strlen@s+1)& (0+255),b
  8997  01313A  0E80               	movlw	low _dataToSend
  8998  01313C  0100               	movlb	0	; () banked
  8999  01313E  0100               	movlb	0	; () banked
  9000  013140  6FC8               	movwf	strlen@s& (0+255),b
  9001  013142  ECFF  F0A5         	call	_strlen	;wreg free
  9002  013146  0100               	movlb	0	; () banked
  9003  013148  C0C8  F0E4         	movff	?_strlen,POST@STrLenghI
  9004  01314C  0100               	movlb	0	; () banked
  9005  01314E  C0C9  F0E5         	movff	?_strlen+1,POST@STrLenghI+1
  9006                           
  9007                           ; BSR set to: 0
  9008                           ;GSM.c: 97: STrLenghI += -2;
  9009  013152  0100               	movlb	0	; () banked
  9010  013154  0EFE               	movlw	254
  9011  013156  0100               	movlb	0	; () banked
  9012  013158  27E4               	addwf	POST@STrLenghI& (0+255),f,b
  9013  01315A  0EFF               	movlw	255
  9014  01315C  0100               	movlb	0	; () banked
  9015  01315E  23E5               	addwfc	(POST@STrLenghI+1)& (0+255),f,b
  9016                           
  9017                           ; BSR set to: 0
  9018                           ;GSM.c: 98: itoa(STrLenghC,STrLenghI,10);
  9019  013160  0100               	movlb	0	; () banked
  9020  013162  0E00               	movlw	high POST@STrLenghC
  9021  013164  0100               	movlb	0	; () banked
  9022  013166  0100               	movlb	0	; () banked
  9023  013168  6FD4               	movwf	(itoa@buf+1)& (0+255),b
  9024  01316A  0100               	movlb	0	; () banked
  9025  01316C  0EE0               	movlw	low POST@STrLenghC
  9026  01316E  0100               	movlb	0	; () banked
  9027  013170  0100               	movlb	0	; () banked
  9028  013172  6FD3               	movwf	itoa@buf& (0+255),b
  9029  013174  C0E4  F0D5         	movff	POST@STrLenghI,itoa@val
  9030  013178  C0E5  F0D6         	movff	POST@STrLenghI+1,itoa@val+1
  9031  01317C  0E00               	movlw	0
  9032  01317E  0100               	movlb	0	; () banked
  9033  013180  0100               	movlb	0	; () banked
  9034  013182  6FD8               	movwf	(itoa@base+1)& (0+255),b
  9035  013184  0E0A               	movlw	10
  9036  013186  0100               	movlb	0	; () banked
  9037  013188  6FD7               	movwf	itoa@base& (0+255),b
  9038  01318A  ECB1  F0A6         	call	_itoa	;wreg free
  9039                           
  9040                           ;GSM.c: 99: VPH = 0;
  9041  01318E  0100               	movlb	0	; () banked
  9042  013190  6FDF               	movwf	??_POST& (0+255),b
  9043  013192  0E00               	movlw	0
  9044  013194  0100               	movlb	0	; () banked
  9045  013196  0100               	movlb	0	; () banked
  9046  013198  6F93               	movwf	_VPH& (0+255),b
  9047  01319A  0100               	movlb	0	; () banked
  9048  01319C  51DF               	movf	??_POST& (0+255),w,b
  9049                           
  9050                           ; BSR set to: 0
  9051                           ;GSM.c: 100: writeUsart2((char*)"AT+HTTPDATA=");
  9052  01319E  0EFF               	movlw	high STR_6
  9053  0131A0  0100               	movlb	0	; () banked
  9054  0131A2  0100               	movlb	0	; () banked
  9055  0131A4  6FCF               	movwf	(writeUsart2@datas+1)& (0+255),b
  9056  0131A6  0E15               	movlw	low STR_6
  9057  0131A8  0100               	movlb	0	; () banked
  9058  0131AA  0100               	movlb	0	; () banked
  9059  0131AC  6FCE               	movwf	writeUsart2@datas& (0+255),b
  9060  0131AE  EC40  F0A4         	call	_writeUsart2	;wreg free
  9061                           
  9062                           ;GSM.c: 101: commun_delaiMS((int)500);
  9063  0131B2  0E01               	movlw	1
  9064  0131B4  0100               	movlb	0	; () banked
  9065  0131B6  0100               	movlb	0	; () banked
  9066  0131B8  6FCB               	movwf	(commun_delaiMS@ms+1)& (0+255),b
  9067  0131BA  0EF4               	movlw	244
  9068  0131BC  0100               	movlb	0	; () banked
  9069  0131BE  6FCA               	movwf	commun_delaiMS@ms& (0+255),b
  9070  0131C0  EC1A  F0A7         	call	_commun_delaiMS	;wreg free
  9071                           
  9072                           ;GSM.c: 102: writeUsart2(STrLenghC);
  9073  0131C4  0100               	movlb	0	; () banked
  9074  0131C6  0E00               	movlw	high POST@STrLenghC
  9075  0131C8  0100               	movlb	0	; () banked
  9076  0131CA  0100               	movlb	0	; () banked
  9077  0131CC  6FCF               	movwf	(writeUsart2@datas+1)& (0+255),b
  9078  0131CE  0100               	movlb	0	; () banked
  9079  0131D0  0EE0               	movlw	low POST@STrLenghC
  9080  0131D2  0100               	movlb	0	; () banked
  9081  0131D4  0100               	movlb	0	; () banked
  9082  0131D6  6FCE               	movwf	writeUsart2@datas& (0+255),b
  9083  0131D8  EC40  F0A4         	call	_writeUsart2	;wreg free
  9084                           
  9085                           ;GSM.c: 103: commun_delaiMS((int)500);
  9086  0131DC  0E01               	movlw	1
  9087  0131DE  0100               	movlb	0	; () banked
  9088  0131E0  0100               	movlb	0	; () banked
  9089  0131E2  6FCB               	movwf	(commun_delaiMS@ms+1)& (0+255),b
  9090  0131E4  0EF4               	movlw	244
  9091  0131E6  0100               	movlb	0	; () banked
  9092  0131E8  6FCA               	movwf	commun_delaiMS@ms& (0+255),b
  9093  0131EA  EC1A  F0A7         	call	_commun_delaiMS	;wreg free
  9094                           
  9095                           ;GSM.c: 104: send_char2USART(',');
  9096  0131EE  0E2C               	movlw	44
  9097  0131F0  ECE3  F0A7         	call	_send_char2USART
  9098                           
  9099                           ;GSM.c: 105: commun_delaiMS(50);
  9100  0131F4  0E00               	movlw	0
  9101  0131F6  0100               	movlb	0	; () banked
  9102  0131F8  0100               	movlb	0	; () banked
  9103  0131FA  6FCB               	movwf	(commun_delaiMS@ms+1)& (0+255),b
  9104  0131FC  0E32               	movlw	50
  9105  0131FE  0100               	movlb	0	; () banked
  9106  013200  6FCA               	movwf	commun_delaiMS@ms& (0+255),b
  9107  013202  EC1A  F0A7         	call	_commun_delaiMS	;wreg free
  9108                           
  9109                           ;GSM.c: 106: writeUsart2((char*)"20000");
  9110  013206  0EFF               	movlw	high STR_7
  9111  013208  0100               	movlb	0	; () banked
  9112  01320A  0100               	movlb	0	; () banked
  9113  01320C  6FCF               	movwf	(writeUsart2@datas+1)& (0+255),b
  9114  01320E  0EE0               	movlw	low STR_7
  9115  013210  0100               	movlb	0	; () banked
  9116  013212  0100               	movlb	0	; () banked
  9117  013214  6FCE               	movwf	writeUsart2@datas& (0+255),b
  9118  013216  EC40  F0A4         	call	_writeUsart2	;wreg free
  9119                           
  9120                           ;GSM.c: 107: commun_delaiMS((int)500);
  9121  01321A  0E01               	movlw	1
  9122  01321C  0100               	movlb	0	; () banked
  9123  01321E  0100               	movlb	0	; () banked
  9124  013220  6FCB               	movwf	(commun_delaiMS@ms+1)& (0+255),b
  9125  013222  0EF4               	movlw	244
  9126  013224  0100               	movlb	0	; () banked
  9127  013226  6FCA               	movwf	commun_delaiMS@ms& (0+255),b
  9128  013228  EC1A  F0A7         	call	_commun_delaiMS	;wreg free
  9129                           
  9130                           ;GSM.c: 108: send_cr();
  9131  01322C  ECF7  F0A7         	call	_send_cr	;wreg free
  9132                           
  9133                           ;GSM.c: 109: compteurTimer0 = 10;
  9134  013230  0E00               	movlw	0
  9135  013232  6E28               	movwf	_compteurTimer0+1,c
  9136  013234  0E0A               	movlw	10
  9137  013236  6E27               	movwf	_compteurTimer0,c
  9138                           
  9139                           ;GSM.c: 110: }
  9140  013238  0012               	return	
  9141  01323A                     l7470:
  9142                           
  9143                           ;GSM.c: 111: else if(mcPostGSM ==2 && VOK && compteurTimer0 >= 11)
  9144  01323A  0100               	movlb	0	; () banked
  9145  01323C  0100               	movlb	0	; () banked
  9146  01323E  5182               	movf	_mcPostGSM& (0+255),w,b
  9147  013240  0A02               	xorlw	2
  9148  013242  1183               	iorwf	(_mcPostGSM+1)& (0+255),w,b
  9149  013244  A4D8               	btfss	status,2,c
  9150  013246  D02B               	goto	l7484
  9151                           
  9152                           ; BSR set to: 0
  9153  013248  0100               	movlb	0	; () banked
  9154  01324A  0100               	movlb	0	; () banked
  9155  01324C  51F0               	movf	_VOK& (0+255),w,b
  9156  01324E  B4D8               	btfsc	status,2,c
  9157  013250  D026               	goto	l7484
  9158                           
  9159                           ; BSR set to: 0
  9160  013252  5028               	movf	_compteurTimer0+1,w,c
  9161  013254  0A80               	xorlw	128
  9162  013256  0F80               	addlw	-128
  9163  013258  0E0B               	movlw	11
  9164  01325A  B4D8               	btfsc	status,2,c
  9165  01325C  5C27               	subwf	_compteurTimer0,w,c
  9166  01325E  A0D8               	btfss	status,0,c
  9167  013260  D01E               	goto	l7484
  9168                           
  9169                           ; BSR set to: 0
  9170                           ;GSM.c: 112: {
  9171                           ;GSM.c: 113: VOK = 0;
  9172  013262  0100               	movlb	0	; () banked
  9173  013264  6FDF               	movwf	??_POST& (0+255),b
  9174  013266  0E00               	movlw	0
  9175  013268  0100               	movlb	0	; () banked
  9176  01326A  0100               	movlb	0	; () banked
  9177  01326C  6FF0               	movwf	_VOK& (0+255),b
  9178  01326E  0100               	movlb	0	; () banked
  9179  013270  51DF               	movf	??_POST& (0+255),w,b
  9180                           
  9181                           ; BSR set to: 0
  9182                           ;GSM.c: 114: mcPostGSM =3;
  9183  013272  0E00               	movlw	0
  9184  013274  0100               	movlb	0	; () banked
  9185  013276  0100               	movlb	0	; () banked
  9186  013278  6F83               	movwf	(_mcPostGSM+1)& (0+255),b
  9187  01327A  0E03               	movlw	3
  9188  01327C  0100               	movlb	0	; () banked
  9189  01327E  6F82               	movwf	_mcPostGSM& (0+255),b
  9190                           
  9191                           ; BSR set to: 0
  9192                           ;GSM.c: 117: writeUsart2(dataToSend);
  9193  013280  0E02               	movlw	high _dataToSend
  9194  013282  0100               	movlb	0	; () banked
  9195  013284  0100               	movlb	0	; () banked
  9196  013286  6FCF               	movwf	(writeUsart2@datas+1)& (0+255),b
  9197  013288  0E80               	movlw	low _dataToSend
  9198  01328A  0100               	movlb	0	; () banked
  9199  01328C  0100               	movlb	0	; () banked
  9200  01328E  6FCE               	movwf	writeUsart2@datas& (0+255),b
  9201  013290  EC40  F0A4         	call	_writeUsart2	;wreg free
  9202                           
  9203                           ;GSM.c: 118: compteurTimer0 = 10;
  9204  013294  0E00               	movlw	0
  9205  013296  6E28               	movwf	_compteurTimer0+1,c
  9206  013298  0E0A               	movlw	10
  9207  01329A  6E27               	movwf	_compteurTimer0,c
  9208                           
  9209                           ;GSM.c: 119: }
  9210  01329C  0012               	return	
  9211  01329E                     l7484:
  9212                           
  9213                           ;GSM.c: 120: else if(mcPostGSM ==3 && VOK && compteurTimer0 >= 11)
  9214  01329E  0100               	movlb	0	; () banked
  9215  0132A0  0100               	movlb	0	; () banked
  9216  0132A2  5182               	movf	_mcPostGSM& (0+255),w,b
  9217  0132A4  0A03               	xorlw	3
  9218  0132A6  1183               	iorwf	(_mcPostGSM+1)& (0+255),w,b
  9219  0132A8  A4D8               	btfss	status,2,c
  9220  0132AA  0012               	return	
  9221                           
  9222                           ; BSR set to: 0
  9223  0132AC  0100               	movlb	0	; () banked
  9224  0132AE  0100               	movlb	0	; () banked
  9225  0132B0  51F0               	movf	_VOK& (0+255),w,b
  9226  0132B2  B4D8               	btfsc	status,2,c
  9227  0132B4  0012               	return	
  9228                           
  9229                           ; BSR set to: 0
  9230  0132B6  5028               	movf	_compteurTimer0+1,w,c
  9231  0132B8  0A80               	xorlw	128
  9232  0132BA  0F80               	addlw	-128
  9233  0132BC  0E0B               	movlw	11
  9234  0132BE  B4D8               	btfsc	status,2,c
  9235  0132C0  5C27               	subwf	_compteurTimer0,w,c
  9236  0132C2  A0D8               	btfss	status,0,c
  9237  0132C4  0012               	return	
  9238                           
  9239                           ; BSR set to: 0
  9240                           ;GSM.c: 121: {
  9241                           ;GSM.c: 122: compteurTimer0 = 0;
  9242  0132C6  0E00               	movlw	0
  9243  0132C8  6E28               	movwf	_compteurTimer0+1,c
  9244  0132CA  0E00               	movlw	0
  9245  0132CC  6E27               	movwf	_compteurTimer0,c
  9246                           
  9247                           ; BSR set to: 0
  9248                           ;GSM.c: 123: VOK = 0;
  9249  0132CE  0100               	movlb	0	; () banked
  9250  0132D0  6FDF               	movwf	??_POST& (0+255),b
  9251  0132D2  0E00               	movlw	0
  9252  0132D4  0100               	movlb	0	; () banked
  9253  0132D6  0100               	movlb	0	; () banked
  9254  0132D8  6FF0               	movwf	_VOK& (0+255),b
  9255  0132DA  0100               	movlb	0	; () banked
  9256  0132DC  51DF               	movf	??_POST& (0+255),w,b
  9257                           
  9258                           ; BSR set to: 0
  9259                           ;GSM.c: 124: mcPostGSM =0;
  9260  0132DE  0E00               	movlw	0
  9261  0132E0  0100               	movlb	0	; () banked
  9262  0132E2  0100               	movlb	0	; () banked
  9263  0132E4  6F83               	movwf	(_mcPostGSM+1)& (0+255),b
  9264  0132E6  0E00               	movlw	0
  9265  0132E8  0100               	movlb	0	; () banked
  9266  0132EA  6F82               	movwf	_mcPostGSM& (0+255),b
  9267                           
  9268                           ;GSM.c: 125: Vo=0;
  9269  0132EC  0100               	movlb	0	; () banked
  9270  0132EE  6FDF               	movwf	??_POST& (0+255),b
  9271  0132F0  0E00               	movlw	0
  9272  0132F2  0100               	movlb	0	; () banked
  9273  0132F4  0100               	movlb	0	; () banked
  9274  0132F6  6F96               	movwf	_Vo& (0+255),b
  9275  0132F8  0100               	movlb	0	; () banked
  9276  0132FA  51DF               	movf	??_POST& (0+255),w,b
  9277                           
  9278                           ;GSM.c: 126: VPOST = 0;
  9279  0132FC  0100               	movlb	0	; () banked
  9280  0132FE  6FDF               	movwf	??_POST& (0+255),b
  9281  013300  0E00               	movlw	0
  9282  013302  0100               	movlb	0	; () banked
  9283  013304  0100               	movlb	0	; () banked
  9284  013306  6F94               	movwf	_VPOST& (0+255),b
  9285  013308  0100               	movlb	0	; () banked
  9286  01330A  51DF               	movf	??_POST& (0+255),w,b
  9287                           
  9288                           ; BSR set to: 0
  9289                           ;GSM.c: 127: writeUsart2((char*)"AT+HTTPACTION=1");
  9290  01330C  0EFE               	movlw	high STR_8
  9291  01330E  0100               	movlb	0	; () banked
  9292  013310  0100               	movlb	0	; () banked
  9293  013312  6FCF               	movwf	(writeUsart2@datas+1)& (0+255),b
  9294  013314  0EDA               	movlw	low STR_8
  9295  013316  0100               	movlb	0	; () banked
  9296  013318  0100               	movlb	0	; () banked
  9297  01331A  6FCE               	movwf	writeUsart2@datas& (0+255),b
  9298  01331C  EC40  F0A4         	call	_writeUsart2	;wreg free
  9299                           
  9300                           ;GSM.c: 128: commun_delaiMS((int)500);
  9301  013320  0E01               	movlw	1
  9302  013322  0100               	movlb	0	; () banked
  9303  013324  0100               	movlb	0	; () banked
  9304  013326  6FCB               	movwf	(commun_delaiMS@ms+1)& (0+255),b
  9305  013328  0EF4               	movlw	244
  9306  01332A  0100               	movlb	0	; () banked
  9307  01332C  6FCA               	movwf	commun_delaiMS@ms& (0+255),b
  9308  01332E  EC1A  F0A7         	call	_commun_delaiMS	;wreg free
  9309                           
  9310                           ;GSM.c: 129: send_cr();
  9311  013332  ECF7  F0A7         	call	_send_cr	;wreg free
  9312                           
  9313                           ;GSM.c: 130: for(int v = 0;v>25;v++)
  9314  013336  0E00               	movlw	0
  9315  013338  0100               	movlb	0	; () banked
  9316  01333A  0100               	movlb	0	; () banked
  9317  01333C  6FE9               	movwf	(POST@v+1)& (0+255),b
  9318  01333E  0E00               	movlw	0
  9319  013340  0100               	movlb	0	; () banked
  9320  013342  6FE8               	movwf	POST@v& (0+255),b
  9321  013344                     
  9322                           ; BSR set to: 0
  9323  013344  0100               	movlb	0	; () banked
  9324  013346  0100               	movlb	0	; () banked
  9325  013348  51E9               	movf	(POST@v+1)& (0+255),w,b
  9326  01334A  0A80               	xorlw	128
  9327  01334C  6EF3               	movwf	prodl,c
  9328  01334E  0E80               	movlw	128
  9329  013350  5CF3               	subwf	prodl,w,c
  9330  013352  0E1A               	movlw	26
  9331  013354  B4D8               	btfsc	status,2,c
  9332  013356  5DE8               	subwf	POST@v& (0+255),w,b
  9333  013358  A0D8               	btfss	status,0,c
  9334  01335A  D021               	goto	l7514
  9335                           
  9336                           ; BSR set to: 0
  9337                           ;GSM.c: 131: {
  9338                           ;GSM.c: 132: timeReceived[v]='\0';
  9339                           
  9340                           ; BSR set to: 0
  9341                           
  9342                           ; BSR set to: 0
  9343  01335C  0101               	movlb	1	; () banked
  9344  01335E  0E80               	movlw	low _timeReceived
  9345  013360  0100               	movlb	0	; () banked
  9346  013362  0100               	movlb	0	; () banked
  9347  013364  25E8               	addwf	POST@v& (0+255),w,b
  9348  013366  6ED9               	movwf	fsr2l,c
  9349  013368  0101               	movlb	1	; () banked
  9350  01336A  0E01               	movlw	high _timeReceived
  9351  01336C  0100               	movlb	0	; () banked
  9352  01336E  0100               	movlb	0	; () banked
  9353  013370  21E9               	addwfc	(POST@v+1)& (0+255),w,b
  9354  013372  6EDA               	movwf	fsr2h,c
  9355  013374  0E00               	movlw	0
  9356  013376  6EDF               	movwf	indf2,c
  9357                           
  9358                           ;GSM.c: 133: timetoPost[v]='\0';
  9359  013378  0100               	movlb	0	; () banked
  9360  01337A  0E9B               	movlw	low _timetoPost
  9361  01337C  0100               	movlb	0	; () banked
  9362  01337E  0100               	movlb	0	; () banked
  9363  013380  25E8               	addwf	POST@v& (0+255),w,b
  9364  013382  6ED9               	movwf	fsr2l,c
  9365  013384  0100               	movlb	0	; () banked
  9366  013386  0E00               	movlw	high _timetoPost
  9367  013388  0100               	movlb	0	; () banked
  9368  01338A  0100               	movlb	0	; () banked
  9369  01338C  21E9               	addwfc	(POST@v+1)& (0+255),w,b
  9370  01338E  6EDA               	movwf	fsr2h,c
  9371  013390  0E00               	movlw	0
  9372  013392  6EDF               	movwf	indf2,c
  9373                           
  9374                           ; BSR set to: 0
  9375  013394  0100               	movlb	0	; () banked
  9376  013396  0100               	movlb	0	; () banked
  9377  013398  4BE8               	infsnz	POST@v& (0+255),f,b
  9378  01339A  2BE9               	incf	(POST@v+1)& (0+255),f,b
  9379  01339C  D7D3               	goto	L8
  9380  01339E                     l7514:
  9381                           
  9382                           ; BSR set to: 0
  9383                           ;GSM.c: 134: }
  9384                           ;GSM.c: 135: for(int erase =0;erase<=1500-1;erase++)
  9385  01339E  0E00               	movlw	0
  9386  0133A0  0100               	movlb	0	; () banked
  9387  0133A2  0100               	movlb	0	; () banked
  9388  0133A4  6FE7               	movwf	(POST@erase+1)& (0+255),b
  9389  0133A6  0E00               	movlw	0
  9390  0133A8  0100               	movlb	0	; () banked
  9391  0133AA  6FE6               	movwf	POST@erase& (0+255),b
  9392  0133AC                     
  9393                           ; BSR set to: 0
  9394  0133AC  0100               	movlb	0	; () banked
  9395  0133AE  0100               	movlb	0	; () banked
  9396  0133B0  51E7               	movf	(POST@erase+1)& (0+255),w,b
  9397  0133B2  0A80               	xorlw	128
  9398  0133B4  0F7B               	addlw	-133
  9399  0133B6  0EDC               	movlw	220
  9400  0133B8  B4D8               	btfsc	status,2,c
  9401  0133BA  5DE6               	subwf	POST@erase& (0+255),w,b
  9402  0133BC  B0D8               	btfsc	status,0,c
  9403  0133BE  0012               	return	
  9404                           
  9405                           ; BSR set to: 0
  9406                           ;GSM.c: 136: {
  9407                           ;GSM.c: 137: dataToSend[erase] = '\0';
  9408                           
  9409                           ; BSR set to: 0
  9410                           
  9411                           ; BSR set to: 0
  9412  0133C0  0E80               	movlw	low _dataToSend
  9413  0133C2  0100               	movlb	0	; () banked
  9414  0133C4  0100               	movlb	0	; () banked
  9415  0133C6  25E6               	addwf	POST@erase& (0+255),w,b
  9416  0133C8  6ED9               	movwf	fsr2l,c
  9417  0133CA  0E02               	movlw	high _dataToSend
  9418  0133CC  0100               	movlb	0	; () banked
  9419  0133CE  0100               	movlb	0	; () banked
  9420  0133D0  21E7               	addwfc	(POST@erase+1)& (0+255),w,b
  9421  0133D2  6EDA               	movwf	fsr2h,c
  9422  0133D4  0E00               	movlw	0
  9423  0133D6  6EDF               	movwf	indf2,c
  9424                           
  9425                           ; BSR set to: 0
  9426  0133D8  0100               	movlb	0	; () banked
  9427  0133DA  0100               	movlb	0	; () banked
  9428  0133DC  4BE6               	infsnz	POST@erase& (0+255),f,b
  9429  0133DE  2BE7               	incf	(POST@erase+1)& (0+255),f,b
  9430  0133E0  D7E5               	goto	L9
  9431  0133E2                     __end_of_POST:
  9432                           	opt stack 0
  9433                           tblptru	equ	0xFF8
  9434                           tblptrh	equ	0xFF7
  9435                           tblptrl	equ	0xFF6
  9436                           tablat	equ	0xFF5
  9437                           prodl	equ	0xFF3
  9438                           intcon	equ	0xFF2
  9439                           intcon2	equ	0xFF1
  9440                           postinc0	equ	0xFEE
  9441                           wreg	equ	0xFE8
  9442                           indf1	equ	0xFE7
  9443                           postdec1	equ	0xFE5
  9444                           fsr1h	equ	0xFE2
  9445                           fsr1l	equ	0xFE1
  9446                           indf2	equ	0xFDF
  9447                           postinc2	equ	0xFDE
  9448                           postdec2	equ	0xFDD
  9449                           fsr2h	equ	0xFDA
  9450                           fsr2l	equ	0xFD9
  9451                           status	equ	0xFD8
  9452                           
  9453 ;; *************** function _writeUsart2 *****************
  9454 ;; Defined at:
  9455 ;;		line 23 in file "usart.c"
  9456 ;; Parameters:    Size  Location     Type
  9457 ;;  datas           2   12[BANK0 ] PTR unsigned char 
  9458 ;;		 -> STR_123(12), STR_122(12), STR_121(16), STR_120(58), 
  9459 ;;		 -> STR_119(45), STR_118(20), STR_117(12), STR_116(13), 
  9460 ;;		 -> STR_115(25), STR_114(26), STR_113(28), STR_112(12), 
  9461 ;;		 -> STR_111(12), STR_8(16), STR_7(6), STR_6(13), 
  9462 ;;		 -> dataToSend(1500), POST@STrLenghC(4), STR_5(9), 
  9463 ;; Auto vars:     Size  Location     Type
  9464 ;;  lengh           2   16[BANK0 ] int 
  9465 ;; Return value:  Size  Location     Type
  9466 ;;		None               void
  9467 ;; Registers used:
  9468 ;;		wreg, fsr0l, fsr0h, status,2, status,0, tblptrl, tblptrh, tblptru, cstack
  9469 ;; Tracked objects:
  9470 ;;		On entry : 0/0
  9471 ;;		On exit  : 0/0
  9472 ;;		Unchanged: 0/0
  9473 ;; Data sizes:     COMRAM   BANK0   BANK1   BANK2   BANK3   BANK4   BANK5   BANK6   BANK7   BANK8   BANK9  BANK10  BANK1
      +1  BANK12  BANK13  BANK14
  9474 ;;      Params:         0       2       0       0       0       0       0       0       0       0       0       0       
      +0       0       0       0
  9475 ;;      Locals:         0       2       0       0       0       0       0       0       0       0       0       0       
      +0       0       0       0
  9476 ;;      Temps:          0       2       0       0       0       0       0       0       0       0       0       0       
      +0       0       0       0
  9477 ;;      Totals:         0       6       0       0       0       0       0       0       0       0       0       0       
      +0       0       0       0
  9478 ;;Total ram usage:        6 bytes
  9479 ;; Hardware stack levels used:    1
  9480 ;; Hardware stack levels required when called:    4
  9481 ;; This function calls:
  9482 ;;		_Write2USART
  9483 ;;		_strlen
  9484 ;; This function is called by:
  9485 ;;		_POST
  9486 ;;		_startGSM
  9487 ;;		_GET
  9488 ;;		_CloseGSM
  9489 ;; This function uses a non-reentrant model
  9490 ;;
  9491                           
  9492                           	psect	text16
  9493  014880                     __ptext16:
  9494                           	opt stack 0
  9495  014880                     _writeUsart2:
  9496                           	opt stack 25
  9497                           
  9498                           ;usart.c: 25: int lengh = 0 ;
  9499                           
  9500                           ;incstack = 0
  9501  014880  0E00               	movlw	0
  9502  014882  0100               	movlb	0	; () banked
  9503  014884  0100               	movlb	0	; () banked
  9504  014886  6FD3               	movwf	(writeUsart2@lengh+1)& (0+255),b
  9505  014888  0E00               	movlw	0
  9506  01488A  0100               	movlb	0	; () banked
  9507  01488C  6FD2               	movwf	writeUsart2@lengh& (0+255),b
  9508                           
  9509                           ;usart.c: 26: for(lengh = 0;lengh <= strlen(datas)-1;lengh++ )
  9510  01488E  0E00               	movlw	0
  9511  014890  0100               	movlb	0	; () banked
  9512  014892  0100               	movlb	0	; () banked
  9513  014894  6FD3               	movwf	(writeUsart2@lengh+1)& (0+255),b
  9514  014896  0E00               	movlw	0
  9515  014898  0100               	movlb	0	; () banked
  9516  01489A  6FD2               	movwf	writeUsart2@lengh& (0+255),b
  9517  01489C  D029               	goto	l7940
  9518  01489E                     l1131:
  9519  01489E  A2A8               	btfss	4008,1,c	;volatile
  9520  0148A0  D7FE               	goto	l1131
  9521                           
  9522                           ;usart.c: 29: Write2USART(datas[lengh]);
  9523  0148A2  0100               	movlb	0	; () banked
  9524  0148A4  C0CE  F0D0         	movff	writeUsart2@datas,??_writeUsart2
  9525  0148A8  0100               	movlb	0	; () banked
  9526  0148AA  C0CF  F0D1         	movff	writeUsart2@datas+1,??_writeUsart2+1
  9527  0148AE  0100               	movlb	0	; () banked
  9528  0148B0  0100               	movlb	0	; () banked
  9529  0148B2  51D2               	movf	writeUsart2@lengh& (0+255),w,b
  9530  0148B4  0100               	movlb	0	; () banked
  9531  0148B6  27D0               	addwf	??_writeUsart2& (0+255),f,b
  9532  0148B8  0100               	movlb	0	; () banked
  9533  0148BA  0100               	movlb	0	; () banked
  9534  0148BC  51D3               	movf	(writeUsart2@lengh+1)& (0+255),w,b
  9535  0148BE  0100               	movlb	0	; () banked
  9536  0148C0  23D1               	addwfc	(??_writeUsart2+1)& (0+255),f,b
  9537  0148C2  C0D0  FFF6         	movff	??_writeUsart2,tblptrl
  9538  0148C6  C0D1  FFF7         	movff	??_writeUsart2+1,tblptrh
  9539  0148CA  0E00               	movlw	low (__mediumconst shr (0+16))
  9540  0148CC  6EF8               	movwf	tblptru,c
  9541  0148CE  0E0E               	movlw	(high __ramtop+-1)
  9542  0148D0  64F7               	cpfsgt	tblptrh,c
  9543  0148D2  D003               	bra	u6697
  9544  0148D4  0008               	tblrd		*
  9545  0148D6  50F5               	movf	tablat,w,c
  9546  0148D8  D005               	bra	u6690
  9547  0148DA                     u6697:
  9548  0148DA  CFF6 FFE9          	movff	tblptrl,fsr0l
  9549  0148DE  CFF7 FFEA          	movff	tblptrh,fsr0h
  9550  0148E2  50EF               	movf	indf0,w,c
  9551  0148E4                     u6690:
  9552  0148E4  ECED  F0A7         	call	_Write2USART
  9553  0148E8  0100               	movlb	0	; () banked
  9554  0148EA  0100               	movlb	0	; () banked
  9555  0148EC  4BD2               	infsnz	writeUsart2@lengh& (0+255),f,b
  9556  0148EE  2BD3               	incf	(writeUsart2@lengh+1)& (0+255),f,b
  9557  0148F0                     l7940:
  9558                           
  9559                           ; BSR set to: 0
  9560  0148F0  0EFF               	movlw	255
  9561  0148F2  0100               	movlb	0	; () banked
  9562  0148F4  6FD0               	movwf	??_writeUsart2& (0+255),b
  9563  0148F6  0EFF               	movlw	255
  9564  0148F8  6FD1               	movwf	(??_writeUsart2+1)& (0+255),b
  9565  0148FA  0100               	movlb	0	; () banked
  9566  0148FC  0100               	movlb	0	; () banked
  9567  0148FE  C0CF  F0C9         	movff	writeUsart2@datas+1,strlen@s+1
  9568  014902  0100               	movlb	0	; () banked
  9569  014904  0100               	movlb	0	; () banked
  9570  014906  C0CE  F0C8         	movff	writeUsart2@datas,strlen@s
  9571  01490A  ECFF  F0A5         	call	_strlen	;wreg free
  9572  01490E  0100               	movlb	0	; () banked
  9573  014910  51D0               	movf	??_writeUsart2& (0+255),w,b
  9574  014912  0100               	movlb	0	; () banked
  9575  014914  0100               	movlb	0	; () banked
  9576  014916  27C8               	addwf	?_strlen& (0+255),f,b
  9577  014918  0100               	movlb	0	; () banked
  9578  01491A  51D1               	movf	(??_writeUsart2+1)& (0+255),w,b
  9579  01491C  0100               	movlb	0	; () banked
  9580  01491E  0100               	movlb	0	; () banked
  9581  014920  23C9               	addwfc	(?_strlen+1)& (0+255),f,b
  9582  014922  0100               	movlb	0	; () banked
  9583  014924  0100               	movlb	0	; () banked
  9584  014926  51D2               	movf	writeUsart2@lengh& (0+255),w,b
  9585  014928  0100               	movlb	0	; () banked
  9586  01492A  0100               	movlb	0	; () banked
  9587  01492C  5DC8               	subwf	?_strlen& (0+255),w,b
  9588  01492E  0100               	movlb	0	; () banked
  9589  014930  0100               	movlb	0	; () banked
  9590  014932  51D3               	movf	(writeUsart2@lengh+1)& (0+255),w,b
  9591  014934  0100               	movlb	0	; () banked
  9592  014936  0100               	movlb	0	; () banked
  9593  014938  59C9               	subwfb	(?_strlen+1)& (0+255),w,b
  9594  01493A  A0D8               	btfss	status,0,c
  9595                           
  9596                           ; BSR set to: 0
  9597                           
  9598                           ; BSR set to: 0
  9599  01493C  0012               	return	
  9600  01493E  D7AF               	goto	l1131
  9601  014940                     __end_of_writeUsart2:
  9602                           	opt stack 0
  9603                           tblptru	equ	0xFF8
  9604                           tblptrh	equ	0xFF7
  9605                           tblptrl	equ	0xFF6
  9606                           tablat	equ	0xFF5
  9607                           prodl	equ	0xFF3
  9608                           intcon	equ	0xFF2
  9609                           intcon2	equ	0xFF1
  9610                           indf0	equ	0xFEF
  9611                           postinc0	equ	0xFEE
  9612                           fsr0h	equ	0xFEA
  9613                           fsr0l	equ	0xFE9
  9614                           wreg	equ	0xFE8
  9615                           indf1	equ	0xFE7
  9616                           postdec1	equ	0xFE5
  9617                           fsr1h	equ	0xFE2
  9618                           fsr1l	equ	0xFE1
  9619                           indf2	equ	0xFDF
  9620                           postinc2	equ	0xFDE
  9621                           postdec2	equ	0xFDD
  9622                           fsr2h	equ	0xFDA
  9623                           fsr2l	equ	0xFD9
  9624                           status	equ	0xFD8
  9625                           
  9626 ;; *************** function _writeUsart1Trame *****************
  9627 ;; Defined at:
  9628 ;;		line 47 in file "usart.c"
  9629 ;; Parameters:    Size  Location     Type
  9630 ;;  datas2          2    2[BANK0 ] PTR unsigned char 
  9631 ;;		 -> CtoS(2), STR_4(2), STR_3(2), STR_2(2), 
  9632 ;;  datatime        2    4[BANK0 ] unsigned int 
  9633 ;;  id              2    6[BANK0 ] int 
  9634 ;; Auto vars:     Size  Location     Type
  9635 ;;  lengh           2   17[BANK0 ] int 
  9636 ;;  checksum        2   15[BANK0 ] int 
  9637 ;;  dataLengh       2   13[BANK0 ] int 
  9638 ;; Return value:  Size  Location     Type
  9639 ;;		None               void
  9640 ;; Registers used:
  9641 ;;		wreg, fsr0l, fsr0h, status,2, status,0, tblptrl, tblptrh, tblptru, cstack
  9642 ;; Tracked objects:
  9643 ;;		On entry : 0/0
  9644 ;;		On exit  : 0/0
  9645 ;;		Unchanged: 0/0
  9646 ;; Data sizes:     COMRAM   BANK0   BANK1   BANK2   BANK3   BANK4   BANK5   BANK6   BANK7   BANK8   BANK9  BANK10  BANK1
      +1  BANK12  BANK13  BANK14
  9647 ;;      Params:         0       6       0       0       0       0       0       0       0       0       0       0       
      +0       0       0       0
  9648 ;;      Locals:         0       6       0       0       0       0       0       0       0       0       0       0       
      +0       0       0       0
  9649 ;;      Temps:          0       5       0       0       0       0       0       0       0       0       0       0       
      +0       0       0       0
  9650 ;;      Totals:         0      17       0       0       0       0       0       0       0       0       0       0       
      +0       0       0       0
  9651 ;;Total ram usage:       17 bytes
  9652 ;; Hardware stack levels used:    1
  9653 ;; Hardware stack levels required when called:    5
  9654 ;; This function calls:
  9655 ;;		_send_char1USART
  9656 ;; This function is called by:
  9657 ;;		_sendGSM
  9658 ;;		_POST
  9659 ;; This function uses a non-reentrant model
  9660 ;;
  9661                           
  9662                           	psect	text17
  9663  013F52                     __ptext17:
  9664                           	opt stack 0
  9665  013F52                     _writeUsart1Trame:
  9666                           	opt stack 24
  9667                           
  9668                           ;usart.c: 49: int dataLengh = 0;
  9669                           
  9670                           ; BSR set to: 0
  9671                           ;incstack = 0
  9672  013F52  0E00               	movlw	0
  9673  013F54  0100               	movlb	0	; () banked
  9674  013F56  0100               	movlb	0	; () banked
  9675  013F58  6FD0               	movwf	(writeUsart1Trame@dataLengh+1)& (0+255),b
  9676  013F5A  0E00               	movlw	0
  9677  013F5C  0100               	movlb	0	; () banked
  9678  013F5E  6FCF               	movwf	writeUsart1Trame@dataLengh& (0+255),b
  9679                           
  9680                           ;usart.c: 50: int checksum = 0;
  9681  013F60  0E00               	movlw	0
  9682  013F62  0100               	movlb	0	; () banked
  9683  013F64  0100               	movlb	0	; () banked
  9684  013F66  6FD2               	movwf	(writeUsart1Trame@checksum+1)& (0+255),b
  9685  013F68  0E00               	movlw	0
  9686  013F6A  0100               	movlb	0	; () banked
  9687  013F6C  6FD1               	movwf	writeUsart1Trame@checksum& (0+255),b
  9688                           
  9689                           ; BSR set to: 0
  9690                           ;usart.c: 51: send_char1USART((char)0x73);
  9691  013F6E  0E73               	movlw	115
  9692  013F70  ECCF  F0A7         	call	_send_char1USART
  9693                           
  9694                           ;usart.c: 52: send_char1USART((char)0x7F);
  9695  013F74  0E7F               	movlw	127
  9696  013F76  ECCF  F0A7         	call	_send_char1USART
  9697                           
  9698                           ;usart.c: 53: switch(id)
  9699  013F7A  D04E               	goto	l7900
  9700  013F7C                     l7868:
  9701                           
  9702                           ;usart.c: 56: send_char1USART(6 >>8);
  9703  013F7C  0E00               	movlw	0
  9704  013F7E  ECCF  F0A7         	call	_send_char1USART
  9705                           
  9706                           ;usart.c: 57: send_char1USART(6 & 0x0FF);
  9707  013F82  0E06               	movlw	6
  9708  013F84  ECCF  F0A7         	call	_send_char1USART
  9709  013F88  D006               	goto	L10
  9710  013F8A                     l7872:
  9711                           
  9712                           ; BSR set to: 0
  9713                           ;usart.c: 61: send_char1USART(6 >>8);
  9714  013F8A  0E00               	movlw	0
  9715  013F8C  ECCF  F0A7         	call	_send_char1USART
  9716                           
  9717                           ;usart.c: 62: send_char1USART(6 & 0x0FF);
  9718  013F90  0E06               	movlw	6
  9719  013F92  ECCF  F0A7         	call	_send_char1USART
  9720  013F96                     L10:
  9721                           
  9722                           ;usart.c: 63: dataLengh = 6;
  9723  013F96  0E00               	movlw	0
  9724  013F98  0100               	movlb	0	; () banked
  9725  013F9A  0100               	movlb	0	; () banked
  9726  013F9C  6FD0               	movwf	(writeUsart1Trame@dataLengh+1)& (0+255),b
  9727  013F9E  0E06               	movlw	6
  9728  013FA0  D020               	goto	L12
  9729  013FA2                     l7876:
  9730                           
  9731                           ; BSR set to: 0
  9732                           ;usart.c: 67: send_char1USART(7 >>8);
  9733  013FA2  0E00               	movlw	0
  9734  013FA4  ECCF  F0A7         	call	_send_char1USART
  9735                           
  9736                           ;usart.c: 68: send_char1USART(7 & 0x0FF);
  9737  013FA8  0E07               	movlw	7
  9738  013FAA  ECCF  F0A7         	call	_send_char1USART
  9739                           
  9740                           ;usart.c: 69: dataLengh = 7;
  9741  013FAE  0E00               	movlw	0
  9742  013FB0  0100               	movlb	0	; () banked
  9743  013FB2  0100               	movlb	0	; () banked
  9744  013FB4  6FD0               	movwf	(writeUsart1Trame@dataLengh+1)& (0+255),b
  9745  013FB6  0E07               	movlw	7
  9746  013FB8  D014               	goto	L12
  9747  013FBA                     l7880:
  9748                           
  9749                           ; BSR set to: 0
  9750                           ;usart.c: 72: send_char1USART(6 >>8);
  9751  013FBA  0E00               	movlw	0
  9752  013FBC  ECCF  F0A7         	call	_send_char1USART
  9753                           
  9754                           ;usart.c: 73: send_char1USART(6 & 0x0FF);
  9755  013FC0  0E06               	movlw	6
  9756  013FC2  ECCF  F0A7         	call	_send_char1USART
  9757                           
  9758                           ;usart.c: 74: dataLengh = 6;
  9759  013FC6  0E00               	movlw	0
  9760  013FC8  0100               	movlb	0	; () banked
  9761  013FCA  0100               	movlb	0	; () banked
  9762  013FCC  6FD0               	movwf	(writeUsart1Trame@dataLengh+1)& (0+255),b
  9763  013FCE  0E06               	movlw	6
  9764  013FD0  0100               	movlb	0	; () banked
  9765  013FD2  6FCF               	movwf	writeUsart1Trame@dataLengh& (0+255),b
  9766  013FD4                     l7884:
  9767                           
  9768                           ; BSR set to: 0
  9769                           ;usart.c: 76: send_char1USART(3 >>8);
  9770  013FD4  0E00               	movlw	0
  9771  013FD6  ECCF  F0A7         	call	_send_char1USART
  9772                           
  9773                           ;usart.c: 77: send_char1USART(3 & 0x0FF);
  9774  013FDA  0E03               	movlw	3
  9775  013FDC  ECCF  F0A7         	call	_send_char1USART
  9776  013FE0  D009               	goto	L13
  9777  013FE2                     L12:
  9778  013FE2  0100               	movlb	0	; () banked
  9779  013FE4  6FCF               	movwf	writeUsart1Trame@dataLengh& (0+255),b
  9780                           
  9781                           ;usart.c: 79: break;
  9782  013FE6  D038               	goto	l7902
  9783  013FE8                     l7890:
  9784                           
  9785                           ; BSR set to: 0
  9786                           ;usart.c: 81: send_char1USART(3 >>8);
  9787  013FE8  0E00               	movlw	0
  9788  013FEA  ECCF  F0A7         	call	_send_char1USART
  9789                           
  9790                           ;usart.c: 82: send_char1USART(3 & 0x0FF);
  9791  013FEE  0E03               	movlw	3
  9792  013FF0  ECCF  F0A7         	call	_send_char1USART
  9793  013FF4                     L13:
  9794                           
  9795                           ;usart.c: 83: dataLengh = 3;
  9796  013FF4  0E00               	movlw	0
  9797  013FF6  0100               	movlb	0	; () banked
  9798  013FF8  0100               	movlb	0	; () banked
  9799  013FFA  6FD0               	movwf	(writeUsart1Trame@dataLengh+1)& (0+255),b
  9800  013FFC  0E03               	movlw	3
  9801  013FFE  D7F1               	goto	L12
  9802  014000                     l7894:
  9803                           
  9804                           ; BSR set to: 0
  9805                           ;usart.c: 86: send_char1USART(0 >>8);
  9806  014000  0E00               	movlw	0
  9807  014002  ECCF  F0A7         	call	_send_char1USART
  9808                           
  9809                           ;usart.c: 87: send_char1USART(0 & 0x0FF);
  9810  014006  0E00               	movlw	0
  9811  014008  ECCF  F0A7         	call	_send_char1USART
  9812                           
  9813                           ;usart.c: 88: dataLengh = 0;
  9814  01400C  0E00               	movlw	0
  9815  01400E  0100               	movlb	0	; () banked
  9816  014010  0100               	movlb	0	; () banked
  9817  014012  6FD0               	movwf	(writeUsart1Trame@dataLengh+1)& (0+255),b
  9818  014014  0E00               	movlw	0
  9819  014016  D7E5               	goto	L12
  9820  014018                     l7900:
  9821  014018  0100               	movlb	0	; () banked
  9822  01401A  C0C8  F0CA         	movff	writeUsart1Trame@id,??_writeUsart1Trame
  9823  01401E  0100               	movlb	0	; () banked
  9824  014020  C0C9  F0CB         	movff	writeUsart1Trame@id+1,??_writeUsart1Trame+1
  9825                           
  9826                           ; Switch on 2 bytes has been partitioned into a top level switch of size 1, and 1 sub-sw
      +                          itches
  9827                           ; Switch size 1, requested type "space"
  9828                           ; Number of cases is 1, Range of values is 0 to 0
  9829                           ; switch strategies available:
  9830                           ; Name         Instructions Cycles
  9831                           ; simple_byte            4     3 (average)
  9832                           ;	Chosen strategy is simple_byte
  9833  014024  0100               	movlb	0	; () banked
  9834  014026  51CB               	movf	(??_writeUsart1Trame+1)& (0+255),w,b
  9835  014028  0A00               	xorlw	0	; case 0
  9836  01402A  A4D8               	btfss	status,2,c
  9837  01402C  D7E9               	goto	l7894
  9838                           
  9839                           ; BSR set to: 0
  9840                           ; Switch size 1, requested type "space"
  9841                           ; Number of cases is 6, Range of values is 16 to 33
  9842                           ; switch strategies available:
  9843                           ; Name         Instructions Cycles
  9844                           ; simple_byte           19    10 (average)
  9845                           ;	Chosen strategy is simple_byte
  9846  01402E  0100               	movlb	0	; () banked
  9847  014030  51CA               	movf	??_writeUsart1Trame& (0+255),w,b
  9848  014032  0A10               	xorlw	16	; case 16
  9849  014034  B4D8               	btfsc	status,2,c
  9850  014036  D7A2               	goto	l7868
  9851  014038  0A01               	xorlw	1	; case 17
  9852  01403A  B4D8               	btfsc	status,2,c
  9853  01403C  D7A6               	goto	l7872
  9854  01403E  0A03               	xorlw	3	; case 18
  9855  014040  B4D8               	btfsc	status,2,c
  9856  014042  D7AF               	goto	l7876
  9857  014044  0A01               	xorlw	1	; case 19
  9858  014046  B4D8               	btfsc	status,2,c
  9859  014048  D7B8               	goto	l7880
  9860  01404A  0A33               	xorlw	51	; case 32
  9861  01404C  B4D8               	btfsc	status,2,c
  9862  01404E  D7C2               	goto	l7884
  9863  014050  0A01               	xorlw	1	; case 33
  9864  014052  B4D8               	btfsc	status,2,c
  9865  014054  D7C9               	goto	l7890
  9866  014056  D7D4               	goto	l7894
  9867  014058                     l7902:
  9868                           
  9869                           ; BSR set to: 0
  9870                           ;usart.c: 91: send_char1USART((char)id);
  9871  014058  0100               	movlb	0	; () banked
  9872  01405A  0100               	movlb	0	; () banked
  9873  01405C  51C8               	movf	writeUsart1Trame@id& (0+255),w,b
  9874  01405E  ECCF  F0A7         	call	_send_char1USART
  9875                           
  9876                           ;usart.c: 92: checksum += id;
  9877  014062  0100               	movlb	0	; () banked
  9878  014064  0100               	movlb	0	; () banked
  9879  014066  51C8               	movf	writeUsart1Trame@id& (0+255),w,b
  9880  014068  0100               	movlb	0	; () banked
  9881  01406A  0100               	movlb	0	; () banked
  9882  01406C  27D1               	addwf	writeUsart1Trame@checksum& (0+255),f,b
  9883  01406E  0100               	movlb	0	; () banked
  9884  014070  0100               	movlb	0	; () banked
  9885  014072  51C9               	movf	(writeUsart1Trame@id+1)& (0+255),w,b
  9886  014074  0100               	movlb	0	; () banked
  9887  014076  0100               	movlb	0	; () banked
  9888  014078  23D2               	addwfc	(writeUsart1Trame@checksum+1)& (0+255),f,b
  9889                           
  9890                           ; BSR set to: 0
  9891                           ;usart.c: 94: for(int lengh = 0;lengh <= dataLengh-3;lengh++ )
  9892  01407A  0E00               	movlw	0
  9893  01407C  0100               	movlb	0	; () banked
  9894  01407E  0100               	movlb	0	; () banked
  9895  014080  6FD4               	movwf	(writeUsart1Trame@lengh+1)& (0+255),b
  9896  014082  0E00               	movlw	0
  9897  014084  0100               	movlb	0	; () banked
  9898  014086  6FD3               	movwf	writeUsart1Trame@lengh& (0+255),b
  9899  014088  D052               	goto	l7914
  9900  01408A                     l7908:
  9901                           
  9902                           ; BSR set to: 0
  9903                           ;usart.c: 95: {
  9904                           ;usart.c: 96: send_char1USART(datas2[lengh]);
  9905  01408A  0100               	movlb	0	; () banked
  9906  01408C  C0C4  F0CA         	movff	writeUsart1Trame@datas2,??_writeUsart1Trame
  9907  014090  0100               	movlb	0	; () banked
  9908  014092  C0C5  F0CB         	movff	writeUsart1Trame@datas2+1,??_writeUsart1Trame+1
  9909  014096  0100               	movlb	0	; () banked
  9910  014098  0100               	movlb	0	; () banked
  9911  01409A  51D3               	movf	writeUsart1Trame@lengh& (0+255),w,b
  9912  01409C  0100               	movlb	0	; () banked
  9913  01409E  27CA               	addwf	??_writeUsart1Trame& (0+255),f,b
  9914  0140A0  0100               	movlb	0	; () banked
  9915  0140A2  0100               	movlb	0	; () banked
  9916  0140A4  51D4               	movf	(writeUsart1Trame@lengh+1)& (0+255),w,b
  9917  0140A6  0100               	movlb	0	; () banked
  9918  0140A8  23CB               	addwfc	(??_writeUsart1Trame+1)& (0+255),f,b
  9919  0140AA  C0CA  FFF6         	movff	??_writeUsart1Trame,tblptrl
  9920  0140AE  C0CB  FFF7         	movff	??_writeUsart1Trame+1,tblptrh
  9921  0140B2  0E00               	movlw	low (__mediumconst shr (0+16))
  9922  0140B4  6EF8               	movwf	tblptru,c
  9923  0140B6  0E0E               	movlw	(high __ramtop+-1)
  9924  0140B8  64F7               	cpfsgt	tblptrh,c
  9925  0140BA  D003               	bra	u6647
  9926  0140BC  0008               	tblrd		*
  9927  0140BE  50F5               	movf	tablat,w,c
  9928  0140C0  D005               	bra	u6640
  9929  0140C2                     u6647:
  9930  0140C2  CFF6 FFE9          	movff	tblptrl,fsr0l
  9931  0140C6  CFF7 FFEA          	movff	tblptrh,fsr0h
  9932  0140CA  50EF               	movf	indf0,w,c
  9933  0140CC                     u6640:
  9934  0140CC  ECCF  F0A7         	call	_send_char1USART
  9935                           
  9936                           ;usart.c: 97: checksum += ((int)datas2[lengh]);
  9937  0140D0  0100               	movlb	0	; () banked
  9938  0140D2  C0C4  F0CA         	movff	writeUsart1Trame@datas2,??_writeUsart1Trame
  9939  0140D6  0100               	movlb	0	; () banked
  9940  0140D8  C0C5  F0CB         	movff	writeUsart1Trame@datas2+1,??_writeUsart1Trame+1
  9941  0140DC  0100               	movlb	0	; () banked
  9942  0140DE  0100               	movlb	0	; () banked
  9943  0140E0  51D3               	movf	writeUsart1Trame@lengh& (0+255),w,b
  9944  0140E2  0100               	movlb	0	; () banked
  9945  0140E4  27CA               	addwf	??_writeUsart1Trame& (0+255),f,b
  9946  0140E6  0100               	movlb	0	; () banked
  9947  0140E8  0100               	movlb	0	; () banked
  9948  0140EA  51D4               	movf	(writeUsart1Trame@lengh+1)& (0+255),w,b
  9949  0140EC  0100               	movlb	0	; () banked
  9950  0140EE  23CB               	addwfc	(??_writeUsart1Trame+1)& (0+255),f,b
  9951  0140F0  C0CA  FFF6         	movff	??_writeUsart1Trame,tblptrl
  9952  0140F4  C0CB  FFF7         	movff	??_writeUsart1Trame+1,tblptrh
  9953  0140F8  0E00               	movlw	low (__mediumconst shr (0+16))
  9954  0140FA  6EF8               	movwf	tblptru,c
  9955  0140FC  0E0E               	movlw	(high __ramtop+-1)
  9956  0140FE  64F7               	cpfsgt	tblptrh,c
  9957  014100  D003               	bra	u6657
  9958  014102  0008               	tblrd		*
  9959  014104  50F5               	movf	tablat,w,c
  9960  014106  D005               	bra	u6650
  9961  014108                     u6657:
  9962  014108  CFF6 FFE9          	movff	tblptrl,fsr0l
  9963  01410C  CFF7 FFEA          	movff	tblptrh,fsr0h
  9964  014110  50EF               	movf	indf0,w,c
  9965  014112                     u6650:
  9966  014112  0100               	movlb	0	; () banked
  9967  014114  6FCC               	movwf	(??_writeUsart1Trame+2)& (0+255),b
  9968  014116  0100               	movlb	0	; () banked
  9969  014118  51CC               	movf	(??_writeUsart1Trame+2)& (0+255),w,b
  9970  01411A  0100               	movlb	0	; () banked
  9971  01411C  0100               	movlb	0	; () banked
  9972  01411E  27D1               	addwf	writeUsart1Trame@checksum& (0+255),f,b
  9973  014120  0E00               	movlw	0
  9974  014122  0100               	movlb	0	; () banked
  9975  014124  23D2               	addwfc	(writeUsart1Trame@checksum+1)& (0+255),f,b
  9976                           
  9977                           ; BSR set to: 0
  9978  014126  0100               	movlb	0	; () banked
  9979  014128  0100               	movlb	0	; () banked
  9980  01412A  4BD3               	infsnz	writeUsart1Trame@lengh& (0+255),f,b
  9981  01412C  2BD4               	incf	(writeUsart1Trame@lengh+1)& (0+255),f,b
  9982  01412E                     l7914:
  9983                           
  9984                           ; BSR set to: 0
  9985  01412E  0EFD               	movlw	253
  9986  014130  0100               	movlb	0	; () banked
  9987  014132  6FCA               	movwf	??_writeUsart1Trame& (0+255),b
  9988  014134  0EFF               	movlw	255
  9989  014136  6FCB               	movwf	(??_writeUsart1Trame+1)& (0+255),b
  9990  014138  0100               	movlb	0	; () banked
  9991  01413A  C0CF  F0CC         	movff	writeUsart1Trame@dataLengh,??_writeUsart1Trame+2
  9992  01413E  0100               	movlb	0	; () banked
  9993  014140  C0D0  F0CD         	movff	writeUsart1Trame@dataLengh+1,??_writeUsart1Trame+3
  9994  014144  0100               	movlb	0	; () banked
  9995  014146  51CA               	movf	??_writeUsart1Trame& (0+255),w,b
  9996  014148  0100               	movlb	0	; () banked
  9997  01414A  27CC               	addwf	(??_writeUsart1Trame+2)& (0+255),f,b
  9998  01414C  0100               	movlb	0	; () banked
  9999  01414E  51CB               	movf	(??_writeUsart1Trame+1)& (0+255),w,b
 10000  014150  0100               	movlb	0	; () banked
 10001  014152  23CD               	addwfc	(??_writeUsart1Trame+3)& (0+255),f,b
 10002  014154  0100               	movlb	0	; () banked
 10003  014156  51CD               	movf	(??_writeUsart1Trame+3)& (0+255),w,b
 10004  014158  0A80               	xorlw	128
 10005  01415A  0100               	movlb	0	; () banked
 10006  01415C  6FCE               	movwf	(??_writeUsart1Trame+4)& (0+255),b
 10007  01415E  0100               	movlb	0	; () banked
 10008  014160  0100               	movlb	0	; () banked
 10009  014162  51D3               	movf	writeUsart1Trame@lengh& (0+255),w,b
 10010  014164  0100               	movlb	0	; () banked
 10011  014166  5DCC               	subwf	(??_writeUsart1Trame+2)& (0+255),w,b
 10012  014168  0100               	movlb	0	; () banked
 10013  01416A  0100               	movlb	0	; () banked
 10014  01416C  51D4               	movf	(writeUsart1Trame@lengh+1)& (0+255),w,b
 10015  01416E  0A80               	xorlw	128
 10016  014170  0100               	movlb	0	; () banked
 10017  014172  59CE               	subwfb	(??_writeUsart1Trame+4)& (0+255),w,b
 10018  014174  B0D8               	btfsc	status,0,c
 10019  014176  D789               	goto	l7908
 10020                           
 10021                           ; BSR set to: 0
 10022                           ;usart.c: 98: }
 10023                           ;usart.c: 99: send_char1USART(datatime >>8);
 10024                           
 10025                           ; BSR set to: 0
 10026  014178  0100               	movlb	0	; () banked
 10027  01417A  C0C7  F0CA         	movff	writeUsart1Trame@datatime+1,??_writeUsart1Trame
 10028  01417E  C0CA  F0CB         	movff	??_writeUsart1Trame,??_writeUsart1Trame+1
 10029  014182  0100               	movlb	0	; () banked
 10030  014184  6BCC               	clrf	(??_writeUsart1Trame+2)& (0+255),b
 10031  014186  0100               	movlb	0	; () banked
 10032  014188  51CB               	movf	(??_writeUsart1Trame+1)& (0+255),w,b
 10033  01418A  ECCF  F0A7         	call	_send_char1USART
 10034                           
 10035                           ;usart.c: 100: checksum += datatime >>8;
 10036  01418E  0100               	movlb	0	; () banked
 10037  014190  0100               	movlb	0	; () banked
 10038  014192  51C7               	movf	(writeUsart1Trame@datatime+1)& (0+255),w,b
 10039  014194  0100               	movlb	0	; () banked
 10040  014196  0100               	movlb	0	; () banked
 10041  014198  27D1               	addwf	writeUsart1Trame@checksum& (0+255),f,b
 10042  01419A  0E00               	movlw	0
 10043  01419C  0100               	movlb	0	; () banked
 10044  01419E  23D2               	addwfc	(writeUsart1Trame@checksum+1)& (0+255),f,b
 10045                           
 10046                           ; BSR set to: 0
 10047                           ;usart.c: 101: send_char1USART(datatime & 0x0FF);
 10048  0141A0  0100               	movlb	0	; () banked
 10049  0141A2  0100               	movlb	0	; () banked
 10050  0141A4  51C6               	movf	writeUsart1Trame@datatime& (0+255),w,b
 10051  0141A6  ECCF  F0A7         	call	_send_char1USART
 10052                           
 10053                           ;usart.c: 102: checksum +=datatime & 0x0FF;
 10054  0141AA  0100               	movlb	0	; () banked
 10055  0141AC  0100               	movlb	0	; () banked
 10056  0141AE  51C6               	movf	writeUsart1Trame@datatime& (0+255),w,b
 10057  0141B0  0100               	movlb	0	; () banked
 10058  0141B2  0100               	movlb	0	; () banked
 10059  0141B4  27D1               	addwf	writeUsart1Trame@checksum& (0+255),f,b
 10060  0141B6  0E00               	movlw	0
 10061  0141B8  0100               	movlb	0	; () banked
 10062  0141BA  23D2               	addwfc	(writeUsart1Trame@checksum+1)& (0+255),f,b
 10063                           
 10064                           ; BSR set to: 0
 10065                           ;usart.c: 103: send_char1USART(checksum >>8);
 10066  0141BC  0100               	movlb	0	; () banked
 10067  0141BE  C0D2  F0CA         	movff	writeUsart1Trame@checksum+1,??_writeUsart1Trame
 10068  0141C2  0100               	movlb	0	; () banked
 10069  0141C4  6BCB               	clrf	(??_writeUsart1Trame+1)& (0+255),b
 10070  0141C6  BFCA               	btfsc	??_writeUsart1Trame& (0+255),7,b
 10071  0141C8  69CB               	setf	(??_writeUsart1Trame+1)& (0+255),b
 10072  0141CA  0100               	movlb	0	; () banked
 10073  0141CC  51CA               	movf	??_writeUsart1Trame& (0+255),w,b
 10074  0141CE  ECCF  F0A7         	call	_send_char1USART
 10075                           
 10076                           ;usart.c: 104: send_char1USART(checksum & 0x0FF);
 10077  0141D2  0100               	movlb	0	; () banked
 10078  0141D4  0100               	movlb	0	; () banked
 10079  0141D6  51D1               	movf	writeUsart1Trame@checksum& (0+255),w,b
 10080  0141D8  ECCF  F0A7         	call	_send_char1USART
 10081  0141DC  0012               	return	
 10082  0141DE                     __end_of_writeUsart1Trame:
 10083                           	opt stack 0
 10084                           tblptru	equ	0xFF8
 10085                           tblptrh	equ	0xFF7
 10086                           tblptrl	equ	0xFF6
 10087                           tablat	equ	0xFF5
 10088                           prodl	equ	0xFF3
 10089                           intcon	equ	0xFF2
 10090                           intcon2	equ	0xFF1
 10091                           indf0	equ	0xFEF
 10092                           postinc0	equ	0xFEE
 10093                           fsr0h	equ	0xFEA
 10094                           fsr0l	equ	0xFE9
 10095                           wreg	equ	0xFE8
 10096                           indf1	equ	0xFE7
 10097                           postdec1	equ	0xFE5
 10098                           fsr1h	equ	0xFE2
 10099                           fsr1l	equ	0xFE1
 10100                           indf2	equ	0xFDF
 10101                           postinc2	equ	0xFDE
 10102                           postdec2	equ	0xFDD
 10103                           fsr2h	equ	0xFDA
 10104                           fsr2l	equ	0xFD9
 10105                           status	equ	0xFD8
 10106                           
 10107 ;; *************** function _send_char1USART *****************
 10108 ;; Defined at:
 10109 ;;		line 11 in file "usart.c"
 10110 ;; Parameters:    Size  Location     Type
 10111 ;;  text1           1    wreg     unsigned char 
 10112 ;; Auto vars:     Size  Location     Type
 10113 ;;  text1           1    1[BANK0 ] unsigned char 
 10114 ;; Return value:  Size  Location     Type
 10115 ;;		None               void
 10116 ;; Registers used:
 10117 ;;		wreg, status,2, cstack
 10118 ;; Tracked objects:
 10119 ;;		On entry : 0/0
 10120 ;;		On exit  : 0/0
 10121 ;;		Unchanged: 0/0
 10122 ;; Data sizes:     COMRAM   BANK0   BANK1   BANK2   BANK3   BANK4   BANK5   BANK6   BANK7   BANK8   BANK9  BANK10  BANK1
      +1  BANK12  BANK13  BANK14
 10123 ;;      Params:         0       0       0       0       0       0       0       0       0       0       0       0       
      +0       0       0       0
 10124 ;;      Locals:         0       1       0       0       0       0       0       0       0       0       0       0       
      +0       0       0       0
 10125 ;;      Temps:          0       0       0       0       0       0       0       0       0       0       0       0       
      +0       0       0       0
 10126 ;;      Totals:         0       1       0       0       0       0       0       0       0       0       0       0       
      +0       0       0       0
 10127 ;;Total ram usage:        1 bytes
 10128 ;; Hardware stack levels used:    1
 10129 ;; Hardware stack levels required when called:    4
 10130 ;; This function calls:
 10131 ;;		_Write1USART
 10132 ;; This function is called by:
 10133 ;;		_writeUsart1Trame
 10134 ;; This function uses a non-reentrant model
 10135 ;;
 10136                           
 10137                           	psect	text18
 10138  014F9E                     __ptext18:
 10139                           	opt stack 0
 10140  014F9E                     _send_char1USART:
 10141                           	opt stack 24
 10142                           
 10143                           ;incstack = 0
 10144                           ;send_char1USART@text1 stored from wreg
 10145  014F9E  CFE8 F0C3          	movff	wreg,send_char1USART@text1
 10146  014FA2                     l1117:
 10147  014FA2  A2AD               	btfss	4013,1,c	;volatile
 10148  014FA4  D7FE               	goto	l1117
 10149                           
 10150                           ;usart.c: 14: Write1USART(text1);
 10151  014FA6  0100               	movlb	0	; () banked
 10152  014FA8  0100               	movlb	0	; () banked
 10153  014FAA  51C3               	movf	send_char1USART@text1& (0+255),w,b
 10154  014FAC  ECD9  F0A7         	call	_Write1USART
 10155  014FB0  0012               	return	
 10156  014FB2                     __end_of_send_char1USART:
 10157                           	opt stack 0
 10158                           tblptru	equ	0xFF8
 10159                           tblptrh	equ	0xFF7
 10160                           tblptrl	equ	0xFF6
 10161                           tablat	equ	0xFF5
 10162                           prodl	equ	0xFF3
 10163                           intcon	equ	0xFF2
 10164                           intcon2	equ	0xFF1
 10165                           indf0	equ	0xFEF
 10166                           postinc0	equ	0xFEE
 10167                           fsr0h	equ	0xFEA
 10168                           fsr0l	equ	0xFE9
 10169                           wreg	equ	0xFE8
 10170                           indf1	equ	0xFE7
 10171                           postdec1	equ	0xFE5
 10172                           fsr1h	equ	0xFE2
 10173                           fsr1l	equ	0xFE1
 10174                           indf2	equ	0xFDF
 10175                           postinc2	equ	0xFDE
 10176                           postdec2	equ	0xFDD
 10177                           fsr2h	equ	0xFDA
 10178                           fsr2l	equ	0xFD9
 10179                           status	equ	0xFD8
 10180                           
 10181 ;; *************** function _Write1USART *****************
 10182 ;; Defined at:
 10183 ;;		line 14 in file "C:\Program Files (x86)\Microchip\xc8\v1.30\sources\pic18\plib\USART\u1write.c"
 10184 ;; Parameters:    Size  Location     Type
 10185 ;;  data            1    wreg     unsigned char 
 10186 ;; Auto vars:     Size  Location     Type
 10187 ;;  data            1    0[BANK0 ] unsigned char 
 10188 ;; Return value:  Size  Location     Type
 10189 ;;		None               void
 10190 ;; Registers used:
 10191 ;;		wreg
 10192 ;; Tracked objects:
 10193 ;;		On entry : 0/0
 10194 ;;		On exit  : 0/0
 10195 ;;		Unchanged: 0/0
 10196 ;; Data sizes:     COMRAM   BANK0   BANK1   BANK2   BANK3   BANK4   BANK5   BANK6   BANK7   BANK8   BANK9  BANK10  BANK1
      +1  BANK12  BANK13  BANK14
 10197 ;;      Params:         0       0       0       0       0       0       0       0       0       0       0       0       
      +0       0       0       0
 10198 ;;      Locals:         0       1       0       0       0       0       0       0       0       0       0       0       
      +0       0       0       0
 10199 ;;      Temps:          0       0       0       0       0       0       0       0       0       0       0       0       
      +0       0       0       0
 10200 ;;      Totals:         0       1       0       0       0       0       0       0       0       0       0       0       
      +0       0       0       0
 10201 ;;Total ram usage:        1 bytes
 10202 ;; Hardware stack levels used:    1
 10203 ;; Hardware stack levels required when called:    3
 10204 ;; This function calls:
 10205 ;;		Nothing
 10206 ;; This function is called by:
 10207 ;;		_startGSM
 10208 ;;		_readbuffer
 10209 ;;		_executeBuffer
 10210 ;;		_send_char1USART
 10211 ;;		_writeUsart1
 10212 ;; This function uses a non-reentrant model
 10213 ;;
 10214                           
 10215                           	psect	text19
 10216  014FB2                     __ptext19:
 10217                           	opt stack 0
 10218  014FB2                     _Write1USART:
 10219                           	opt stack 26
 10220                           
 10221                           ;incstack = 0
 10222                           ;Write1USART@data stored from wreg
 10223  014FB2  CFE8 F0C2          	movff	wreg,Write1USART@data
 10224  014FB6  ACAD               	btfss	4013,6,c	;volatile
 10225  014FB8  D003               	goto	l8276
 10226  014FBA  90AD               	bcf	4013,0,c	;volatile
 10227  014FBC  B22F               	btfsc	_USART1_Status,1,c
 10228  014FBE  80AD               	bsf	4013,0,c	;volatile
 10229  014FC0                     l8276:
 10230  014FC0  C0C2  FFAE         	movff	Write1USART@data,4014	;volatile
 10231  014FC4  0012               	return	
 10232  014FC6                     __end_of_Write1USART:
 10233                           	opt stack 0
 10234                           tblptru	equ	0xFF8
 10235                           tblptrh	equ	0xFF7
 10236                           tblptrl	equ	0xFF6
 10237                           tablat	equ	0xFF5
 10238                           prodl	equ	0xFF3
 10239                           intcon	equ	0xFF2
 10240                           intcon2	equ	0xFF1
 10241                           indf0	equ	0xFEF
 10242                           postinc0	equ	0xFEE
 10243                           fsr0h	equ	0xFEA
 10244                           fsr0l	equ	0xFE9
 10245                           wreg	equ	0xFE8
 10246                           indf1	equ	0xFE7
 10247                           postdec1	equ	0xFE5
 10248                           fsr1h	equ	0xFE2
 10249                           fsr1l	equ	0xFE1
 10250                           indf2	equ	0xFDF
 10251                           postinc2	equ	0xFDE
 10252                           postdec2	equ	0xFDD
 10253                           fsr2h	equ	0xFDA
 10254                           fsr2l	equ	0xFD9
 10255                           status	equ	0xFD8
 10256                           
 10257 ;; *************** function _send_char2USART *****************
 10258 ;; Defined at:
 10259 ;;		line 17 in file "usart.c"
 10260 ;; Parameters:    Size  Location     Type
 10261 ;;  text2           1    wreg     unsigned char 
 10262 ;; Auto vars:     Size  Location     Type
 10263 ;;  text2           1    1[BANK0 ] unsigned char 
 10264 ;; Return value:  Size  Location     Type
 10265 ;;		None               void
 10266 ;; Registers used:
 10267 ;;		wreg, status,2, cstack
 10268 ;; Tracked objects:
 10269 ;;		On entry : 0/0
 10270 ;;		On exit  : 0/0
 10271 ;;		Unchanged: 0/0
 10272 ;; Data sizes:     COMRAM   BANK0   BANK1   BANK2   BANK3   BANK4   BANK5   BANK6   BANK7   BANK8   BANK9  BANK10  BANK1
      +1  BANK12  BANK13  BANK14
 10273 ;;      Params:         0       0       0       0       0       0       0       0       0       0       0       0       
      +0       0       0       0
 10274 ;;      Locals:         0       1       0       0       0       0       0       0       0       0       0       0       
      +0       0       0       0
 10275 ;;      Temps:          0       0       0       0       0       0       0       0       0       0       0       0       
      +0       0       0       0
 10276 ;;      Totals:         0       1       0       0       0       0       0       0       0       0       0       0       
      +0       0       0       0
 10277 ;;Total ram usage:        1 bytes
 10278 ;; Hardware stack levels used:    1
 10279 ;; Hardware stack levels required when called:    4
 10280 ;; This function calls:
 10281 ;;		_Write2USART
 10282 ;; This function is called by:
 10283 ;;		_POST
 10284 ;; This function uses a non-reentrant model
 10285 ;;
 10286                           
 10287                           	psect	text20
 10288  014FC6                     __ptext20:
 10289                           	opt stack 0
 10290  014FC6                     _send_char2USART:
 10291                           	opt stack 25
 10292                           
 10293                           ;incstack = 0
 10294                           ;send_char2USART@text2 stored from wreg
 10295  014FC6  CFE8 F0C3          	movff	wreg,send_char2USART@text2
 10296  014FCA                     l1123:
 10297  014FCA  A2A8               	btfss	4008,1,c	;volatile
 10298  014FCC  D7FE               	goto	l1123
 10299                           
 10300                           ;usart.c: 20: Write2USART(text2);
 10301  014FCE  0100               	movlb	0	; () banked
 10302  014FD0  0100               	movlb	0	; () banked
 10303  014FD2  51C3               	movf	send_char2USART@text2& (0+255),w,b
 10304  014FD4  ECED  F0A7         	call	_Write2USART
 10305  014FD8  0012               	return	
 10306  014FDA                     __end_of_send_char2USART:
 10307                           	opt stack 0
 10308                           tblptru	equ	0xFF8
 10309                           tblptrh	equ	0xFF7
 10310                           tblptrl	equ	0xFF6
 10311                           tablat	equ	0xFF5
 10312                           prodl	equ	0xFF3
 10313                           intcon	equ	0xFF2
 10314                           intcon2	equ	0xFF1
 10315                           indf0	equ	0xFEF
 10316                           postinc0	equ	0xFEE
 10317                           fsr0h	equ	0xFEA
 10318                           fsr0l	equ	0xFE9
 10319                           wreg	equ	0xFE8
 10320                           indf1	equ	0xFE7
 10321                           postdec1	equ	0xFE5
 10322                           fsr1h	equ	0xFE2
 10323                           fsr1l	equ	0xFE1
 10324                           indf2	equ	0xFDF
 10325                           postinc2	equ	0xFDE
 10326                           postdec2	equ	0xFDD
 10327                           fsr2h	equ	0xFDA
 10328                           fsr2l	equ	0xFD9
 10329                           status	equ	0xFD8
 10330                           
 10331 ;; *************** function _sendJsonDO *****************
 10332 ;; Defined at:
 10333 ;;		line 142 in file "GSM.c"
 10334 ;; Parameters:    Size  Location     Type
 10335 ;;		None
 10336 ;; Auto vars:     Size  Location     Type
 10337 ;;  erase           2   32[BANK1 ] int 
 10338 ;;  erase           2   30[BANK1 ] int 
 10339 ;;  erase           2   28[BANK1 ] int 
 10340 ;;  erase           2   26[BANK1 ] int 
 10341 ;;  l               2   24[BANK1 ] int 
 10342 ;;  l               2   22[BANK1 ] int 
 10343 ;;  l               2   20[BANK1 ] int 
 10344 ;;  l               2   18[BANK1 ] int 
 10345 ;;  bufferTEMPO    10    0[BANK1 ] unsigned char [10]
 10346 ;;  boardTDS        2   40[BANK1 ] int 
 10347 ;;  boardEC         2   38[BANK1 ] int 
 10348 ;;  boardPH         2   36[BANK1 ] int 
 10349 ;;  boardDO         2   34[BANK1 ] int 
 10350 ;;  nbdataITDS      2   16[BANK1 ] int 
 10351 ;;  nbdataIEC       2   14[BANK1 ] int 
 10352 ;;  nbdataIPH       2   12[BANK1 ] int 
 10353 ;;  nbdataI         2   10[BANK1 ] int 
 10354 ;; Return value:  Size  Location     Type
 10355 ;;		None               void
 10356 ;; Registers used:
 10357 ;;		wreg, fsr0l, fsr0h, fsr1l, fsr1h, fsr2l, fsr2h, status,2, status,0, tblptrl, tblptrh, tblptru, prodl, prodh, cstack
 10358 ;; Tracked objects:
 10359 ;;		On entry : 0/0
 10360 ;;		On exit  : 0/0
 10361 ;;		Unchanged: 0/0
 10362 ;; Data sizes:     COMRAM   BANK0   BANK1   BANK2   BANK3   BANK4   BANK5   BANK6   BANK7   BANK8   BANK9  BANK10  BANK1
      +1  BANK12  BANK13  BANK14
 10363 ;;      Params:         0       0       0       0       0       0       0       0       0       0       0       0       
      +0       0       0       0
 10364 ;;      Locals:         0       0      42       0       0       0       0       0       0       0       0       0       
      +0       0       0       0
 10365 ;;      Temps:          0       5       0       0       0       0       0       0       0       0       0       0       
      +0       0       0       0
 10366 ;;      Totals:         0       5      42       0       0       0       0       0       0       0       0       0       
      +0       0       0       0
 10367 ;;Total ram usage:       47 bytes
 10368 ;; Hardware stack levels used:    1
 10369 ;; Hardware stack levels required when called:    5
 10370 ;; This function calls:
 10371 ;;		___wmul
 10372 ;;		_send_cr
 10373 ;;		_sprintf
 10374 ;; This function is called by:
 10375 ;;		_POST
 10376 ;; This function uses a non-reentrant model
 10377 ;;
 10378                           
 10379                           	psect	text21
 10380  010000                     __ptext21:
 10381                           	opt stack 0
 10382  010000                     _sendJsonDO:
 10383                           	opt stack 24
 10384                           
 10385                           ;GSM.c: 144: int nbdataI = 0;
 10386                           
 10387                           ;incstack = 0
 10388  010000  0E00               	movlw	0
 10389  010002  0101               	movlb	1	; () banked
 10390  010004  0101               	movlb	1	; () banked
 10391  010006  6FC7               	movwf	(sendJsonDO@nbdataI+1)& (0+255),b
 10392  010008  0E00               	movlw	0
 10393  01000A  0101               	movlb	1	; () banked
 10394  01000C  6FC6               	movwf	sendJsonDO@nbdataI& (0+255),b
 10395                           
 10396                           ;GSM.c: 145: int boardDO = 0;
 10397  01000E  0E00               	movlw	0
 10398  010010  0101               	movlb	1	; () banked
 10399  010012  0101               	movlb	1	; () banked
 10400  010014  6FDF               	movwf	(sendJsonDO@boardDO+1)& (0+255),b
 10401  010016  0E00               	movlw	0
 10402  010018  0101               	movlb	1	; () banked
 10403  01001A  6FDE               	movwf	sendJsonDO@boardDO& (0+255),b
 10404                           
 10405                           ;GSM.c: 146: int nbdataIPH = 0;
 10406  01001C  0E00               	movlw	0
 10407  01001E  0101               	movlb	1	; () banked
 10408  010020  0101               	movlb	1	; () banked
 10409  010022  6FC9               	movwf	(sendJsonDO@nbdataIPH+1)& (0+255),b
 10410  010024  0E00               	movlw	0
 10411  010026  0101               	movlb	1	; () banked
 10412  010028  6FC8               	movwf	sendJsonDO@nbdataIPH& (0+255),b
 10413                           
 10414                           ;GSM.c: 147: int boardPH = 0;
 10415  01002A  0E00               	movlw	0
 10416  01002C  0101               	movlb	1	; () banked
 10417  01002E  0101               	movlb	1	; () banked
 10418  010030  6FE1               	movwf	(sendJsonDO@boardPH+1)& (0+255),b
 10419  010032  0E00               	movlw	0
 10420  010034  0101               	movlb	1	; () banked
 10421  010036  6FE0               	movwf	sendJsonDO@boardPH& (0+255),b
 10422                           
 10423                           ;GSM.c: 148: int nbdataIEC = 0;
 10424  010038  0E00               	movlw	0
 10425  01003A  0101               	movlb	1	; () banked
 10426  01003C  0101               	movlb	1	; () banked
 10427  01003E  6FCB               	movwf	(sendJsonDO@nbdataIEC+1)& (0+255),b
 10428  010040  0E00               	movlw	0
 10429  010042  0101               	movlb	1	; () banked
 10430  010044  6FCA               	movwf	sendJsonDO@nbdataIEC& (0+255),b
 10431                           
 10432                           ;GSM.c: 149: int boardEC = 0;
 10433  010046  0E00               	movlw	0
 10434  010048  0101               	movlb	1	; () banked
 10435  01004A  0101               	movlb	1	; () banked
 10436  01004C  6FE3               	movwf	(sendJsonDO@boardEC+1)& (0+255),b
 10437  01004E  0E00               	movlw	0
 10438  010050  0101               	movlb	1	; () banked
 10439  010052  6FE2               	movwf	sendJsonDO@boardEC& (0+255),b
 10440                           
 10441                           ;GSM.c: 150: int nbdataITDS = 0;
 10442  010054  0E00               	movlw	0
 10443  010056  0101               	movlb	1	; () banked
 10444  010058  0101               	movlb	1	; () banked
 10445  01005A  6FCD               	movwf	(sendJsonDO@nbdataITDS+1)& (0+255),b
 10446  01005C  0E00               	movlw	0
 10447  01005E  0101               	movlb	1	; () banked
 10448  010060  6FCC               	movwf	sendJsonDO@nbdataITDS& (0+255),b
 10449                           
 10450                           ;GSM.c: 151: int boardTDS = 0;
 10451  010062  0E00               	movlw	0
 10452  010064  0101               	movlb	1	; () banked
 10453  010066  0101               	movlb	1	; () banked
 10454  010068  6FE5               	movwf	(sendJsonDO@boardTDS+1)& (0+255),b
 10455  01006A  0E00               	movlw	0
 10456  01006C  0101               	movlb	1	; () banked
 10457  01006E  6FE4               	movwf	sendJsonDO@boardTDS& (0+255),b
 10458                           
 10459                           ; BSR set to: 1
 10460                           ;GSM.c: 152: unsigned char bufferTEMPO[10] = "\0";
 10461  010070  EE20  F06A         	lfsr	2,sendJsonDO@F9779
 10462  010074  EE11  F0BC         	lfsr	1,sendJsonDO@bufferTEMPO
 10463  010078  0E0A               	movlw	10
 10464  01007A                     u6711:
 10465  01007A  CFDE FFE6          	movff	postinc2,postinc1
 10466  01007E  2EE8               	decfsz	wreg,f,c
 10467  010080  D7FC               	goto	u6711
 10468                           
 10469                           ; BSR set to: 1
 10470                           ;GSM.c: 153: dataToSend[0] = '\0';
 10471  010082  0E00               	movlw	0
 10472  010084  CFE8 F280          	movff	wreg,_dataToSend
 10473                           
 10474                           ; BSR set to: 1
 10475                           ;GSM.c: 154: dataToSend[1] = '\0';
 10476  010088  0E00               	movlw	0
 10477  01008A  CFE8 F281          	movff	wreg,_dataToSend+1
 10478                           
 10479                           ; BSR set to: 1
 10480                           ;GSM.c: 155: dataToSend[2] = '\0';
 10481  01008E  0E00               	movlw	0
 10482  010090  CFE8 F282          	movff	wreg,_dataToSend+2
 10483                           
 10484                           ; BSR set to: 1
 10485                           ;GSM.c: 156: dataToSend[3] = '\0';
 10486  010094  0E00               	movlw	0
 10487  010096  CFE8 F283          	movff	wreg,_dataToSend+3
 10488                           
 10489                           ; BSR set to: 1
 10490                           ;GSM.c: 158: sprintf(dataToSend,"%s%s",dataToSend,"data={\"stationmessage\":{");
 10491  01009A  0E02               	movlw	high _dataToSend
 10492  01009C  0100               	movlb	0	; () banked
 10493  01009E  0100               	movlb	0	; () banked
 10494  0100A0  6FC9               	movwf	(sprintf@sp+1)& (0+255),b
 10495  0100A2  0E80               	movlw	low _dataToSend
 10496  0100A4  0100               	movlb	0	; () banked
 10497  0100A6  0100               	movlb	0	; () banked
 10498  0100A8  6FC8               	movwf	sprintf@sp& (0+255),b
 10499  0100AA  0EFF               	movlw	high STR_9
 10500  0100AC  0100               	movlb	0	; () banked
 10501  0100AE  0100               	movlb	0	; () banked
 10502  0100B0  6FCB               	movwf	(sprintf@f+1)& (0+255),b
 10503  0100B2  0EE6               	movlw	low STR_9
 10504  0100B4  0100               	movlb	0	; () banked
 10505  0100B6  0100               	movlb	0	; () banked
 10506  0100B8  6FCA               	movwf	sprintf@f& (0+255),b
 10507  0100BA  0E02               	movlw	high _dataToSend
 10508  0100BC  0100               	movlb	0	; () banked
 10509  0100BE  0100               	movlb	0	; () banked
 10510  0100C0  6FCD               	movwf	(?_sprintf+5)& (0+255),b
 10511  0100C2  0E80               	movlw	low _dataToSend
 10512  0100C4  0100               	movlb	0	; () banked
 10513  0100C6  0100               	movlb	0	; () banked
 10514  0100C8  6FCC               	movwf	(?_sprintf+4)& (0+255),b
 10515  0100CA  0EFE               	movlw	high STR_10
 10516  0100CC  0100               	movlb	0	; () banked
 10517  0100CE  0100               	movlb	0	; () banked
 10518  0100D0  6FCF               	movwf	(?_sprintf+7)& (0+255),b
 10519  0100D2  0E47               	movlw	low STR_10
 10520  0100D4  0100               	movlb	0	; () banked
 10521  0100D6  0100               	movlb	0	; () banked
 10522  0100D8  6FCE               	movwf	(?_sprintf+6)& (0+255),b
 10523  0100DA  ECAE  F0A1         	call	_sprintf	;wreg free
 10524                           
 10525                           ;GSM.c: 160: sprintf(dataToSend,"%s%s",dataToSend,"\"datetime\":\"");
 10526  0100DE  0E02               	movlw	high _dataToSend
 10527  0100E0  0100               	movlb	0	; () banked
 10528  0100E2  0100               	movlb	0	; () banked
 10529  0100E4  6FC9               	movwf	(sprintf@sp+1)& (0+255),b
 10530  0100E6  0E80               	movlw	low _dataToSend
 10531  0100E8  0100               	movlb	0	; () banked
 10532  0100EA  0100               	movlb	0	; () banked
 10533  0100EC  6FC8               	movwf	sprintf@sp& (0+255),b
 10534  0100EE  0EFF               	movlw	high STR_9
 10535  0100F0  0100               	movlb	0	; () banked
 10536  0100F2  0100               	movlb	0	; () banked
 10537  0100F4  6FCB               	movwf	(sprintf@f+1)& (0+255),b
 10538  0100F6  0EE6               	movlw	low STR_9
 10539  0100F8  0100               	movlb	0	; () banked
 10540  0100FA  0100               	movlb	0	; () banked
 10541  0100FC  6FCA               	movwf	sprintf@f& (0+255),b
 10542  0100FE  0E02               	movlw	high _dataToSend
 10543  010100  0100               	movlb	0	; () banked
 10544  010102  0100               	movlb	0	; () banked
 10545  010104  6FCD               	movwf	(?_sprintf+5)& (0+255),b
 10546  010106  0E80               	movlw	low _dataToSend
 10547  010108  0100               	movlb	0	; () banked
 10548  01010A  0100               	movlb	0	; () banked
 10549  01010C  6FCC               	movwf	(?_sprintf+4)& (0+255),b
 10550  01010E  0EFE               	movlw	high (STR_35+2)
 10551  010110  0100               	movlb	0	; () banked
 10552  010112  0100               	movlb	0	; () banked
 10553  010114  6FCF               	movwf	(?_sprintf+7)& (0+255),b
 10554  010116  0EEC               	movlw	low (STR_35+2)
 10555  010118  0100               	movlb	0	; () banked
 10556  01011A  0100               	movlb	0	; () banked
 10557  01011C  6FCE               	movwf	(?_sprintf+6)& (0+255),b
 10558  01011E  ECAE  F0A1         	call	_sprintf	;wreg free
 10559                           
 10560                           ;GSM.c: 161: sprintf(dataToSend,"%s%s",dataToSend,timetoPost);
 10561  010122  0E02               	movlw	high _dataToSend
 10562  010124  0100               	movlb	0	; () banked
 10563  010126  0100               	movlb	0	; () banked
 10564  010128  6FC9               	movwf	(sprintf@sp+1)& (0+255),b
 10565  01012A  0E80               	movlw	low _dataToSend
 10566  01012C  0100               	movlb	0	; () banked
 10567  01012E  0100               	movlb	0	; () banked
 10568  010130  6FC8               	movwf	sprintf@sp& (0+255),b
 10569  010132  0EFF               	movlw	high STR_9
 10570  010134  0100               	movlb	0	; () banked
 10571  010136  0100               	movlb	0	; () banked
 10572  010138  6FCB               	movwf	(sprintf@f+1)& (0+255),b
 10573  01013A  0EE6               	movlw	low STR_9
 10574  01013C  0100               	movlb	0	; () banked
 10575  01013E  0100               	movlb	0	; () banked
 10576  010140  6FCA               	movwf	sprintf@f& (0+255),b
 10577  010142  0E02               	movlw	high _dataToSend
 10578  010144  0100               	movlb	0	; () banked
 10579  010146  0100               	movlb	0	; () banked
 10580  010148  6FCD               	movwf	(?_sprintf+5)& (0+255),b
 10581  01014A  0E80               	movlw	low _dataToSend
 10582  01014C  0100               	movlb	0	; () banked
 10583  01014E  0100               	movlb	0	; () banked
 10584  010150  6FCC               	movwf	(?_sprintf+4)& (0+255),b
 10585  010152  0100               	movlb	0	; () banked
 10586  010154  0E00               	movlw	high _timetoPost
 10587  010156  0100               	movlb	0	; () banked
 10588  010158  0100               	movlb	0	; () banked
 10589  01015A  6FCF               	movwf	(?_sprintf+7)& (0+255),b
 10590  01015C  0100               	movlb	0	; () banked
 10591  01015E  0E9B               	movlw	low _timetoPost
 10592  010160  0100               	movlb	0	; () banked
 10593  010162  0100               	movlb	0	; () banked
 10594  010164  6FCE               	movwf	(?_sprintf+6)& (0+255),b
 10595  010166  ECAE  F0A1         	call	_sprintf	;wreg free
 10596                           
 10597                           ;GSM.c: 162: sprintf(dataToSend,"%s%s",dataToSend,"\",\"stationid\":\"");
 10598  01016A  0E02               	movlw	high _dataToSend
 10599  01016C  0100               	movlb	0	; () banked
 10600  01016E  0100               	movlb	0	; () banked
 10601  010170  6FC9               	movwf	(sprintf@sp+1)& (0+255),b
 10602  010172  0E80               	movlw	low _dataToSend
 10603  010174  0100               	movlb	0	; () banked
 10604  010176  0100               	movlb	0	; () banked
 10605  010178  6FC8               	movwf	sprintf@sp& (0+255),b
 10606  01017A  0EFF               	movlw	high STR_9
 10607  01017C  0100               	movlb	0	; () banked
 10608  01017E  0100               	movlb	0	; () banked
 10609  010180  6FCB               	movwf	(sprintf@f+1)& (0+255),b
 10610  010182  0EE6               	movlw	low STR_9
 10611  010184  0100               	movlb	0	; () banked
 10612  010186  0100               	movlb	0	; () banked
 10613  010188  6FCA               	movwf	sprintf@f& (0+255),b
 10614  01018A  0E02               	movlw	high _dataToSend
 10615  01018C  0100               	movlb	0	; () banked
 10616  01018E  0100               	movlb	0	; () banked
 10617  010190  6FCD               	movwf	(?_sprintf+5)& (0+255),b
 10618  010192  0E80               	movlw	low _dataToSend
 10619  010194  0100               	movlb	0	; () banked
 10620  010196  0100               	movlb	0	; () banked
 10621  010198  6FCC               	movwf	(?_sprintf+4)& (0+255),b
 10622  01019A  0EFE               	movlw	high STR_15
 10623  01019C  0100               	movlb	0	; () banked
 10624  01019E  0100               	movlb	0	; () banked
 10625  0101A0  6FCF               	movwf	(?_sprintf+7)& (0+255),b
 10626  0101A2  0E8A               	movlw	low STR_15
 10627  0101A4  0100               	movlb	0	; () banked
 10628  0101A6  0100               	movlb	0	; () banked
 10629  0101A8  6FCE               	movwf	(?_sprintf+6)& (0+255),b
 10630  0101AA  ECAE  F0A1         	call	_sprintf	;wreg free
 10631                           
 10632                           ;GSM.c: 163: sprintf(dataToSend,"%s%s",dataToSend,"bra002");
 10633  0101AE  0E02               	movlw	high _dataToSend
 10634  0101B0  0100               	movlb	0	; () banked
 10635  0101B2  0100               	movlb	0	; () banked
 10636  0101B4  6FC9               	movwf	(sprintf@sp+1)& (0+255),b
 10637  0101B6  0E80               	movlw	low _dataToSend
 10638  0101B8  0100               	movlb	0	; () banked
 10639  0101BA  0100               	movlb	0	; () banked
 10640  0101BC  6FC8               	movwf	sprintf@sp& (0+255),b
 10641  0101BE  0EFF               	movlw	high STR_9
 10642  0101C0  0100               	movlb	0	; () banked
 10643  0101C2  0100               	movlb	0	; () banked
 10644  0101C4  6FCB               	movwf	(sprintf@f+1)& (0+255),b
 10645  0101C6  0EE6               	movlw	low STR_9
 10646  0101C8  0100               	movlb	0	; () banked
 10647  0101CA  0100               	movlb	0	; () banked
 10648  0101CC  6FCA               	movwf	sprintf@f& (0+255),b
 10649  0101CE  0E02               	movlw	high _dataToSend
 10650  0101D0  0100               	movlb	0	; () banked
 10651  0101D2  0100               	movlb	0	; () banked
 10652  0101D4  6FCD               	movwf	(?_sprintf+5)& (0+255),b
 10653  0101D6  0E80               	movlw	low _dataToSend
 10654  0101D8  0100               	movlb	0	; () banked
 10655  0101DA  0100               	movlb	0	; () banked
 10656  0101DC  6FCC               	movwf	(?_sprintf+4)& (0+255),b
 10657  0101DE  0EFF               	movlw	high STR_17
 10658  0101E0  0100               	movlb	0	; () banked
 10659  0101E2  0100               	movlb	0	; () banked
 10660  0101E4  6FCF               	movwf	(?_sprintf+7)& (0+255),b
 10661  0101E6  0EC5               	movlw	low STR_17
 10662  0101E8  0100               	movlb	0	; () banked
 10663  0101EA  0100               	movlb	0	; () banked
 10664  0101EC  6FCE               	movwf	(?_sprintf+6)& (0+255),b
 10665  0101EE  ECAE  F0A1         	call	_sprintf	;wreg free
 10666                           
 10667                           ;GSM.c: 164: sprintf(dataToSend,"%s%s",dataToSend,"\",\"eventtype\":\"");
 10668  0101F2  0E02               	movlw	high _dataToSend
 10669  0101F4  0100               	movlb	0	; () banked
 10670  0101F6  0100               	movlb	0	; () banked
 10671  0101F8  6FC9               	movwf	(sprintf@sp+1)& (0+255),b
 10672  0101FA  0E80               	movlw	low _dataToSend
 10673  0101FC  0100               	movlb	0	; () banked
 10674  0101FE  0100               	movlb	0	; () banked
 10675  010200  6FC8               	movwf	sprintf@sp& (0+255),b
 10676  010202  0EFF               	movlw	high STR_9
 10677  010204  0100               	movlb	0	; () banked
 10678  010206  0100               	movlb	0	; () banked
 10679  010208  6FCB               	movwf	(sprintf@f+1)& (0+255),b
 10680  01020A  0EE6               	movlw	low STR_9
 10681  01020C  0100               	movlb	0	; () banked
 10682  01020E  0100               	movlb	0	; () banked
 10683  010210  6FCA               	movwf	sprintf@f& (0+255),b
 10684  010212  0E02               	movlw	high _dataToSend
 10685  010214  0100               	movlb	0	; () banked
 10686  010216  0100               	movlb	0	; () banked
 10687  010218  6FCD               	movwf	(?_sprintf+5)& (0+255),b
 10688  01021A  0E80               	movlw	low _dataToSend
 10689  01021C  0100               	movlb	0	; () banked
 10690  01021E  0100               	movlb	0	; () banked
 10691  010220  6FCC               	movwf	(?_sprintf+4)& (0+255),b
 10692  010222  0EFE               	movlw	high STR_19
 10693  010224  0100               	movlb	0	; () banked
 10694  010226  0100               	movlb	0	; () banked
 10695  010228  6FCF               	movwf	(?_sprintf+7)& (0+255),b
 10696  01022A  0EAA               	movlw	low STR_19
 10697  01022C  0100               	movlb	0	; () banked
 10698  01022E  0100               	movlb	0	; () banked
 10699  010230  6FCE               	movwf	(?_sprintf+6)& (0+255),b
 10700  010232  ECAE  F0A1         	call	_sprintf	;wreg free
 10701                           
 10702                           ;GSM.c: 165: sprintf(dataToSend,"%s%s",dataToSend,"regularreading");
 10703  010236  0E02               	movlw	high _dataToSend
 10704  010238  0100               	movlb	0	; () banked
 10705  01023A  0100               	movlb	0	; () banked
 10706  01023C  6FC9               	movwf	(sprintf@sp+1)& (0+255),b
 10707  01023E  0E80               	movlw	low _dataToSend
 10708  010240  0100               	movlb	0	; () banked
 10709  010242  0100               	movlb	0	; () banked
 10710  010244  6FC8               	movwf	sprintf@sp& (0+255),b
 10711  010246  0EFF               	movlw	high STR_9
 10712  010248  0100               	movlb	0	; () banked
 10713  01024A  0100               	movlb	0	; () banked
 10714  01024C  6FCB               	movwf	(sprintf@f+1)& (0+255),b
 10715  01024E  0EE6               	movlw	low STR_9
 10716  010250  0100               	movlb	0	; () banked
 10717  010252  0100               	movlb	0	; () banked
 10718  010254  6FCA               	movwf	sprintf@f& (0+255),b
 10719  010256  0E02               	movlw	high _dataToSend
 10720  010258  0100               	movlb	0	; () banked
 10721  01025A  0100               	movlb	0	; () banked
 10722  01025C  6FCD               	movwf	(?_sprintf+5)& (0+255),b
 10723  01025E  0E80               	movlw	low _dataToSend
 10724  010260  0100               	movlb	0	; () banked
 10725  010262  0100               	movlb	0	; () banked
 10726  010264  6FCC               	movwf	(?_sprintf+4)& (0+255),b
 10727  010266  0EFE               	movlw	high STR_21
 10728  010268  0100               	movlb	0	; () banked
 10729  01026A  0100               	movlb	0	; () banked
 10730  01026C  6FCF               	movwf	(?_sprintf+7)& (0+255),b
 10731  01026E  0EF9               	movlw	low STR_21
 10732  010270  0100               	movlb	0	; () banked
 10733  010272  0100               	movlb	0	; () banked
 10734  010274  6FCE               	movwf	(?_sprintf+6)& (0+255),b
 10735  010276  ECAE  F0A1         	call	_sprintf	;wreg free
 10736                           
 10737                           ;GSM.c: 166: sprintf(dataToSend,"%s%s",dataToSend,"\",\"event\":[");
 10738  01027A  0E02               	movlw	high _dataToSend
 10739  01027C  0100               	movlb	0	; () banked
 10740  01027E  0100               	movlb	0	; () banked
 10741  010280  6FC9               	movwf	(sprintf@sp+1)& (0+255),b
 10742  010282  0E80               	movlw	low _dataToSend
 10743  010284  0100               	movlb	0	; () banked
 10744  010286  0100               	movlb	0	; () banked
 10745  010288  6FC8               	movwf	sprintf@sp& (0+255),b
 10746  01028A  0EFF               	movlw	high STR_9
 10747  01028C  0100               	movlb	0	; () banked
 10748  01028E  0100               	movlb	0	; () banked
 10749  010290  6FCB               	movwf	(sprintf@f+1)& (0+255),b
 10750  010292  0EE6               	movlw	low STR_9
 10751  010294  0100               	movlb	0	; () banked
 10752  010296  0100               	movlb	0	; () banked
 10753  010298  6FCA               	movwf	sprintf@f& (0+255),b
 10754  01029A  0E02               	movlw	high _dataToSend
 10755  01029C  0100               	movlb	0	; () banked
 10756  01029E  0100               	movlb	0	; () banked
 10757  0102A0  6FCD               	movwf	(?_sprintf+5)& (0+255),b
 10758  0102A2  0E80               	movlw	low _dataToSend
 10759  0102A4  0100               	movlb	0	; () banked
 10760  0102A6  0100               	movlb	0	; () banked
 10761  0102A8  6FCC               	movwf	(?_sprintf+4)& (0+255),b
 10762  0102AA  0EFF               	movlw	high STR_23
 10763  0102AC  0100               	movlb	0	; () banked
 10764  0102AE  0100               	movlb	0	; () banked
 10765  0102B0  6FCF               	movwf	(?_sprintf+7)& (0+255),b
 10766  0102B2  0E5E               	movlw	low STR_23
 10767  0102B4  0100               	movlb	0	; () banked
 10768  0102B6  0100               	movlb	0	; () banked
 10769  0102B8  6FCE               	movwf	(?_sprintf+6)& (0+255),b
 10770  0102BA  ECAE  F0A1         	call	_sprintf	;wreg free
 10771                           
 10772                           ;GSM.c: 168: if(nbFrameDO!=0)
 10773  0102BE  0100               	movlb	0	; () banked
 10774  0102C0  0100               	movlb	0	; () banked
 10775  0102C2  5185               	movf	(_nbFrameDO+1)& (0+255),w,b
 10776  0102C4  1184               	iorwf	_nbFrameDO& (0+255),w,b
 10777  0102C6  B4D8               	btfsc	status,2,c
 10778  0102C8  D25A               	goto	l8008
 10779                           
 10780                           ; BSR set to: 0
 10781                           ;GSM.c: 169: {
 10782                           ;GSM.c: 170: sprintf(dataToSend,"%s%s",dataToSend,"{\"sensorunit\":\"");
 10783  0102CA  0E02               	movlw	high _dataToSend
 10784  0102CC  0100               	movlb	0	; () banked
 10785  0102CE  0100               	movlb	0	; () banked
 10786  0102D0  6FC9               	movwf	(sprintf@sp+1)& (0+255),b
 10787  0102D2  0E80               	movlw	low _dataToSend
 10788  0102D4  0100               	movlb	0	; () banked
 10789  0102D6  0100               	movlb	0	; () banked
 10790  0102D8  6FC8               	movwf	sprintf@sp& (0+255),b
 10791  0102DA  0EFF               	movlw	high STR_9
 10792  0102DC  0100               	movlb	0	; () banked
 10793  0102DE  0100               	movlb	0	; () banked
 10794  0102E0  6FCB               	movwf	(sprintf@f+1)& (0+255),b
 10795  0102E2  0EE6               	movlw	low STR_9
 10796  0102E4  0100               	movlb	0	; () banked
 10797  0102E6  0100               	movlb	0	; () banked
 10798  0102E8  6FCA               	movwf	sprintf@f& (0+255),b
 10799  0102EA  0E02               	movlw	high _dataToSend
 10800  0102EC  0100               	movlb	0	; () banked
 10801  0102EE  0100               	movlb	0	; () banked
 10802  0102F0  6FCD               	movwf	(?_sprintf+5)& (0+255),b
 10803  0102F2  0E80               	movlw	low _dataToSend
 10804  0102F4  0100               	movlb	0	; () banked
 10805  0102F6  0100               	movlb	0	; () banked
 10806  0102F8  6FCC               	movwf	(?_sprintf+4)& (0+255),b
 10807  0102FA  0EFE               	movlw	high STR_25
 10808  0102FC  0100               	movlb	0	; () banked
 10809  0102FE  0100               	movlb	0	; () banked
 10810  010300  6FCF               	movwf	(?_sprintf+7)& (0+255),b
 10811  010302  0EBA               	movlw	low STR_25
 10812  010304  0100               	movlb	0	; () banked
 10813  010306  0100               	movlb	0	; () banked
 10814  010308  6FCE               	movwf	(?_sprintf+6)& (0+255),b
 10815  01030A  ECAE  F0A1         	call	_sprintf	;wreg free
 10816                           
 10817                           ;GSM.c: 171: sprintf(dataToSend,"%s%s",dataToSend,"su0003");
 10818  01030E  0E02               	movlw	high _dataToSend
 10819  010310  0100               	movlb	0	; () banked
 10820  010312  0100               	movlb	0	; () banked
 10821  010314  6FC9               	movwf	(sprintf@sp+1)& (0+255),b
 10822  010316  0E80               	movlw	low _dataToSend
 10823  010318  0100               	movlb	0	; () banked
 10824  01031A  0100               	movlb	0	; () banked
 10825  01031C  6FC8               	movwf	sprintf@sp& (0+255),b
 10826  01031E  0EFF               	movlw	high STR_9
 10827  010320  0100               	movlb	0	; () banked
 10828  010322  0100               	movlb	0	; () banked
 10829  010324  6FCB               	movwf	(sprintf@f+1)& (0+255),b
 10830  010326  0EE6               	movlw	low STR_9
 10831  010328  0100               	movlb	0	; () banked
 10832  01032A  0100               	movlb	0	; () banked
 10833  01032C  6FCA               	movwf	sprintf@f& (0+255),b
 10834  01032E  0E02               	movlw	high _dataToSend
 10835  010330  0100               	movlb	0	; () banked
 10836  010332  0100               	movlb	0	; () banked
 10837  010334  6FCD               	movwf	(?_sprintf+5)& (0+255),b
 10838  010336  0E80               	movlw	low _dataToSend
 10839  010338  0100               	movlb	0	; () banked
 10840  01033A  0100               	movlb	0	; () banked
 10841  01033C  6FCC               	movwf	(?_sprintf+4)& (0+255),b
 10842  01033E  0EFF               	movlw	high STR_27
 10843  010340  0100               	movlb	0	; () banked
 10844  010342  0100               	movlb	0	; () banked
 10845  010344  6FCF               	movwf	(?_sprintf+7)& (0+255),b
 10846  010346  0ECC               	movlw	low STR_27
 10847  010348  0100               	movlb	0	; () banked
 10848  01034A  0100               	movlb	0	; () banked
 10849  01034C  6FCE               	movwf	(?_sprintf+6)& (0+255),b
 10850  01034E  ECAE  F0A1         	call	_sprintf	;wreg free
 10851                           
 10852                           ;GSM.c: 172: sprintf(dataToSend,"%s%s",dataToSend,"\",\"data\":[");
 10853  010352  0E02               	movlw	high _dataToSend
 10854  010354  0100               	movlb	0	; () banked
 10855  010356  0100               	movlb	0	; () banked
 10856  010358  6FC9               	movwf	(sprintf@sp+1)& (0+255),b
 10857  01035A  0E80               	movlw	low _dataToSend
 10858  01035C  0100               	movlb	0	; () banked
 10859  01035E  0100               	movlb	0	; () banked
 10860  010360  6FC8               	movwf	sprintf@sp& (0+255),b
 10861  010362  0EFF               	movlw	high STR_9
 10862  010364  0100               	movlb	0	; () banked
 10863  010366  0100               	movlb	0	; () banked
 10864  010368  6FCB               	movwf	(sprintf@f+1)& (0+255),b
 10865  01036A  0EE6               	movlw	low STR_9
 10866  01036C  0100               	movlb	0	; () banked
 10867  01036E  0100               	movlb	0	; () banked
 10868  010370  6FCA               	movwf	sprintf@f& (0+255),b
 10869  010372  0E02               	movlw	high _dataToSend
 10870  010374  0100               	movlb	0	; () banked
 10871  010376  0100               	movlb	0	; () banked
 10872  010378  6FCD               	movwf	(?_sprintf+5)& (0+255),b
 10873  01037A  0E80               	movlw	low _dataToSend
 10874  01037C  0100               	movlb	0	; () banked
 10875  01037E  0100               	movlb	0	; () banked
 10876  010380  6FCC               	movwf	(?_sprintf+4)& (0+255),b
 10877  010382  0EFF               	movlw	high STR_29
 10878  010384  0100               	movlb	0	; () banked
 10879  010386  0100               	movlb	0	; () banked
 10880  010388  6FCF               	movwf	(?_sprintf+7)& (0+255),b
 10881  01038A  0E6A               	movlw	low STR_29
 10882  01038C  0100               	movlb	0	; () banked
 10883  01038E  0100               	movlb	0	; () banked
 10884  010390  6FCE               	movwf	(?_sprintf+6)& (0+255),b
 10885  010392  ECAE  F0A1         	call	_sprintf	;wreg free
 10886                           
 10887                           ;GSM.c: 174: for(int l = 0;l <= nbFrameDO-1; l++)
 10888  010396  0E00               	movlw	0
 10889  010398  0101               	movlb	1	; () banked
 10890  01039A  0101               	movlb	1	; () banked
 10891  01039C  6FCF               	movwf	(sendJsonDO@l+1)& (0+255),b
 10892  01039E  0E00               	movlw	0
 10893  0103A0  0101               	movlb	1	; () banked
 10894  0103A2  6FCE               	movwf	sendJsonDO@l& (0+255),b
 10895  0103A4  D1C7               	goto	l8006
 10896  0103A6                     l7976:
 10897                           
 10898                           ;GSM.c: 175: {
 10899                           ;GSM.c: 176: sprintf(dataToSend,"%s%s",dataToSend,"{\"id\":\"");
 10900  0103A6  0E02               	movlw	high _dataToSend
 10901  0103A8  0100               	movlb	0	; () banked
 10902  0103AA  0100               	movlb	0	; () banked
 10903  0103AC  6FC9               	movwf	(sprintf@sp+1)& (0+255),b
 10904  0103AE  0E80               	movlw	low _dataToSend
 10905  0103B0  0100               	movlb	0	; () banked
 10906  0103B2  0100               	movlb	0	; () banked
 10907  0103B4  6FC8               	movwf	sprintf@sp& (0+255),b
 10908  0103B6  0EFF               	movlw	high STR_9
 10909  0103B8  0100               	movlb	0	; () banked
 10910  0103BA  0100               	movlb	0	; () banked
 10911  0103BC  6FCB               	movwf	(sprintf@f+1)& (0+255),b
 10912  0103BE  0EE6               	movlw	low STR_9
 10913  0103C0  0100               	movlb	0	; () banked
 10914  0103C2  0100               	movlb	0	; () banked
 10915  0103C4  6FCA               	movwf	sprintf@f& (0+255),b
 10916  0103C6  0E02               	movlw	high _dataToSend
 10917  0103C8  0100               	movlb	0	; () banked
 10918  0103CA  0100               	movlb	0	; () banked
 10919  0103CC  6FCD               	movwf	(?_sprintf+5)& (0+255),b
 10920  0103CE  0E80               	movlw	low _dataToSend
 10921  0103D0  0100               	movlb	0	; () banked
 10922  0103D2  0100               	movlb	0	; () banked
 10923  0103D4  6FCC               	movwf	(?_sprintf+4)& (0+255),b
 10924  0103D6  0EFF               	movlw	high STR_31
 10925  0103D8  0100               	movlb	0	; () banked
 10926  0103DA  0100               	movlb	0	; () banked
 10927  0103DC  6FCF               	movwf	(?_sprintf+7)& (0+255),b
 10928  0103DE  0EAF               	movlw	low STR_31
 10929  0103E0  0100               	movlb	0	; () banked
 10930  0103E2  0100               	movlb	0	; () banked
 10931  0103E4  6FCE               	movwf	(?_sprintf+6)& (0+255),b
 10932  0103E6  ECAE  F0A1         	call	_sprintf	;wreg free
 10933                           
 10934                           ;GSM.c: 177: sprintf(dataToSend,"%s%s",dataToSend,"su0003-01");
 10935  0103EA  0E02               	movlw	high _dataToSend
 10936  0103EC  0100               	movlb	0	; () banked
 10937  0103EE  0100               	movlb	0	; () banked
 10938  0103F0  6FC9               	movwf	(sprintf@sp+1)& (0+255),b
 10939  0103F2  0E80               	movlw	low _dataToSend
 10940  0103F4  0100               	movlb	0	; () banked
 10941  0103F6  0100               	movlb	0	; () banked
 10942  0103F8  6FC8               	movwf	sprintf@sp& (0+255),b
 10943  0103FA  0EFF               	movlw	high STR_9
 10944  0103FC  0100               	movlb	0	; () banked
 10945  0103FE  0100               	movlb	0	; () banked
 10946  010400  6FCB               	movwf	(sprintf@f+1)& (0+255),b
 10947  010402  0EE6               	movlw	low STR_9
 10948  010404  0100               	movlb	0	; () banked
 10949  010406  0100               	movlb	0	; () banked
 10950  010408  6FCA               	movwf	sprintf@f& (0+255),b
 10951  01040A  0E02               	movlw	high _dataToSend
 10952  01040C  0100               	movlb	0	; () banked
 10953  01040E  0100               	movlb	0	; () banked
 10954  010410  6FCD               	movwf	(?_sprintf+5)& (0+255),b
 10955  010412  0E80               	movlw	low _dataToSend
 10956  010414  0100               	movlb	0	; () banked
 10957  010416  0100               	movlb	0	; () banked
 10958  010418  6FCC               	movwf	(?_sprintf+4)& (0+255),b
 10959  01041A  0EFF               	movlw	high STR_33
 10960  01041C  0100               	movlb	0	; () banked
 10961  01041E  0100               	movlb	0	; () banked
 10962  010420  6FCF               	movwf	(?_sprintf+7)& (0+255),b
 10963  010422  0E75               	movlw	low STR_33
 10964  010424  0100               	movlb	0	; () banked
 10965  010426  0100               	movlb	0	; () banked
 10966  010428  6FCE               	movwf	(?_sprintf+6)& (0+255),b
 10967  01042A  ECAE  F0A1         	call	_sprintf	;wreg free
 10968                           
 10969                           ;GSM.c: 178: sprintf(dataToSend,"%s%s",dataToSend,"\",\"datetime\":\"");
 10970  01042E  0E02               	movlw	high _dataToSend
 10971  010430  0100               	movlb	0	; () banked
 10972  010432  0100               	movlb	0	; () banked
 10973  010434  6FC9               	movwf	(sprintf@sp+1)& (0+255),b
 10974  010436  0E80               	movlw	low _dataToSend
 10975  010438  0100               	movlb	0	; () banked
 10976  01043A  0100               	movlb	0	; () banked
 10977  01043C  6FC8               	movwf	sprintf@sp& (0+255),b
 10978  01043E  0EFF               	movlw	high STR_9
 10979  010440  0100               	movlb	0	; () banked
 10980  010442  0100               	movlb	0	; () banked
 10981  010444  6FCB               	movwf	(sprintf@f+1)& (0+255),b
 10982  010446  0EE6               	movlw	low STR_9
 10983  010448  0100               	movlb	0	; () banked
 10984  01044A  0100               	movlb	0	; () banked
 10985  01044C  6FCA               	movwf	sprintf@f& (0+255),b
 10986  01044E  0E02               	movlw	high _dataToSend
 10987  010450  0100               	movlb	0	; () banked
 10988  010452  0100               	movlb	0	; () banked
 10989  010454  6FCD               	movwf	(?_sprintf+5)& (0+255),b
 10990  010456  0E80               	movlw	low _dataToSend
 10991  010458  0100               	movlb	0	; () banked
 10992  01045A  0100               	movlb	0	; () banked
 10993  01045C  6FCC               	movwf	(?_sprintf+4)& (0+255),b
 10994  01045E  0EFE               	movlw	high STR_35
 10995  010460  0100               	movlb	0	; () banked
 10996  010462  0100               	movlb	0	; () banked
 10997  010464  6FCF               	movwf	(?_sprintf+7)& (0+255),b
 10998  010466  0EEA               	movlw	low STR_35
 10999  010468  0100               	movlb	0	; () banked
 11000  01046A  0100               	movlb	0	; () banked
 11001  01046C  6FCE               	movwf	(?_sprintf+6)& (0+255),b
 11002  01046E  ECAE  F0A1         	call	_sprintf	;wreg free
 11003                           
 11004                           ;GSM.c: 179: sprintf(dataToSend,"%s%s",dataToSend,timetoPost2);
 11005  010472  0E02               	movlw	high _dataToSend
 11006  010474  0100               	movlb	0	; () banked
 11007  010476  0100               	movlb	0	; () banked
 11008  010478  6FC9               	movwf	(sprintf@sp+1)& (0+255),b
 11009  01047A  0E80               	movlw	low _dataToSend
 11010  01047C  0100               	movlb	0	; () banked
 11011  01047E  0100               	movlb	0	; () banked
 11012  010480  6FC8               	movwf	sprintf@sp& (0+255),b
 11013  010482  0EFF               	movlw	high STR_9
 11014  010484  0100               	movlb	0	; () banked
 11015  010486  0100               	movlb	0	; () banked
 11016  010488  6FCB               	movwf	(sprintf@f+1)& (0+255),b
 11017  01048A  0EE6               	movlw	low STR_9
 11018  01048C  0100               	movlb	0	; () banked
 11019  01048E  0100               	movlb	0	; () banked
 11020  010490  6FCA               	movwf	sprintf@f& (0+255),b
 11021  010492  0E02               	movlw	high _dataToSend
 11022  010494  0100               	movlb	0	; () banked
 11023  010496  0100               	movlb	0	; () banked
 11024  010498  6FCD               	movwf	(?_sprintf+5)& (0+255),b
 11025  01049A  0E80               	movlw	low _dataToSend
 11026  01049C  0100               	movlb	0	; () banked
 11027  01049E  0100               	movlb	0	; () banked
 11028  0104A0  6FCC               	movwf	(?_sprintf+4)& (0+255),b
 11029  0104A2  0100               	movlb	0	; () banked
 11030  0104A4  0E00               	movlw	high _timetoPost2
 11031  0104A6  0100               	movlb	0	; () banked
 11032  0104A8  0100               	movlb	0	; () banked
 11033  0104AA  6FCF               	movwf	(?_sprintf+7)& (0+255),b
 11034  0104AC  0100               	movlb	0	; () banked
 11035  0104AE  0EB6               	movlw	low _timetoPost2
 11036  0104B0  0100               	movlb	0	; () banked
 11037  0104B2  0100               	movlb	0	; () banked
 11038  0104B4  6FCE               	movwf	(?_sprintf+6)& (0+255),b
 11039  0104B6  ECAE  F0A1         	call	_sprintf	;wreg free
 11040                           
 11041                           ;GSM.c: 182: my_FrameReceived[boardDO].receivedDataTimeDO = 0;
 11042  0104BA  C1DE  F0C2         	movff	sendJsonDO@boardDO,___wmul@multiplier
 11043  0104BE  C1DF  F0C3         	movff	sendJsonDO@boardDO+1,___wmul@multiplier+1
 11044  0104C2  0E00               	movlw	0
 11045  0104C4  0100               	movlb	0	; () banked
 11046  0104C6  0100               	movlb	0	; () banked
 11047  0104C8  6FC5               	movwf	(___wmul@multiplicand+1)& (0+255),b
 11048  0104CA  0E1C               	movlw	28
 11049  0104CC  0100               	movlb	0	; () banked
 11050  0104CE  6FC4               	movwf	___wmul@multiplicand& (0+255),b
 11051  0104D0  ECE9  F0A6         	call	___wmul	;wreg free
 11052  0104D4  0E0C               	movlw	12
 11053  0104D6  0100               	movlb	0	; () banked
 11054  0104D8  0100               	movlb	0	; () banked
 11055  0104DA  27C2               	addwf	?___wmul& (0+255),f,b
 11056  0104DC  0E00               	movlw	0
 11057  0104DE  0100               	movlb	0	; () banked
 11058  0104E0  23C3               	addwfc	(?___wmul+1)& (0+255),f,b
 11059  0104E2  0E5C               	movlw	low _my_FrameReceived
 11060  0104E4  0100               	movlb	0	; () banked
 11061  0104E6  0100               	movlb	0	; () banked
 11062  0104E8  25C2               	addwf	?___wmul& (0+255),w,b
 11063  0104EA  6ED9               	movwf	fsr2l,c
 11064  0104EC  0E08               	movlw	high _my_FrameReceived
 11065  0104EE  0100               	movlb	0	; () banked
 11066  0104F0  0100               	movlb	0	; () banked
 11067  0104F2  21C3               	addwfc	(?___wmul+1)& (0+255),w,b
 11068  0104F4  6EDA               	movwf	fsr2h,c
 11069  0104F6  0E00               	movlw	0
 11070  0104F8  6EDE               	movwf	postinc2,c
 11071  0104FA  0E00               	movlw	0
 11072  0104FC  6EDD               	movwf	postdec2,c
 11073                           
 11074                           ; BSR set to: 0
 11075                           ;GSM.c: 183: sprintf(dataToSend,"%s%s",dataToSend,"\",\"valuetype\":\"");
 11076  0104FE  0E02               	movlw	high _dataToSend
 11077  010500  0100               	movlb	0	; () banked
 11078  010502  0100               	movlb	0	; () banked
 11079  010504  6FC9               	movwf	(sprintf@sp+1)& (0+255),b
 11080  010506  0E80               	movlw	low _dataToSend
 11081  010508  0100               	movlb	0	; () banked
 11082  01050A  0100               	movlb	0	; () banked
 11083  01050C  6FC8               	movwf	sprintf@sp& (0+255),b
 11084  01050E  0EFF               	movlw	high STR_9
 11085  010510  0100               	movlb	0	; () banked
 11086  010512  0100               	movlb	0	; () banked
 11087  010514  6FCB               	movwf	(sprintf@f+1)& (0+255),b
 11088  010516  0EE6               	movlw	low STR_9
 11089  010518  0100               	movlb	0	; () banked
 11090  01051A  0100               	movlb	0	; () banked
 11091  01051C  6FCA               	movwf	sprintf@f& (0+255),b
 11092  01051E  0E02               	movlw	high _dataToSend
 11093  010520  0100               	movlb	0	; () banked
 11094  010522  0100               	movlb	0	; () banked
 11095  010524  6FCD               	movwf	(?_sprintf+5)& (0+255),b
 11096  010526  0E80               	movlw	low _dataToSend
 11097  010528  0100               	movlb	0	; () banked
 11098  01052A  0100               	movlb	0	; () banked
 11099  01052C  6FCC               	movwf	(?_sprintf+4)& (0+255),b
 11100  01052E  0EFE               	movlw	high STR_38
 11101  010530  0100               	movlb	0	; () banked
 11102  010532  0100               	movlb	0	; () banked
 11103  010534  6FCF               	movwf	(?_sprintf+7)& (0+255),b
 11104  010536  0E9A               	movlw	low STR_38
 11105  010538  0100               	movlb	0	; () banked
 11106  01053A  0100               	movlb	0	; () banked
 11107  01053C  6FCE               	movwf	(?_sprintf+6)& (0+255),b
 11108  01053E  ECAE  F0A1         	call	_sprintf	;wreg free
 11109                           
 11110                           ;GSM.c: 184: sprintf(dataToSend,"%s%s",dataToSend,"asis");
 11111  010542  0E02               	movlw	high _dataToSend
 11112  010544  0100               	movlb	0	; () banked
 11113  010546  0100               	movlb	0	; () banked
 11114  010548  6FC9               	movwf	(sprintf@sp+1)& (0+255),b
 11115  01054A  0E80               	movlw	low _dataToSend
 11116  01054C  0100               	movlb	0	; () banked
 11117  01054E  0100               	movlb	0	; () banked
 11118  010550  6FC8               	movwf	sprintf@sp& (0+255),b
 11119  010552  0EFF               	movlw	high STR_9
 11120  010554  0100               	movlb	0	; () banked
 11121  010556  0100               	movlb	0	; () banked
 11122  010558  6FCB               	movwf	(sprintf@f+1)& (0+255),b
 11123  01055A  0EE6               	movlw	low STR_9
 11124  01055C  0100               	movlb	0	; () banked
 11125  01055E  0100               	movlb	0	; () banked
 11126  010560  6FCA               	movwf	sprintf@f& (0+255),b
 11127  010562  0E02               	movlw	high _dataToSend
 11128  010564  0100               	movlb	0	; () banked
 11129  010566  0100               	movlb	0	; () banked
 11130  010568  6FCD               	movwf	(?_sprintf+5)& (0+255),b
 11131  01056A  0E80               	movlw	low _dataToSend
 11132  01056C  0100               	movlb	0	; () banked
 11133  01056E  0100               	movlb	0	; () banked
 11134  010570  6FCC               	movwf	(?_sprintf+4)& (0+255),b
 11135  010572  0EFF               	movlw	high STR_40
 11136  010574  0100               	movlb	0	; () banked
 11137  010576  0100               	movlb	0	; () banked
 11138  010578  6FCF               	movwf	(?_sprintf+7)& (0+255),b
 11139  01057A  0EEB               	movlw	low STR_40
 11140  01057C  0100               	movlb	0	; () banked
 11141  01057E  0100               	movlb	0	; () banked
 11142  010580  6FCE               	movwf	(?_sprintf+6)& (0+255),b
 11143  010582  ECAE  F0A1         	call	_sprintf	;wreg free
 11144                           
 11145                           ;GSM.c: 185: sprintf(dataToSend,"%s%s",dataToSend,"\",\"value\":\"");
 11146  010586  0E02               	movlw	high _dataToSend
 11147  010588  0100               	movlb	0	; () banked
 11148  01058A  0100               	movlb	0	; () banked
 11149  01058C  6FC9               	movwf	(sprintf@sp+1)& (0+255),b
 11150  01058E  0E80               	movlw	low _dataToSend
 11151  010590  0100               	movlb	0	; () banked
 11152  010592  0100               	movlb	0	; () banked
 11153  010594  6FC8               	movwf	sprintf@sp& (0+255),b
 11154  010596  0EFF               	movlw	high STR_9
 11155  010598  0100               	movlb	0	; () banked
 11156  01059A  0100               	movlb	0	; () banked
 11157  01059C  6FCB               	movwf	(sprintf@f+1)& (0+255),b
 11158  01059E  0EE6               	movlw	low STR_9
 11159  0105A0  0100               	movlb	0	; () banked
 11160  0105A2  0100               	movlb	0	; () banked
 11161  0105A4  6FCA               	movwf	sprintf@f& (0+255),b
 11162  0105A6  0E02               	movlw	high _dataToSend
 11163  0105A8  0100               	movlb	0	; () banked
 11164  0105AA  0100               	movlb	0	; () banked
 11165  0105AC  6FCD               	movwf	(?_sprintf+5)& (0+255),b
 11166  0105AE  0E80               	movlw	low _dataToSend
 11167  0105B0  0100               	movlb	0	; () banked
 11168  0105B2  0100               	movlb	0	; () banked
 11169  0105B4  6FCC               	movwf	(?_sprintf+4)& (0+255),b
 11170  0105B6  0EFF               	movlw	high STR_42
 11171  0105B8  0100               	movlb	0	; () banked
 11172  0105BA  0100               	movlb	0	; () banked
 11173  0105BC  6FCF               	movwf	(?_sprintf+7)& (0+255),b
 11174  0105BE  0E22               	movlw	low STR_42
 11175  0105C0  0100               	movlb	0	; () banked
 11176  0105C2  0100               	movlb	0	; () banked
 11177  0105C4  6FCE               	movwf	(?_sprintf+6)& (0+255),b
 11178  0105C6  ECAE  F0A1         	call	_sprintf	;wreg free
 11179                           
 11180                           ;GSM.c: 186: sprintf(dataToSend,"%s%s",dataToSend, my_FrameReceived[boardDO].receivedFra
      +                          meDO);
 11181  0105CA  0E02               	movlw	high _dataToSend
 11182  0105CC  0100               	movlb	0	; () banked
 11183  0105CE  0100               	movlb	0	; () banked
 11184  0105D0  6FC9               	movwf	(sprintf@sp+1)& (0+255),b
 11185  0105D2  0E80               	movlw	low _dataToSend
 11186  0105D4  0100               	movlb	0	; () banked
 11187  0105D6  0100               	movlb	0	; () banked
 11188  0105D8  6FC8               	movwf	sprintf@sp& (0+255),b
 11189  0105DA  0EFF               	movlw	high STR_9
 11190  0105DC  0100               	movlb	0	; () banked
 11191  0105DE  0100               	movlb	0	; () banked
 11192  0105E0  6FCB               	movwf	(sprintf@f+1)& (0+255),b
 11193  0105E2  0EE6               	movlw	low STR_9
 11194  0105E4  0100               	movlb	0	; () banked
 11195  0105E6  0100               	movlb	0	; () banked
 11196  0105E8  6FCA               	movwf	sprintf@f& (0+255),b
 11197  0105EA  0E02               	movlw	high _dataToSend
 11198  0105EC  0100               	movlb	0	; () banked
 11199  0105EE  0100               	movlb	0	; () banked
 11200  0105F0  6FCD               	movwf	(?_sprintf+5)& (0+255),b
 11201  0105F2  0E80               	movlw	low _dataToSend
 11202  0105F4  0100               	movlb	0	; () banked
 11203  0105F6  0100               	movlb	0	; () banked
 11204  0105F8  6FCC               	movwf	(?_sprintf+4)& (0+255),b
 11205  0105FA  C1DE  F0C2         	movff	sendJsonDO@boardDO,___wmul@multiplier
 11206  0105FE  C1DF  F0C3         	movff	sendJsonDO@boardDO+1,___wmul@multiplier+1
 11207  010602  0E00               	movlw	0
 11208  010604  0100               	movlb	0	; () banked
 11209  010606  0100               	movlb	0	; () banked
 11210  010608  6FC5               	movwf	(___wmul@multiplicand+1)& (0+255),b
 11211  01060A  0E1C               	movlw	28
 11212  01060C  0100               	movlb	0	; () banked
 11213  01060E  6FC4               	movwf	___wmul@multiplicand& (0+255),b
 11214  010610  ECE9  F0A6         	call	___wmul	;wreg free
 11215  010614  0E07               	movlw	7
 11216  010616  0100               	movlb	0	; () banked
 11217  010618  0100               	movlb	0	; () banked
 11218  01061A  27C2               	addwf	?___wmul& (0+255),f,b
 11219  01061C  0E00               	movlw	0
 11220  01061E  0100               	movlb	0	; () banked
 11221  010620  23C3               	addwfc	(?___wmul+1)& (0+255),f,b
 11222  010622  0E5C               	movlw	low _my_FrameReceived
 11223  010624  0100               	movlb	0	; () banked
 11224  010626  6FDA               	movwf	??_sendJsonDO& (0+255),b
 11225  010628  0E08               	movlw	high _my_FrameReceived
 11226  01062A  6FDB               	movwf	(??_sendJsonDO+1)& (0+255),b
 11227  01062C  0100               	movlb	0	; () banked
 11228  01062E  0100               	movlb	0	; () banked
 11229  010630  51C2               	movf	?___wmul& (0+255),w,b
 11230  010632  0100               	movlb	0	; () banked
 11231  010634  27DA               	addwf	??_sendJsonDO& (0+255),f,b
 11232  010636  0100               	movlb	0	; () banked
 11233  010638  0100               	movlb	0	; () banked
 11234  01063A  51C3               	movf	(?___wmul+1)& (0+255),w,b
 11235  01063C  0100               	movlb	0	; () banked
 11236  01063E  23DB               	addwfc	(??_sendJsonDO+1)& (0+255),f,b
 11237  010640  C0DA  F0CE         	movff	??_sendJsonDO,?_sprintf+6
 11238  010644  C0DB  F0CF         	movff	??_sendJsonDO+1,?_sprintf+7
 11239  010648  ECAE  F0A1         	call	_sprintf	;wreg free
 11240                           
 11241                           ;GSM.c: 187: for(int erase =0;erase<=5;erase++)
 11242  01064C  0E00               	movlw	0
 11243  01064E  0101               	movlb	1	; () banked
 11244  010650  0101               	movlb	1	; () banked
 11245  010652  6FD7               	movwf	(sendJsonDO@erase+1)& (0+255),b
 11246  010654  0E00               	movlw	0
 11247  010656  0101               	movlb	1	; () banked
 11248  010658  6FD6               	movwf	sendJsonDO@erase& (0+255),b
 11249  01065A                     
 11250                           ; BSR set to: 1
 11251  01065A  0101               	movlb	1	; () banked
 11252  01065C  0101               	movlb	1	; () banked
 11253  01065E  51D7               	movf	(sendJsonDO@erase+1)& (0+255),w,b
 11254  010660  0A80               	xorlw	128
 11255  010662  0F80               	addlw	-128
 11256  010664  0E06               	movlw	6
 11257  010666  B4D8               	btfsc	status,2,c
 11258  010668  5DD6               	subwf	sendJsonDO@erase& (0+255),w,b
 11259  01066A  B0D8               	btfsc	status,0,c
 11260  01066C  D039               	goto	l8000
 11261                           
 11262                           ; BSR set to: 1
 11263                           ;GSM.c: 188: {
 11264                           ;GSM.c: 189: my_FrameReceived[boardDO].receivedFrameDO[erase] = '\0';
 11265                           
 11266                           ; BSR set to: 1
 11267                           
 11268                           ; BSR set to: 1
 11269  01066E  C1DE  F0C2         	movff	sendJsonDO@boardDO,___wmul@multiplier
 11270  010672  C1DF  F0C3         	movff	sendJsonDO@boardDO+1,___wmul@multiplier+1
 11271  010676  0E00               	movlw	0
 11272  010678  0100               	movlb	0	; () banked
 11273  01067A  0100               	movlb	0	; () banked
 11274  01067C  6FC5               	movwf	(___wmul@multiplicand+1)& (0+255),b
 11275  01067E  0E1C               	movlw	28
 11276  010680  0100               	movlb	0	; () banked
 11277  010682  6FC4               	movwf	___wmul@multiplicand& (0+255),b
 11278  010684  ECE9  F0A6         	call	___wmul	;wreg free
 11279  010688  0E07               	movlw	7
 11280  01068A  0101               	movlb	1	; () banked
 11281  01068C  0101               	movlb	1	; () banked
 11282  01068E  25D6               	addwf	sendJsonDO@erase& (0+255),w,b
 11283  010690  0100               	movlb	0	; () banked
 11284  010692  6FDA               	movwf	??_sendJsonDO& (0+255),b
 11285  010694  0E00               	movlw	0
 11286  010696  0101               	movlb	1	; () banked
 11287  010698  0101               	movlb	1	; () banked
 11288  01069A  21D7               	addwfc	(sendJsonDO@erase+1)& (0+255),w,b
 11289  01069C  0100               	movlb	0	; () banked
 11290  01069E  6FDB               	movwf	(??_sendJsonDO+1)& (0+255),b
 11291  0106A0  0E5C               	movlw	low _my_FrameReceived
 11292  0106A2  0100               	movlb	0	; () banked
 11293  0106A4  6FDC               	movwf	(??_sendJsonDO+2)& (0+255),b
 11294  0106A6  0E08               	movlw	high _my_FrameReceived
 11295  0106A8  6FDD               	movwf	(??_sendJsonDO+3)& (0+255),b
 11296  0106AA  0100               	movlb	0	; () banked
 11297  0106AC  51DA               	movf	??_sendJsonDO& (0+255),w,b
 11298  0106AE  0100               	movlb	0	; () banked
 11299  0106B0  27DC               	addwf	(??_sendJsonDO+2)& (0+255),f,b
 11300  0106B2  0100               	movlb	0	; () banked
 11301  0106B4  51DB               	movf	(??_sendJsonDO+1)& (0+255),w,b
 11302  0106B6  0100               	movlb	0	; () banked
 11303  0106B8  23DD               	addwfc	(??_sendJsonDO+3)& (0+255),f,b
 11304  0106BA  0100               	movlb	0	; () banked
 11305  0106BC  0100               	movlb	0	; () banked
 11306  0106BE  51C2               	movf	?___wmul& (0+255),w,b
 11307  0106C0  0100               	movlb	0	; () banked
 11308  0106C2  25DC               	addwf	(??_sendJsonDO+2)& (0+255),w,b
 11309  0106C4  6ED9               	movwf	fsr2l,c
 11310  0106C6  0100               	movlb	0	; () banked
 11311  0106C8  0100               	movlb	0	; () banked
 11312  0106CA  51C3               	movf	(?___wmul+1)& (0+255),w,b
 11313  0106CC  0100               	movlb	0	; () banked
 11314  0106CE  21DD               	addwfc	(??_sendJsonDO+3)& (0+255),w,b
 11315  0106D0  6EDA               	movwf	fsr2h,c
 11316  0106D2  0E00               	movlw	0
 11317  0106D4  6EDF               	movwf	indf2,c
 11318                           
 11319                           ; BSR set to: 0
 11320  0106D6  0101               	movlb	1	; () banked
 11321  0106D8  0101               	movlb	1	; () banked
 11322  0106DA  4BD6               	infsnz	sendJsonDO@erase& (0+255),f,b
 11323  0106DC  2BD7               	incf	(sendJsonDO@erase+1)& (0+255),f,b
 11324  0106DE  D7BD               	goto	L14
 11325  0106E0                     l8000:
 11326                           
 11327                           ; BSR set to: 1
 11328                           ;GSM.c: 190: }
 11329                           ;GSM.c: 191: boardDO ++;
 11330  0106E0  0101               	movlb	1	; () banked
 11331  0106E2  0101               	movlb	1	; () banked
 11332  0106E4  4BDE               	infsnz	sendJsonDO@boardDO& (0+255),f,b
 11333  0106E6  2BDF               	incf	(sendJsonDO@boardDO+1)& (0+255),f,b
 11334                           
 11335                           ; BSR set to: 1
 11336                           ;GSM.c: 192: sprintf(dataToSend,"%s%s",dataToSend,"\"},");
 11337  0106E8  0E02               	movlw	high _dataToSend
 11338  0106EA  0100               	movlb	0	; () banked
 11339  0106EC  0100               	movlb	0	; () banked
 11340  0106EE  6FC9               	movwf	(sprintf@sp+1)& (0+255),b
 11341  0106F0  0E80               	movlw	low _dataToSend
 11342  0106F2  0100               	movlb	0	; () banked
 11343  0106F4  0100               	movlb	0	; () banked
 11344  0106F6  6FC8               	movwf	sprintf@sp& (0+255),b
 11345  0106F8  0EFF               	movlw	high STR_9
 11346  0106FA  0100               	movlb	0	; () banked
 11347  0106FC  0100               	movlb	0	; () banked
 11348  0106FE  6FCB               	movwf	(sprintf@f+1)& (0+255),b
 11349  010700  0EE6               	movlw	low STR_9
 11350  010702  0100               	movlb	0	; () banked
 11351  010704  0100               	movlb	0	; () banked
 11352  010706  6FCA               	movwf	sprintf@f& (0+255),b
 11353  010708  0E02               	movlw	high _dataToSend
 11354  01070A  0100               	movlb	0	; () banked
 11355  01070C  0100               	movlb	0	; () banked
 11356  01070E  6FCD               	movwf	(?_sprintf+5)& (0+255),b
 11357  010710  0E80               	movlw	low _dataToSend
 11358  010712  0100               	movlb	0	; () banked
 11359  010714  0100               	movlb	0	; () banked
 11360  010716  6FCC               	movwf	(?_sprintf+4)& (0+255),b
 11361  010718  0EFF               	movlw	high STR_45
 11362  01071A  0100               	movlb	0	; () banked
 11363  01071C  0100               	movlb	0	; () banked
 11364  01071E  6FCF               	movwf	(?_sprintf+7)& (0+255),b
 11365  010720  0EF5               	movlw	low STR_45
 11366  010722  0100               	movlb	0	; () banked
 11367  010724  0100               	movlb	0	; () banked
 11368  010726  6FCE               	movwf	(?_sprintf+6)& (0+255),b
 11369  010728  ECAE  F0A1         	call	_sprintf	;wreg free
 11370  01072C  0101               	movlb	1	; () banked
 11371  01072E  0101               	movlb	1	; () banked
 11372  010730  4BCE               	infsnz	sendJsonDO@l& (0+255),f,b
 11373  010732  2BCF               	incf	(sendJsonDO@l+1)& (0+255),f,b
 11374  010734                     l8006:
 11375                           
 11376                           ; BSR set to: 1
 11377  010734  0EFF               	movlw	255
 11378  010736  0100               	movlb	0	; () banked
 11379  010738  6FDA               	movwf	??_sendJsonDO& (0+255),b
 11380  01073A  0EFF               	movlw	255
 11381  01073C  6FDB               	movwf	(??_sendJsonDO+1)& (0+255),b
 11382  01073E  0100               	movlb	0	; () banked
 11383  010740  C084  F0DC         	movff	_nbFrameDO,??_sendJsonDO+2
 11384  010744  0100               	movlb	0	; () banked
 11385  010746  C085  F0DD         	movff	_nbFrameDO+1,??_sendJsonDO+3
 11386  01074A  0100               	movlb	0	; () banked
 11387  01074C  51DA               	movf	??_sendJsonDO& (0+255),w,b
 11388  01074E  0100               	movlb	0	; () banked
 11389  010750  27DC               	addwf	(??_sendJsonDO+2)& (0+255),f,b
 11390  010752  0100               	movlb	0	; () banked
 11391  010754  51DB               	movf	(??_sendJsonDO+1)& (0+255),w,b
 11392  010756  0100               	movlb	0	; () banked
 11393  010758  23DD               	addwfc	(??_sendJsonDO+3)& (0+255),f,b
 11394  01075A  0100               	movlb	0	; () banked
 11395  01075C  51DD               	movf	(??_sendJsonDO+3)& (0+255),w,b
 11396  01075E  0A80               	xorlw	128
 11397  010760  0100               	movlb	0	; () banked
 11398  010762  6FDE               	movwf	(??_sendJsonDO+4)& (0+255),b
 11399  010764  0101               	movlb	1	; () banked
 11400  010766  0101               	movlb	1	; () banked
 11401  010768  51CE               	movf	sendJsonDO@l& (0+255),w,b
 11402  01076A  0100               	movlb	0	; () banked
 11403  01076C  5DDC               	subwf	(??_sendJsonDO+2)& (0+255),w,b
 11404  01076E  0101               	movlb	1	; () banked
 11405  010770  0101               	movlb	1	; () banked
 11406  010772  51CF               	movf	(sendJsonDO@l+1)& (0+255),w,b
 11407  010774  0A80               	xorlw	128
 11408  010776  0100               	movlb	0	; () banked
 11409  010778  59DE               	subwfb	(??_sendJsonDO+4)& (0+255),w,b
 11410  01077A  B0D8               	btfsc	status,0,c
 11411  01077C  D614               	goto	l7976
 11412  01077E                     l8008:
 11413                           
 11414                           ; BSR set to: 0
 11415                           ;GSM.c: 193: }
 11416                           ;GSM.c: 194: }
 11417                           ;GSM.c: 197: if(nbFramePH!=0)
 11418  01077E  0100               	movlb	0	; () banked
 11419  010780  0100               	movlb	0	; () banked
 11420  010782  5189               	movf	(_nbFramePH+1)& (0+255),w,b
 11421  010784  1188               	iorwf	_nbFramePH& (0+255),w,b
 11422  010786  B4D8               	btfsc	status,2,c
 11423  010788  D269               	goto	l8048
 11424                           
 11425                           ; BSR set to: 0
 11426                           ;GSM.c: 198: {
 11427                           ;GSM.c: 199: if(nbFrameDO!=0)
 11428  01078A  0100               	movlb	0	; () banked
 11429  01078C  0100               	movlb	0	; () banked
 11430  01078E  5185               	movf	(_nbFrameDO+1)& (0+255),w,b
 11431  010790  1184               	iorwf	_nbFrameDO& (0+255),w,b
 11432  010792  B4D8               	btfsc	status,2,c
 11433  010794  D01A               	goto	l642
 11434                           
 11435                           ; BSR set to: 0
 11436                           ;GSM.c: 200: {
 11437                           ;GSM.c: 201: sprintf(dataToSend,"%s]},",dataToSend);
 11438  010796  0E02               	movlw	high _dataToSend
 11439  010798  0100               	movlb	0	; () banked
 11440  01079A  0100               	movlb	0	; () banked
 11441  01079C  6FC9               	movwf	(sprintf@sp+1)& (0+255),b
 11442  01079E  0E80               	movlw	low _dataToSend
 11443  0107A0  0100               	movlb	0	; () banked
 11444  0107A2  0100               	movlb	0	; () banked
 11445  0107A4  6FC8               	movwf	sprintf@sp& (0+255),b
 11446  0107A6  0EFF               	movlw	high STR_46
 11447  0107A8  0100               	movlb	0	; () banked
 11448  0107AA  0100               	movlb	0	; () banked
 11449  0107AC  6FCB               	movwf	(sprintf@f+1)& (0+255),b
 11450  0107AE  0EDA               	movlw	low STR_46
 11451  0107B0  0100               	movlb	0	; () banked
 11452  0107B2  0100               	movlb	0	; () banked
 11453  0107B4  6FCA               	movwf	sprintf@f& (0+255),b
 11454  0107B6  0E02               	movlw	high _dataToSend
 11455  0107B8  0100               	movlb	0	; () banked
 11456  0107BA  0100               	movlb	0	; () banked
 11457  0107BC  6FCD               	movwf	(?_sprintf+5)& (0+255),b
 11458  0107BE  0E80               	movlw	low _dataToSend
 11459  0107C0  0100               	movlb	0	; () banked
 11460  0107C2  0100               	movlb	0	; () banked
 11461  0107C4  6FCC               	movwf	(?_sprintf+4)& (0+255),b
 11462  0107C6  ECAE  F0A1         	call	_sprintf	;wreg free
 11463  0107CA                     l642:
 11464                           
 11465                           ;GSM.c: 202: }
 11466                           ;GSM.c: 203: sprintf(dataToSend,"%s%s",dataToSend,"{\"sensorunit\":\"");
 11467  0107CA  0E02               	movlw	high _dataToSend
 11468  0107CC  0100               	movlb	0	; () banked
 11469  0107CE  0100               	movlb	0	; () banked
 11470  0107D0  6FC9               	movwf	(sprintf@sp+1)& (0+255),b
 11471  0107D2  0E80               	movlw	low _dataToSend
 11472  0107D4  0100               	movlb	0	; () banked
 11473  0107D6  0100               	movlb	0	; () banked
 11474  0107D8  6FC8               	movwf	sprintf@sp& (0+255),b
 11475  0107DA  0EFF               	movlw	high STR_9
 11476  0107DC  0100               	movlb	0	; () banked
 11477  0107DE  0100               	movlb	0	; () banked
 11478  0107E0  6FCB               	movwf	(sprintf@f+1)& (0+255),b
 11479  0107E2  0EE6               	movlw	low STR_9
 11480  0107E4  0100               	movlb	0	; () banked
 11481  0107E6  0100               	movlb	0	; () banked
 11482  0107E8  6FCA               	movwf	sprintf@f& (0+255),b
 11483  0107EA  0E02               	movlw	high _dataToSend
 11484  0107EC  0100               	movlb	0	; () banked
 11485  0107EE  0100               	movlb	0	; () banked
 11486  0107F0  6FCD               	movwf	(?_sprintf+5)& (0+255),b
 11487  0107F2  0E80               	movlw	low _dataToSend
 11488  0107F4  0100               	movlb	0	; () banked
 11489  0107F6  0100               	movlb	0	; () banked
 11490  0107F8  6FCC               	movwf	(?_sprintf+4)& (0+255),b
 11491  0107FA  0EFE               	movlw	high STR_25
 11492  0107FC  0100               	movlb	0	; () banked
 11493  0107FE  0100               	movlb	0	; () banked
 11494  010800  6FCF               	movwf	(?_sprintf+7)& (0+255),b
 11495  010802  0EBA               	movlw	low STR_25
 11496  010804  0100               	movlb	0	; () banked
 11497  010806  0100               	movlb	0	; () banked
 11498  010808  6FCE               	movwf	(?_sprintf+6)& (0+255),b
 11499  01080A  ECAE  F0A1         	call	_sprintf	;wreg free
 11500                           
 11501                           ;GSM.c: 204: sprintf(dataToSend,"%s%s",dataToSend,"su0002");
 11502  01080E  0E02               	movlw	high _dataToSend
 11503  010810  0100               	movlb	0	; () banked
 11504  010812  0100               	movlb	0	; () banked
 11505  010814  6FC9               	movwf	(sprintf@sp+1)& (0+255),b
 11506  010816  0E80               	movlw	low _dataToSend
 11507  010818  0100               	movlb	0	; () banked
 11508  01081A  0100               	movlb	0	; () banked
 11509  01081C  6FC8               	movwf	sprintf@sp& (0+255),b
 11510  01081E  0EFF               	movlw	high STR_9
 11511  010820  0100               	movlb	0	; () banked
 11512  010822  0100               	movlb	0	; () banked
 11513  010824  6FCB               	movwf	(sprintf@f+1)& (0+255),b
 11514  010826  0EE6               	movlw	low STR_9
 11515  010828  0100               	movlb	0	; () banked
 11516  01082A  0100               	movlb	0	; () banked
 11517  01082C  6FCA               	movwf	sprintf@f& (0+255),b
 11518  01082E  0E02               	movlw	high _dataToSend
 11519  010830  0100               	movlb	0	; () banked
 11520  010832  0100               	movlb	0	; () banked
 11521  010834  6FCD               	movwf	(?_sprintf+5)& (0+255),b
 11522  010836  0E80               	movlw	low _dataToSend
 11523  010838  0100               	movlb	0	; () banked
 11524  01083A  0100               	movlb	0	; () banked
 11525  01083C  6FCC               	movwf	(?_sprintf+4)& (0+255),b
 11526  01083E  0EFF               	movlw	high STR_50
 11527  010840  0100               	movlb	0	; () banked
 11528  010842  0100               	movlb	0	; () banked
 11529  010844  6FCF               	movwf	(?_sprintf+7)& (0+255),b
 11530  010846  0EBE               	movlw	low STR_50
 11531  010848  0100               	movlb	0	; () banked
 11532  01084A  0100               	movlb	0	; () banked
 11533  01084C  6FCE               	movwf	(?_sprintf+6)& (0+255),b
 11534  01084E  ECAE  F0A1         	call	_sprintf	;wreg free
 11535                           
 11536                           ;GSM.c: 205: sprintf(dataToSend,"%s%s",dataToSend,"\",\"data\":[");
 11537  010852  0E02               	movlw	high _dataToSend
 11538  010854  0100               	movlb	0	; () banked
 11539  010856  0100               	movlb	0	; () banked
 11540  010858  6FC9               	movwf	(sprintf@sp+1)& (0+255),b
 11541  01085A  0E80               	movlw	low _dataToSend
 11542  01085C  0100               	movlb	0	; () banked
 11543  01085E  0100               	movlb	0	; () banked
 11544  010860  6FC8               	movwf	sprintf@sp& (0+255),b
 11545  010862  0EFF               	movlw	high STR_9
 11546  010864  0100               	movlb	0	; () banked
 11547  010866  0100               	movlb	0	; () banked
 11548  010868  6FCB               	movwf	(sprintf@f+1)& (0+255),b
 11549  01086A  0EE6               	movlw	low STR_9
 11550  01086C  0100               	movlb	0	; () banked
 11551  01086E  0100               	movlb	0	; () banked
 11552  010870  6FCA               	movwf	sprintf@f& (0+255),b
 11553  010872  0E02               	movlw	high _dataToSend
 11554  010874  0100               	movlb	0	; () banked
 11555  010876  0100               	movlb	0	; () banked
 11556  010878  6FCD               	movwf	(?_sprintf+5)& (0+255),b
 11557  01087A  0E80               	movlw	low _dataToSend
 11558  01087C  0100               	movlb	0	; () banked
 11559  01087E  0100               	movlb	0	; () banked
 11560  010880  6FCC               	movwf	(?_sprintf+4)& (0+255),b
 11561  010882  0EFF               	movlw	high STR_29
 11562  010884  0100               	movlb	0	; () banked
 11563  010886  0100               	movlb	0	; () banked
 11564  010888  6FCF               	movwf	(?_sprintf+7)& (0+255),b
 11565  01088A  0E6A               	movlw	low STR_29
 11566  01088C  0100               	movlb	0	; () banked
 11567  01088E  0100               	movlb	0	; () banked
 11568  010890  6FCE               	movwf	(?_sprintf+6)& (0+255),b
 11569  010892  ECAE  F0A1         	call	_sprintf	;wreg free
 11570                           
 11571                           ;GSM.c: 206: for(int l = 0;l <= nbFramePH-1; l++)
 11572  010896  0E00               	movlw	0
 11573  010898  0101               	movlb	1	; () banked
 11574  01089A  0101               	movlb	1	; () banked
 11575  01089C  6FD1               	movwf	(sendJsonDO@l_1439+1)& (0+255),b
 11576  01089E  0E00               	movlw	0
 11577  0108A0  0101               	movlb	1	; () banked
 11578  0108A2  6FD0               	movwf	sendJsonDO@l_1439& (0+255),b
 11579  0108A4  D1B6               	goto	l8046
 11580  0108A6                     l8016:
 11581                           
 11582                           ;GSM.c: 207: {
 11583                           ;GSM.c: 208: sprintf(dataToSend,"%s%s",dataToSend,"{\"id\":\"");
 11584  0108A6  0E02               	movlw	high _dataToSend
 11585  0108A8  0100               	movlb	0	; () banked
 11586  0108AA  0100               	movlb	0	; () banked
 11587  0108AC  6FC9               	movwf	(sprintf@sp+1)& (0+255),b
 11588  0108AE  0E80               	movlw	low _dataToSend
 11589  0108B0  0100               	movlb	0	; () banked
 11590  0108B2  0100               	movlb	0	; () banked
 11591  0108B4  6FC8               	movwf	sprintf@sp& (0+255),b
 11592  0108B6  0EFF               	movlw	high STR_9
 11593  0108B8  0100               	movlb	0	; () banked
 11594  0108BA  0100               	movlb	0	; () banked
 11595  0108BC  6FCB               	movwf	(sprintf@f+1)& (0+255),b
 11596  0108BE  0EE6               	movlw	low STR_9
 11597  0108C0  0100               	movlb	0	; () banked
 11598  0108C2  0100               	movlb	0	; () banked
 11599  0108C4  6FCA               	movwf	sprintf@f& (0+255),b
 11600  0108C6  0E02               	movlw	high _dataToSend
 11601  0108C8  0100               	movlb	0	; () banked
 11602  0108CA  0100               	movlb	0	; () banked
 11603  0108CC  6FCD               	movwf	(?_sprintf+5)& (0+255),b
 11604  0108CE  0E80               	movlw	low _dataToSend
 11605  0108D0  0100               	movlb	0	; () banked
 11606  0108D2  0100               	movlb	0	; () banked
 11607  0108D4  6FCC               	movwf	(?_sprintf+4)& (0+255),b
 11608  0108D6  0EFF               	movlw	high STR_31
 11609  0108D8  0100               	movlb	0	; () banked
 11610  0108DA  0100               	movlb	0	; () banked
 11611  0108DC  6FCF               	movwf	(?_sprintf+7)& (0+255),b
 11612  0108DE  0EAF               	movlw	low STR_31
 11613  0108E0  0100               	movlb	0	; () banked
 11614  0108E2  0100               	movlb	0	; () banked
 11615  0108E4  6FCE               	movwf	(?_sprintf+6)& (0+255),b
 11616  0108E6  ECAE  F0A1         	call	_sprintf	;wreg free
 11617                           
 11618                           ;GSM.c: 209: sprintf(dataToSend,"%s%s",dataToSend,"su0002_01");
 11619  0108EA  0E02               	movlw	high _dataToSend
 11620  0108EC  0100               	movlb	0	; () banked
 11621  0108EE  0100               	movlb	0	; () banked
 11622  0108F0  6FC9               	movwf	(sprintf@sp+1)& (0+255),b
 11623  0108F2  0E80               	movlw	low _dataToSend
 11624  0108F4  0100               	movlb	0	; () banked
 11625  0108F6  0100               	movlb	0	; () banked
 11626  0108F8  6FC8               	movwf	sprintf@sp& (0+255),b
 11627  0108FA  0EFF               	movlw	high STR_9
 11628  0108FC  0100               	movlb	0	; () banked
 11629  0108FE  0100               	movlb	0	; () banked
 11630  010900  6FCB               	movwf	(sprintf@f+1)& (0+255),b
 11631  010902  0EE6               	movlw	low STR_9
 11632  010904  0100               	movlb	0	; () banked
 11633  010906  0100               	movlb	0	; () banked
 11634  010908  6FCA               	movwf	sprintf@f& (0+255),b
 11635  01090A  0E02               	movlw	high _dataToSend
 11636  01090C  0100               	movlb	0	; () banked
 11637  01090E  0100               	movlb	0	; () banked
 11638  010910  6FCD               	movwf	(?_sprintf+5)& (0+255),b
 11639  010912  0E80               	movlw	low _dataToSend
 11640  010914  0100               	movlb	0	; () banked
 11641  010916  0100               	movlb	0	; () banked
 11642  010918  6FCC               	movwf	(?_sprintf+4)& (0+255),b
 11643  01091A  0EFF               	movlw	high STR_56
 11644  01091C  0100               	movlb	0	; () banked
 11645  01091E  0100               	movlb	0	; () banked
 11646  010920  6FCF               	movwf	(?_sprintf+7)& (0+255),b
 11647  010922  0E7F               	movlw	low STR_56
 11648  010924  0100               	movlb	0	; () banked
 11649  010926  0100               	movlb	0	; () banked
 11650  010928  6FCE               	movwf	(?_sprintf+6)& (0+255),b
 11651  01092A  ECAE  F0A1         	call	_sprintf	;wreg free
 11652                           
 11653                           ;GSM.c: 210: sprintf(dataToSend,"%s%s",dataToSend,"\",\"datetime\":\"");
 11654  01092E  0E02               	movlw	high _dataToSend
 11655  010930  0100               	movlb	0	; () banked
 11656  010932  0100               	movlb	0	; () banked
 11657  010934  6FC9               	movwf	(sprintf@sp+1)& (0+255),b
 11658  010936  0E80               	movlw	low _dataToSend
 11659  010938  0100               	movlb	0	; () banked
 11660  01093A  0100               	movlb	0	; () banked
 11661  01093C  6FC8               	movwf	sprintf@sp& (0+255),b
 11662  01093E  0EFF               	movlw	high STR_9
 11663  010940  0100               	movlb	0	; () banked
 11664  010942  0100               	movlb	0	; () banked
 11665  010944  6FCB               	movwf	(sprintf@f+1)& (0+255),b
 11666  010946  0EE6               	movlw	low STR_9
 11667  010948  0100               	movlb	0	; () banked
 11668  01094A  0100               	movlb	0	; () banked
 11669  01094C  6FCA               	movwf	sprintf@f& (0+255),b
 11670  01094E  0E02               	movlw	high _dataToSend
 11671  010950  0100               	movlb	0	; () banked
 11672  010952  0100               	movlb	0	; () banked
 11673  010954  6FCD               	movwf	(?_sprintf+5)& (0+255),b
 11674  010956  0E80               	movlw	low _dataToSend
 11675  010958  0100               	movlb	0	; () banked
 11676  01095A  0100               	movlb	0	; () banked
 11677  01095C  6FCC               	movwf	(?_sprintf+4)& (0+255),b
 11678  01095E  0EFE               	movlw	high STR_35
 11679  010960  0100               	movlb	0	; () banked
 11680  010962  0100               	movlb	0	; () banked
 11681  010964  6FCF               	movwf	(?_sprintf+7)& (0+255),b
 11682  010966  0EEA               	movlw	low STR_35
 11683  010968  0100               	movlb	0	; () banked
 11684  01096A  0100               	movlb	0	; () banked
 11685  01096C  6FCE               	movwf	(?_sprintf+6)& (0+255),b
 11686  01096E  ECAE  F0A1         	call	_sprintf	;wreg free
 11687                           
 11688                           ;GSM.c: 211: sprintf(dataToSend,"%s%s",dataToSend,timetoPost2);
 11689  010972  0E02               	movlw	high _dataToSend
 11690  010974  0100               	movlb	0	; () banked
 11691  010976  0100               	movlb	0	; () banked
 11692  010978  6FC9               	movwf	(sprintf@sp+1)& (0+255),b
 11693  01097A  0E80               	movlw	low _dataToSend
 11694  01097C  0100               	movlb	0	; () banked
 11695  01097E  0100               	movlb	0	; () banked
 11696  010980  6FC8               	movwf	sprintf@sp& (0+255),b
 11697  010982  0EFF               	movlw	high STR_9
 11698  010984  0100               	movlb	0	; () banked
 11699  010986  0100               	movlb	0	; () banked
 11700  010988  6FCB               	movwf	(sprintf@f+1)& (0+255),b
 11701  01098A  0EE6               	movlw	low STR_9
 11702  01098C  0100               	movlb	0	; () banked
 11703  01098E  0100               	movlb	0	; () banked
 11704  010990  6FCA               	movwf	sprintf@f& (0+255),b
 11705  010992  0E02               	movlw	high _dataToSend
 11706  010994  0100               	movlb	0	; () banked
 11707  010996  0100               	movlb	0	; () banked
 11708  010998  6FCD               	movwf	(?_sprintf+5)& (0+255),b
 11709  01099A  0E80               	movlw	low _dataToSend
 11710  01099C  0100               	movlb	0	; () banked
 11711  01099E  0100               	movlb	0	; () banked
 11712  0109A0  6FCC               	movwf	(?_sprintf+4)& (0+255),b
 11713  0109A2  0100               	movlb	0	; () banked
 11714  0109A4  0E00               	movlw	high _timetoPost2
 11715  0109A6  0100               	movlb	0	; () banked
 11716  0109A8  0100               	movlb	0	; () banked
 11717  0109AA  6FCF               	movwf	(?_sprintf+7)& (0+255),b
 11718  0109AC  0100               	movlb	0	; () banked
 11719  0109AE  0EB6               	movlw	low _timetoPost2
 11720  0109B0  0100               	movlb	0	; () banked
 11721  0109B2  0100               	movlb	0	; () banked
 11722  0109B4  6FCE               	movwf	(?_sprintf+6)& (0+255),b
 11723  0109B6  ECAE  F0A1         	call	_sprintf	;wreg free
 11724                           
 11725                           ;GSM.c: 214: my_FrameReceived[boardPH].receivedDataTimePH = 0;
 11726  0109BA  C1E0  F0C2         	movff	sendJsonDO@boardPH,___wmul@multiplier
 11727  0109BE  C1E1  F0C3         	movff	sendJsonDO@boardPH+1,___wmul@multiplier+1
 11728  0109C2  0E00               	movlw	0
 11729  0109C4  0100               	movlb	0	; () banked
 11730  0109C6  0100               	movlb	0	; () banked
 11731  0109C8  6FC5               	movwf	(___wmul@multiplicand+1)& (0+255),b
 11732  0109CA  0E1C               	movlw	28
 11733  0109CC  0100               	movlb	0	; () banked
 11734  0109CE  6FC4               	movwf	___wmul@multiplicand& (0+255),b
 11735  0109D0  ECE9  F0A6         	call	___wmul	;wreg free
 11736  0109D4  0E05               	movlw	5
 11737  0109D6  0100               	movlb	0	; () banked
 11738  0109D8  0100               	movlb	0	; () banked
 11739  0109DA  27C2               	addwf	?___wmul& (0+255),f,b
 11740  0109DC  0E00               	movlw	0
 11741  0109DE  0100               	movlb	0	; () banked
 11742  0109E0  23C3               	addwfc	(?___wmul+1)& (0+255),f,b
 11743  0109E2  0E5C               	movlw	low _my_FrameReceived
 11744  0109E4  0100               	movlb	0	; () banked
 11745  0109E6  0100               	movlb	0	; () banked
 11746  0109E8  25C2               	addwf	?___wmul& (0+255),w,b
 11747  0109EA  6ED9               	movwf	fsr2l,c
 11748  0109EC  0E08               	movlw	high _my_FrameReceived
 11749  0109EE  0100               	movlb	0	; () banked
 11750  0109F0  0100               	movlb	0	; () banked
 11751  0109F2  21C3               	addwfc	(?___wmul+1)& (0+255),w,b
 11752  0109F4  6EDA               	movwf	fsr2h,c
 11753  0109F6  0E00               	movlw	0
 11754  0109F8  6EDE               	movwf	postinc2,c
 11755  0109FA  0E00               	movlw	0
 11756  0109FC  6EDD               	movwf	postdec2,c
 11757                           
 11758                           ; BSR set to: 0
 11759                           ;GSM.c: 215: sprintf(dataToSend,"%s%s",dataToSend,"\",\"valuetype\":\"");
 11760  0109FE  0E02               	movlw	high _dataToSend
 11761  010A00  0100               	movlb	0	; () banked
 11762  010A02  0100               	movlb	0	; () banked
 11763  010A04  6FC9               	movwf	(sprintf@sp+1)& (0+255),b
 11764  010A06  0E80               	movlw	low _dataToSend
 11765  010A08  0100               	movlb	0	; () banked
 11766  010A0A  0100               	movlb	0	; () banked
 11767  010A0C  6FC8               	movwf	sprintf@sp& (0+255),b
 11768  010A0E  0EFF               	movlw	high STR_9
 11769  010A10  0100               	movlb	0	; () banked
 11770  010A12  0100               	movlb	0	; () banked
 11771  010A14  6FCB               	movwf	(sprintf@f+1)& (0+255),b
 11772  010A16  0EE6               	movlw	low STR_9
 11773  010A18  0100               	movlb	0	; () banked
 11774  010A1A  0100               	movlb	0	; () banked
 11775  010A1C  6FCA               	movwf	sprintf@f& (0+255),b
 11776  010A1E  0E02               	movlw	high _dataToSend
 11777  010A20  0100               	movlb	0	; () banked
 11778  010A22  0100               	movlb	0	; () banked
 11779  010A24  6FCD               	movwf	(?_sprintf+5)& (0+255),b
 11780  010A26  0E80               	movlw	low _dataToSend
 11781  010A28  0100               	movlb	0	; () banked
 11782  010A2A  0100               	movlb	0	; () banked
 11783  010A2C  6FCC               	movwf	(?_sprintf+4)& (0+255),b
 11784  010A2E  0EFE               	movlw	high STR_38
 11785  010A30  0100               	movlb	0	; () banked
 11786  010A32  0100               	movlb	0	; () banked
 11787  010A34  6FCF               	movwf	(?_sprintf+7)& (0+255),b
 11788  010A36  0E9A               	movlw	low STR_38
 11789  010A38  0100               	movlb	0	; () banked
 11790  010A3A  0100               	movlb	0	; () banked
 11791  010A3C  6FCE               	movwf	(?_sprintf+6)& (0+255),b
 11792  010A3E  ECAE  F0A1         	call	_sprintf	;wreg free
 11793                           
 11794                           ;GSM.c: 216: sprintf(dataToSend,"%s%s",dataToSend,"asis");
 11795  010A42  0E02               	movlw	high _dataToSend
 11796  010A44  0100               	movlb	0	; () banked
 11797  010A46  0100               	movlb	0	; () banked
 11798  010A48  6FC9               	movwf	(sprintf@sp+1)& (0+255),b
 11799  010A4A  0E80               	movlw	low _dataToSend
 11800  010A4C  0100               	movlb	0	; () banked
 11801  010A4E  0100               	movlb	0	; () banked
 11802  010A50  6FC8               	movwf	sprintf@sp& (0+255),b
 11803  010A52  0EFF               	movlw	high STR_9
 11804  010A54  0100               	movlb	0	; () banked
 11805  010A56  0100               	movlb	0	; () banked
 11806  010A58  6FCB               	movwf	(sprintf@f+1)& (0+255),b
 11807  010A5A  0EE6               	movlw	low STR_9
 11808  010A5C  0100               	movlb	0	; () banked
 11809  010A5E  0100               	movlb	0	; () banked
 11810  010A60  6FCA               	movwf	sprintf@f& (0+255),b
 11811  010A62  0E02               	movlw	high _dataToSend
 11812  010A64  0100               	movlb	0	; () banked
 11813  010A66  0100               	movlb	0	; () banked
 11814  010A68  6FCD               	movwf	(?_sprintf+5)& (0+255),b
 11815  010A6A  0E80               	movlw	low _dataToSend
 11816  010A6C  0100               	movlb	0	; () banked
 11817  010A6E  0100               	movlb	0	; () banked
 11818  010A70  6FCC               	movwf	(?_sprintf+4)& (0+255),b
 11819  010A72  0EFF               	movlw	high STR_40
 11820  010A74  0100               	movlb	0	; () banked
 11821  010A76  0100               	movlb	0	; () banked
 11822  010A78  6FCF               	movwf	(?_sprintf+7)& (0+255),b
 11823  010A7A  0EEB               	movlw	low STR_40
 11824  010A7C  0100               	movlb	0	; () banked
 11825  010A7E  0100               	movlb	0	; () banked
 11826  010A80  6FCE               	movwf	(?_sprintf+6)& (0+255),b
 11827  010A82  ECAE  F0A1         	call	_sprintf	;wreg free
 11828                           
 11829                           ;GSM.c: 217: sprintf(dataToSend,"%s%s",dataToSend,"\",\"value\":\"");
 11830  010A86  0E02               	movlw	high _dataToSend
 11831  010A88  0100               	movlb	0	; () banked
 11832  010A8A  0100               	movlb	0	; () banked
 11833  010A8C  6FC9               	movwf	(sprintf@sp+1)& (0+255),b
 11834  010A8E  0E80               	movlw	low _dataToSend
 11835  010A90  0100               	movlb	0	; () banked
 11836  010A92  0100               	movlb	0	; () banked
 11837  010A94  6FC8               	movwf	sprintf@sp& (0+255),b
 11838  010A96  0EFF               	movlw	high STR_9
 11839  010A98  0100               	movlb	0	; () banked
 11840  010A9A  0100               	movlb	0	; () banked
 11841  010A9C  6FCB               	movwf	(sprintf@f+1)& (0+255),b
 11842  010A9E  0EE6               	movlw	low STR_9
 11843  010AA0  0100               	movlb	0	; () banked
 11844  010AA2  0100               	movlb	0	; () banked
 11845  010AA4  6FCA               	movwf	sprintf@f& (0+255),b
 11846  010AA6  0E02               	movlw	high _dataToSend
 11847  010AA8  0100               	movlb	0	; () banked
 11848  010AAA  0100               	movlb	0	; () banked
 11849  010AAC  6FCD               	movwf	(?_sprintf+5)& (0+255),b
 11850  010AAE  0E80               	movlw	low _dataToSend
 11851  010AB0  0100               	movlb	0	; () banked
 11852  010AB2  0100               	movlb	0	; () banked
 11853  010AB4  6FCC               	movwf	(?_sprintf+4)& (0+255),b
 11854  010AB6  0EFF               	movlw	high STR_42
 11855  010AB8  0100               	movlb	0	; () banked
 11856  010ABA  0100               	movlb	0	; () banked
 11857  010ABC  6FCF               	movwf	(?_sprintf+7)& (0+255),b
 11858  010ABE  0E22               	movlw	low STR_42
 11859  010AC0  0100               	movlb	0	; () banked
 11860  010AC2  0100               	movlb	0	; () banked
 11861  010AC4  6FCE               	movwf	(?_sprintf+6)& (0+255),b
 11862  010AC6  ECAE  F0A1         	call	_sprintf	;wreg free
 11863                           
 11864                           ;GSM.c: 218: sprintf(dataToSend,"%s%s",dataToSend,my_FrameReceived[boardPH].receivedFram
      +                          ePH);
 11865  010ACA  0E02               	movlw	high _dataToSend
 11866  010ACC  0100               	movlb	0	; () banked
 11867  010ACE  0100               	movlb	0	; () banked
 11868  010AD0  6FC9               	movwf	(sprintf@sp+1)& (0+255),b
 11869  010AD2  0E80               	movlw	low _dataToSend
 11870  010AD4  0100               	movlb	0	; () banked
 11871  010AD6  0100               	movlb	0	; () banked
 11872  010AD8  6FC8               	movwf	sprintf@sp& (0+255),b
 11873  010ADA  0EFF               	movlw	high STR_9
 11874  010ADC  0100               	movlb	0	; () banked
 11875  010ADE  0100               	movlb	0	; () banked
 11876  010AE0  6FCB               	movwf	(sprintf@f+1)& (0+255),b
 11877  010AE2  0EE6               	movlw	low STR_9
 11878  010AE4  0100               	movlb	0	; () banked
 11879  010AE6  0100               	movlb	0	; () banked
 11880  010AE8  6FCA               	movwf	sprintf@f& (0+255),b
 11881  010AEA  0E02               	movlw	high _dataToSend
 11882  010AEC  0100               	movlb	0	; () banked
 11883  010AEE  0100               	movlb	0	; () banked
 11884  010AF0  6FCD               	movwf	(?_sprintf+5)& (0+255),b
 11885  010AF2  0E80               	movlw	low _dataToSend
 11886  010AF4  0100               	movlb	0	; () banked
 11887  010AF6  0100               	movlb	0	; () banked
 11888  010AF8  6FCC               	movwf	(?_sprintf+4)& (0+255),b
 11889  010AFA  C1E0  F0C2         	movff	sendJsonDO@boardPH,___wmul@multiplier
 11890  010AFE  C1E1  F0C3         	movff	sendJsonDO@boardPH+1,___wmul@multiplier+1
 11891  010B02  0E00               	movlw	0
 11892  010B04  0100               	movlb	0	; () banked
 11893  010B06  0100               	movlb	0	; () banked
 11894  010B08  6FC5               	movwf	(___wmul@multiplicand+1)& (0+255),b
 11895  010B0A  0E1C               	movlw	28
 11896  010B0C  0100               	movlb	0	; () banked
 11897  010B0E  6FC4               	movwf	___wmul@multiplicand& (0+255),b
 11898  010B10  ECE9  F0A6         	call	___wmul	;wreg free
 11899  010B14  0E5C               	movlw	low _my_FrameReceived
 11900  010B16  0100               	movlb	0	; () banked
 11901  010B18  6FDA               	movwf	??_sendJsonDO& (0+255),b
 11902  010B1A  0E08               	movlw	high _my_FrameReceived
 11903  010B1C  6FDB               	movwf	(??_sendJsonDO+1)& (0+255),b
 11904  010B1E  0100               	movlb	0	; () banked
 11905  010B20  0100               	movlb	0	; () banked
 11906  010B22  51C2               	movf	?___wmul& (0+255),w,b
 11907  010B24  0100               	movlb	0	; () banked
 11908  010B26  27DA               	addwf	??_sendJsonDO& (0+255),f,b
 11909  010B28  0100               	movlb	0	; () banked
 11910  010B2A  0100               	movlb	0	; () banked
 11911  010B2C  51C3               	movf	(?___wmul+1)& (0+255),w,b
 11912  010B2E  0100               	movlb	0	; () banked
 11913  010B30  23DB               	addwfc	(??_sendJsonDO+1)& (0+255),f,b
 11914  010B32  C0DA  F0CE         	movff	??_sendJsonDO,?_sprintf+6
 11915  010B36  C0DB  F0CF         	movff	??_sendJsonDO+1,?_sprintf+7
 11916  010B3A  ECAE  F0A1         	call	_sprintf	;wreg free
 11917                           
 11918                           ;GSM.c: 219: for(int erase =0;erase<=4;erase++)
 11919  010B3E  0E00               	movlw	0
 11920  010B40  0101               	movlb	1	; () banked
 11921  010B42  0101               	movlb	1	; () banked
 11922  010B44  6FD9               	movwf	(sendJsonDO@erase_1454+1)& (0+255),b
 11923  010B46  0E00               	movlw	0
 11924  010B48  0101               	movlb	1	; () banked
 11925  010B4A  6FD8               	movwf	sendJsonDO@erase_1454& (0+255),b
 11926  010B4C                     
 11927                           ; BSR set to: 1
 11928  010B4C  0101               	movlb	1	; () banked
 11929  010B4E  0101               	movlb	1	; () banked
 11930  010B50  51D9               	movf	(sendJsonDO@erase_1454+1)& (0+255),w,b
 11931  010B52  0A80               	xorlw	128
 11932  010B54  0F80               	addlw	-128
 11933  010B56  0E05               	movlw	5
 11934  010B58  B4D8               	btfsc	status,2,c
 11935  010B5A  5DD8               	subwf	sendJsonDO@erase_1454& (0+255),w,b
 11936  010B5C  B0D8               	btfsc	status,0,c
 11937  010B5E  D02F               	goto	l8040
 11938                           
 11939                           ; BSR set to: 1
 11940                           ;GSM.c: 220: {
 11941                           ;GSM.c: 221: my_FrameReceived[boardPH].receivedFramePH[erase] = '\0';
 11942                           
 11943                           ; BSR set to: 1
 11944                           
 11945                           ; BSR set to: 1
 11946  010B60  C1E0  F0C2         	movff	sendJsonDO@boardPH,___wmul@multiplier
 11947  010B64  C1E1  F0C3         	movff	sendJsonDO@boardPH+1,___wmul@multiplier+1
 11948  010B68  0E00               	movlw	0
 11949  010B6A  0100               	movlb	0	; () banked
 11950  010B6C  0100               	movlb	0	; () banked
 11951  010B6E  6FC5               	movwf	(___wmul@multiplicand+1)& (0+255),b
 11952  010B70  0E1C               	movlw	28
 11953  010B72  0100               	movlb	0	; () banked
 11954  010B74  6FC4               	movwf	___wmul@multiplicand& (0+255),b
 11955  010B76  ECE9  F0A6         	call	___wmul	;wreg free
 11956  010B7A  0E5C               	movlw	low _my_FrameReceived
 11957  010B7C  0100               	movlb	0	; () banked
 11958  010B7E  6FDA               	movwf	??_sendJsonDO& (0+255),b
 11959  010B80  0E08               	movlw	high _my_FrameReceived
 11960  010B82  6FDB               	movwf	(??_sendJsonDO+1)& (0+255),b
 11961  010B84  0100               	movlb	0	; () banked
 11962  010B86  0100               	movlb	0	; () banked
 11963  010B88  51C2               	movf	?___wmul& (0+255),w,b
 11964  010B8A  0100               	movlb	0	; () banked
 11965  010B8C  27DA               	addwf	??_sendJsonDO& (0+255),f,b
 11966  010B8E  0100               	movlb	0	; () banked
 11967  010B90  0100               	movlb	0	; () banked
 11968  010B92  51C3               	movf	(?___wmul+1)& (0+255),w,b
 11969  010B94  0100               	movlb	0	; () banked
 11970  010B96  23DB               	addwfc	(??_sendJsonDO+1)& (0+255),f,b
 11971  010B98  0101               	movlb	1	; () banked
 11972  010B9A  0101               	movlb	1	; () banked
 11973  010B9C  51D8               	movf	sendJsonDO@erase_1454& (0+255),w,b
 11974  010B9E  0100               	movlb	0	; () banked
 11975  010BA0  25DA               	addwf	??_sendJsonDO& (0+255),w,b
 11976  010BA2  6ED9               	movwf	fsr2l,c
 11977  010BA4  0101               	movlb	1	; () banked
 11978  010BA6  0101               	movlb	1	; () banked
 11979  010BA8  51D9               	movf	(sendJsonDO@erase_1454+1)& (0+255),w,b
 11980  010BAA  0100               	movlb	0	; () banked
 11981  010BAC  21DB               	addwfc	(??_sendJsonDO+1)& (0+255),w,b
 11982  010BAE  6EDA               	movwf	fsr2h,c
 11983  010BB0  0E00               	movlw	0
 11984  010BB2  6EDF               	movwf	indf2,c
 11985                           
 11986                           ; BSR set to: 0
 11987  010BB4  0101               	movlb	1	; () banked
 11988  010BB6  0101               	movlb	1	; () banked
 11989  010BB8  4BD8               	infsnz	sendJsonDO@erase_1454& (0+255),f,b
 11990  010BBA  2BD9               	incf	(sendJsonDO@erase_1454+1)& (0+255),f,b
 11991  010BBC  D7C7               	goto	L15
 11992  010BBE                     l8040:
 11993                           
 11994                           ; BSR set to: 1
 11995                           ;GSM.c: 222: }
 11996                           ;GSM.c: 223: boardPH++;
 11997  010BBE  0101               	movlb	1	; () banked
 11998  010BC0  0101               	movlb	1	; () banked
 11999  010BC2  4BE0               	infsnz	sendJsonDO@boardPH& (0+255),f,b
 12000  010BC4  2BE1               	incf	(sendJsonDO@boardPH+1)& (0+255),f,b
 12001                           
 12002                           ; BSR set to: 1
 12003                           ;GSM.c: 224: sprintf(dataToSend,"%s%s",dataToSend,"\"},");
 12004  010BC6  0E02               	movlw	high _dataToSend
 12005  010BC8  0100               	movlb	0	; () banked
 12006  010BCA  0100               	movlb	0	; () banked
 12007  010BCC  6FC9               	movwf	(sprintf@sp+1)& (0+255),b
 12008  010BCE  0E80               	movlw	low _dataToSend
 12009  010BD0  0100               	movlb	0	; () banked
 12010  010BD2  0100               	movlb	0	; () banked
 12011  010BD4  6FC8               	movwf	sprintf@sp& (0+255),b
 12012  010BD6  0EFF               	movlw	high STR_9
 12013  010BD8  0100               	movlb	0	; () banked
 12014  010BDA  0100               	movlb	0	; () banked
 12015  010BDC  6FCB               	movwf	(sprintf@f+1)& (0+255),b
 12016  010BDE  0EE6               	movlw	low STR_9
 12017  010BE0  0100               	movlb	0	; () banked
 12018  010BE2  0100               	movlb	0	; () banked
 12019  010BE4  6FCA               	movwf	sprintf@f& (0+255),b
 12020  010BE6  0E02               	movlw	high _dataToSend
 12021  010BE8  0100               	movlb	0	; () banked
 12022  010BEA  0100               	movlb	0	; () banked
 12023  010BEC  6FCD               	movwf	(?_sprintf+5)& (0+255),b
 12024  010BEE  0E80               	movlw	low _dataToSend
 12025  010BF0  0100               	movlb	0	; () banked
 12026  010BF2  0100               	movlb	0	; () banked
 12027  010BF4  6FCC               	movwf	(?_sprintf+4)& (0+255),b
 12028  010BF6  0EFF               	movlw	high STR_45
 12029  010BF8  0100               	movlb	0	; () banked
 12030  010BFA  0100               	movlb	0	; () banked
 12031  010BFC  6FCF               	movwf	(?_sprintf+7)& (0+255),b
 12032  010BFE  0EF5               	movlw	low STR_45
 12033  010C00  0100               	movlb	0	; () banked
 12034  010C02  0100               	movlb	0	; () banked
 12035  010C04  6FCE               	movwf	(?_sprintf+6)& (0+255),b
 12036  010C06  ECAE  F0A1         	call	_sprintf	;wreg free
 12037  010C0A  0101               	movlb	1	; () banked
 12038  010C0C  0101               	movlb	1	; () banked
 12039  010C0E  4BD0               	infsnz	sendJsonDO@l_1439& (0+255),f,b
 12040  010C10  2BD1               	incf	(sendJsonDO@l_1439+1)& (0+255),f,b
 12041  010C12                     l8046:
 12042                           
 12043                           ; BSR set to: 1
 12044  010C12  0EFF               	movlw	255
 12045  010C14  0100               	movlb	0	; () banked
 12046  010C16  6FDA               	movwf	??_sendJsonDO& (0+255),b
 12047  010C18  0EFF               	movlw	255
 12048  010C1A  6FDB               	movwf	(??_sendJsonDO+1)& (0+255),b
 12049  010C1C  0100               	movlb	0	; () banked
 12050  010C1E  C088  F0DC         	movff	_nbFramePH,??_sendJsonDO+2
 12051  010C22  0100               	movlb	0	; () banked
 12052  010C24  C089  F0DD         	movff	_nbFramePH+1,??_sendJsonDO+3
 12053  010C28  0100               	movlb	0	; () banked
 12054  010C2A  51DA               	movf	??_sendJsonDO& (0+255),w,b
 12055  010C2C  0100               	movlb	0	; () banked
 12056  010C2E  27DC               	addwf	(??_sendJsonDO+2)& (0+255),f,b
 12057  010C30  0100               	movlb	0	; () banked
 12058  010C32  51DB               	movf	(??_sendJsonDO+1)& (0+255),w,b
 12059  010C34  0100               	movlb	0	; () banked
 12060  010C36  23DD               	addwfc	(??_sendJsonDO+3)& (0+255),f,b
 12061  010C38  0100               	movlb	0	; () banked
 12062  010C3A  51DD               	movf	(??_sendJsonDO+3)& (0+255),w,b
 12063  010C3C  0A80               	xorlw	128
 12064  010C3E  0100               	movlb	0	; () banked
 12065  010C40  6FDE               	movwf	(??_sendJsonDO+4)& (0+255),b
 12066  010C42  0101               	movlb	1	; () banked
 12067  010C44  0101               	movlb	1	; () banked
 12068  010C46  51D0               	movf	sendJsonDO@l_1439& (0+255),w,b
 12069  010C48  0100               	movlb	0	; () banked
 12070  010C4A  5DDC               	subwf	(??_sendJsonDO+2)& (0+255),w,b
 12071  010C4C  0101               	movlb	1	; () banked
 12072  010C4E  0101               	movlb	1	; () banked
 12073  010C50  51D1               	movf	(sendJsonDO@l_1439+1)& (0+255),w,b
 12074  010C52  0A80               	xorlw	128
 12075  010C54  0100               	movlb	0	; () banked
 12076  010C56  59DE               	subwfb	(??_sendJsonDO+4)& (0+255),w,b
 12077  010C58  B0D8               	btfsc	status,0,c
 12078  010C5A  D625               	goto	l8016
 12079  010C5C                     l8048:
 12080                           
 12081                           ; BSR set to: 0
 12082                           ;GSM.c: 225: }
 12083                           ;GSM.c: 226: }
 12084                           ;GSM.c: 228: if(nbFrameEC!=0||nbFrameTDS!=0)
 12085  010C5C  0100               	movlb	0	; () banked
 12086  010C5E  0100               	movlb	0	; () banked
 12087  010C60  5187               	movf	(_nbFrameEC+1)& (0+255),w,b
 12088  010C62  1186               	iorwf	_nbFrameEC& (0+255),w,b
 12089  010C64  A4D8               	btfss	status,2,c
 12090  010C66  D007               	goto	l8052
 12091                           
 12092                           ; BSR set to: 0
 12093  010C68  0100               	movlb	0	; () banked
 12094  010C6A  0100               	movlb	0	; () banked
 12095  010C6C  518B               	movf	(_nbFrameTDS+1)& (0+255),w,b
 12096  010C6E  118A               	iorwf	_nbFrameTDS& (0+255),w,b
 12097  010C70  B4D8               	btfsc	status,2,c
 12098  010C72  EFB1  F08A         	goto	l8134
 12099  010C76                     l8052:
 12100                           
 12101                           ; BSR set to: 0
 12102                           ;GSM.c: 229: {
 12103                           ;GSM.c: 230: if(nbFrameDO!=0||nbFramePH!=0)
 12104  010C76  0100               	movlb	0	; () banked
 12105  010C78  0100               	movlb	0	; () banked
 12106  010C7A  5185               	movf	(_nbFrameDO+1)& (0+255),w,b
 12107  010C7C  1184               	iorwf	_nbFrameDO& (0+255),w,b
 12108  010C7E  A4D8               	btfss	status,2,c
 12109  010C80  D006               	goto	l8056
 12110                           
 12111                           ; BSR set to: 0
 12112  010C82  0100               	movlb	0	; () banked
 12113  010C84  0100               	movlb	0	; () banked
 12114  010C86  5189               	movf	(_nbFramePH+1)& (0+255),w,b
 12115  010C88  1188               	iorwf	_nbFramePH& (0+255),w,b
 12116  010C8A  B4D8               	btfsc	status,2,c
 12117  010C8C  D01A               	goto	l651
 12118  010C8E                     l8056:
 12119                           
 12120                           ; BSR set to: 0
 12121                           ;GSM.c: 231: {
 12122                           ;GSM.c: 232: sprintf(dataToSend,"%s]},",dataToSend);
 12123  010C8E  0E02               	movlw	high _dataToSend
 12124  010C90  0100               	movlb	0	; () banked
 12125  010C92  0100               	movlb	0	; () banked
 12126  010C94  6FC9               	movwf	(sprintf@sp+1)& (0+255),b
 12127  010C96  0E80               	movlw	low _dataToSend
 12128  010C98  0100               	movlb	0	; () banked
 12129  010C9A  0100               	movlb	0	; () banked
 12130  010C9C  6FC8               	movwf	sprintf@sp& (0+255),b
 12131  010C9E  0EFF               	movlw	high STR_46
 12132  010CA0  0100               	movlb	0	; () banked
 12133  010CA2  0100               	movlb	0	; () banked
 12134  010CA4  6FCB               	movwf	(sprintf@f+1)& (0+255),b
 12135  010CA6  0EDA               	movlw	low STR_46
 12136  010CA8  0100               	movlb	0	; () banked
 12137  010CAA  0100               	movlb	0	; () banked
 12138  010CAC  6FCA               	movwf	sprintf@f& (0+255),b
 12139  010CAE  0E02               	movlw	high _dataToSend
 12140  010CB0  0100               	movlb	0	; () banked
 12141  010CB2  0100               	movlb	0	; () banked
 12142  010CB4  6FCD               	movwf	(?_sprintf+5)& (0+255),b
 12143  010CB6  0E80               	movlw	low _dataToSend
 12144  010CB8  0100               	movlb	0	; () banked
 12145  010CBA  0100               	movlb	0	; () banked
 12146  010CBC  6FCC               	movwf	(?_sprintf+4)& (0+255),b
 12147  010CBE  ECAE  F0A1         	call	_sprintf	;wreg free
 12148  010CC2                     l651:
 12149                           
 12150                           ;GSM.c: 233: }
 12151                           ;GSM.c: 234: sprintf(dataToSend,"%s%s",dataToSend,"{\"sensorunit\":\"");
 12152  010CC2  0E02               	movlw	high _dataToSend
 12153  010CC4  0100               	movlb	0	; () banked
 12154  010CC6  0100               	movlb	0	; () banked
 12155  010CC8  6FC9               	movwf	(sprintf@sp+1)& (0+255),b
 12156  010CCA  0E80               	movlw	low _dataToSend
 12157  010CCC  0100               	movlb	0	; () banked
 12158  010CCE  0100               	movlb	0	; () banked
 12159  010CD0  6FC8               	movwf	sprintf@sp& (0+255),b
 12160  010CD2  0EFF               	movlw	high STR_9
 12161  010CD4  0100               	movlb	0	; () banked
 12162  010CD6  0100               	movlb	0	; () banked
 12163  010CD8  6FCB               	movwf	(sprintf@f+1)& (0+255),b
 12164  010CDA  0EE6               	movlw	low STR_9
 12165  010CDC  0100               	movlb	0	; () banked
 12166  010CDE  0100               	movlb	0	; () banked
 12167  010CE0  6FCA               	movwf	sprintf@f& (0+255),b
 12168  010CE2  0E02               	movlw	high _dataToSend
 12169  010CE4  0100               	movlb	0	; () banked
 12170  010CE6  0100               	movlb	0	; () banked
 12171  010CE8  6FCD               	movwf	(?_sprintf+5)& (0+255),b
 12172  010CEA  0E80               	movlw	low _dataToSend
 12173  010CEC  0100               	movlb	0	; () banked
 12174  010CEE  0100               	movlb	0	; () banked
 12175  010CF0  6FCC               	movwf	(?_sprintf+4)& (0+255),b
 12176  010CF2  0EFE               	movlw	high STR_25
 12177  010CF4  0100               	movlb	0	; () banked
 12178  010CF6  0100               	movlb	0	; () banked
 12179  010CF8  6FCF               	movwf	(?_sprintf+7)& (0+255),b
 12180  010CFA  0EBA               	movlw	low STR_25
 12181  010CFC  0100               	movlb	0	; () banked
 12182  010CFE  0100               	movlb	0	; () banked
 12183  010D00  6FCE               	movwf	(?_sprintf+6)& (0+255),b
 12184  010D02  ECAE  F0A1         	call	_sprintf	;wreg free
 12185                           
 12186                           ;GSM.c: 235: sprintf(dataToSend,"%s%s",dataToSend,"su0004");
 12187  010D06  0E02               	movlw	high _dataToSend
 12188  010D08  0100               	movlb	0	; () banked
 12189  010D0A  0100               	movlb	0	; () banked
 12190  010D0C  6FC9               	movwf	(sprintf@sp+1)& (0+255),b
 12191  010D0E  0E80               	movlw	low _dataToSend
 12192  010D10  0100               	movlb	0	; () banked
 12193  010D12  0100               	movlb	0	; () banked
 12194  010D14  6FC8               	movwf	sprintf@sp& (0+255),b
 12195  010D16  0EFF               	movlw	high STR_9
 12196  010D18  0100               	movlb	0	; () banked
 12197  010D1A  0100               	movlb	0	; () banked
 12198  010D1C  6FCB               	movwf	(sprintf@f+1)& (0+255),b
 12199  010D1E  0EE6               	movlw	low STR_9
 12200  010D20  0100               	movlb	0	; () banked
 12201  010D22  0100               	movlb	0	; () banked
 12202  010D24  6FCA               	movwf	sprintf@f& (0+255),b
 12203  010D26  0E02               	movlw	high _dataToSend
 12204  010D28  0100               	movlb	0	; () banked
 12205  010D2A  0100               	movlb	0	; () banked
 12206  010D2C  6FCD               	movwf	(?_sprintf+5)& (0+255),b
 12207  010D2E  0E80               	movlw	low _dataToSend
 12208  010D30  0100               	movlb	0	; () banked
 12209  010D32  0100               	movlb	0	; () banked
 12210  010D34  6FCC               	movwf	(?_sprintf+4)& (0+255),b
 12211  010D36  0EFF               	movlw	high STR_73
 12212  010D38  0100               	movlb	0	; () banked
 12213  010D3A  0100               	movlb	0	; () banked
 12214  010D3C  6FCF               	movwf	(?_sprintf+7)& (0+255),b
 12215  010D3E  0ED3               	movlw	low STR_73
 12216  010D40  0100               	movlb	0	; () banked
 12217  010D42  0100               	movlb	0	; () banked
 12218  010D44  6FCE               	movwf	(?_sprintf+6)& (0+255),b
 12219  010D46  ECAE  F0A1         	call	_sprintf	;wreg free
 12220                           
 12221                           ;GSM.c: 236: sprintf(dataToSend,"%s%s",dataToSend,"\",\"data\":[");
 12222  010D4A  0E02               	movlw	high _dataToSend
 12223  010D4C  0100               	movlb	0	; () banked
 12224  010D4E  0100               	movlb	0	; () banked
 12225  010D50  6FC9               	movwf	(sprintf@sp+1)& (0+255),b
 12226  010D52  0E80               	movlw	low _dataToSend
 12227  010D54  0100               	movlb	0	; () banked
 12228  010D56  0100               	movlb	0	; () banked
 12229  010D58  6FC8               	movwf	sprintf@sp& (0+255),b
 12230  010D5A  0EFF               	movlw	high STR_9
 12231  010D5C  0100               	movlb	0	; () banked
 12232  010D5E  0100               	movlb	0	; () banked
 12233  010D60  6FCB               	movwf	(sprintf@f+1)& (0+255),b
 12234  010D62  0EE6               	movlw	low STR_9
 12235  010D64  0100               	movlb	0	; () banked
 12236  010D66  0100               	movlb	0	; () banked
 12237  010D68  6FCA               	movwf	sprintf@f& (0+255),b
 12238  010D6A  0E02               	movlw	high _dataToSend
 12239  010D6C  0100               	movlb	0	; () banked
 12240  010D6E  0100               	movlb	0	; () banked
 12241  010D70  6FCD               	movwf	(?_sprintf+5)& (0+255),b
 12242  010D72  0E80               	movlw	low _dataToSend
 12243  010D74  0100               	movlb	0	; () banked
 12244  010D76  0100               	movlb	0	; () banked
 12245  010D78  6FCC               	movwf	(?_sprintf+4)& (0+255),b
 12246  010D7A  0EFF               	movlw	high STR_29
 12247  010D7C  0100               	movlb	0	; () banked
 12248  010D7E  0100               	movlb	0	; () banked
 12249  010D80  6FCF               	movwf	(?_sprintf+7)& (0+255),b
 12250  010D82  0E6A               	movlw	low STR_29
 12251  010D84  0100               	movlb	0	; () banked
 12252  010D86  0100               	movlb	0	; () banked
 12253  010D88  6FCE               	movwf	(?_sprintf+6)& (0+255),b
 12254  010D8A  ECAE  F0A1         	call	_sprintf	;wreg free
 12255                           
 12256                           ;GSM.c: 237: for(int l = 0;l <= nbFrameEC -1; l++)
 12257  010D8E  0E00               	movlw	0
 12258  010D90  0101               	movlb	1	; () banked
 12259  010D92  0101               	movlb	1	; () banked
 12260  010D94  6FD3               	movwf	(sendJsonDO@l_1464+1)& (0+255),b
 12261  010D96  0E00               	movlw	0
 12262  010D98  0101               	movlb	1	; () banked
 12263  010D9A  6FD2               	movwf	sendJsonDO@l_1464& (0+255),b
 12264  010D9C  D1C9               	goto	l8098
 12265  010D9E                     l8060:
 12266                           
 12267                           ;GSM.c: 238: {
 12268                           ;GSM.c: 239: send_cr();
 12269  010D9E  ECF7  F0A7         	call	_send_cr	;wreg free
 12270                           
 12271                           ;GSM.c: 240: sprintf(dataToSend,"%s%s",dataToSend,"{\"id\":\"");
 12272  010DA2  0E02               	movlw	high _dataToSend
 12273  010DA4  0100               	movlb	0	; () banked
 12274  010DA6  0100               	movlb	0	; () banked
 12275  010DA8  6FC9               	movwf	(sprintf@sp+1)& (0+255),b
 12276  010DAA  0E80               	movlw	low _dataToSend
 12277  010DAC  0100               	movlb	0	; () banked
 12278  010DAE  0100               	movlb	0	; () banked
 12279  010DB0  6FC8               	movwf	sprintf@sp& (0+255),b
 12280  010DB2  0EFF               	movlw	high STR_9
 12281  010DB4  0100               	movlb	0	; () banked
 12282  010DB6  0100               	movlb	0	; () banked
 12283  010DB8  6FCB               	movwf	(sprintf@f+1)& (0+255),b
 12284  010DBA  0EE6               	movlw	low STR_9
 12285  010DBC  0100               	movlb	0	; () banked
 12286  010DBE  0100               	movlb	0	; () banked
 12287  010DC0  6FCA               	movwf	sprintf@f& (0+255),b
 12288  010DC2  0E02               	movlw	high _dataToSend
 12289  010DC4  0100               	movlb	0	; () banked
 12290  010DC6  0100               	movlb	0	; () banked
 12291  010DC8  6FCD               	movwf	(?_sprintf+5)& (0+255),b
 12292  010DCA  0E80               	movlw	low _dataToSend
 12293  010DCC  0100               	movlb	0	; () banked
 12294  010DCE  0100               	movlb	0	; () banked
 12295  010DD0  6FCC               	movwf	(?_sprintf+4)& (0+255),b
 12296  010DD2  0EFF               	movlw	high STR_31
 12297  010DD4  0100               	movlb	0	; () banked
 12298  010DD6  0100               	movlb	0	; () banked
 12299  010DD8  6FCF               	movwf	(?_sprintf+7)& (0+255),b
 12300  010DDA  0EAF               	movlw	low STR_31
 12301  010DDC  0100               	movlb	0	; () banked
 12302  010DDE  0100               	movlb	0	; () banked
 12303  010DE0  6FCE               	movwf	(?_sprintf+6)& (0+255),b
 12304  010DE2  ECAE  F0A1         	call	_sprintf	;wreg free
 12305                           
 12306                           ;GSM.c: 241: sprintf(dataToSend,"%s%s",dataToSend,"su0004_01");
 12307  010DE6  0E02               	movlw	high _dataToSend
 12308  010DE8  0100               	movlb	0	; () banked
 12309  010DEA  0100               	movlb	0	; () banked
 12310  010DEC  6FC9               	movwf	(sprintf@sp+1)& (0+255),b
 12311  010DEE  0E80               	movlw	low _dataToSend
 12312  010DF0  0100               	movlb	0	; () banked
 12313  010DF2  0100               	movlb	0	; () banked
 12314  010DF4  6FC8               	movwf	sprintf@sp& (0+255),b
 12315  010DF6  0EFF               	movlw	high STR_9
 12316  010DF8  0100               	movlb	0	; () banked
 12317  010DFA  0100               	movlb	0	; () banked
 12318  010DFC  6FCB               	movwf	(sprintf@f+1)& (0+255),b
 12319  010DFE  0EE6               	movlw	low STR_9
 12320  010E00  0100               	movlb	0	; () banked
 12321  010E02  0100               	movlb	0	; () banked
 12322  010E04  6FCA               	movwf	sprintf@f& (0+255),b
 12323  010E06  0E02               	movlw	high _dataToSend
 12324  010E08  0100               	movlb	0	; () banked
 12325  010E0A  0100               	movlb	0	; () banked
 12326  010E0C  6FCD               	movwf	(?_sprintf+5)& (0+255),b
 12327  010E0E  0E80               	movlw	low _dataToSend
 12328  010E10  0100               	movlb	0	; () banked
 12329  010E12  0100               	movlb	0	; () banked
 12330  010E14  6FCC               	movwf	(?_sprintf+4)& (0+255),b
 12331  010E16  0EFF               	movlw	high STR_79
 12332  010E18  0100               	movlb	0	; () banked
 12333  010E1A  0100               	movlb	0	; () banked
 12334  010E1C  6FCF               	movwf	(?_sprintf+7)& (0+255),b
 12335  010E1E  0E89               	movlw	low STR_79
 12336  010E20  0100               	movlb	0	; () banked
 12337  010E22  0100               	movlb	0	; () banked
 12338  010E24  6FCE               	movwf	(?_sprintf+6)& (0+255),b
 12339  010E26  ECAE  F0A1         	call	_sprintf	;wreg free
 12340                           
 12341                           ;GSM.c: 242: sprintf(dataToSend,"%s%s",dataToSend,"\",\"datetime\":\"");
 12342  010E2A  0E02               	movlw	high _dataToSend
 12343  010E2C  0100               	movlb	0	; () banked
 12344  010E2E  0100               	movlb	0	; () banked
 12345  010E30  6FC9               	movwf	(sprintf@sp+1)& (0+255),b
 12346  010E32  0E80               	movlw	low _dataToSend
 12347  010E34  0100               	movlb	0	; () banked
 12348  010E36  0100               	movlb	0	; () banked
 12349  010E38  6FC8               	movwf	sprintf@sp& (0+255),b
 12350  010E3A  0EFF               	movlw	high STR_9
 12351  010E3C  0100               	movlb	0	; () banked
 12352  010E3E  0100               	movlb	0	; () banked
 12353  010E40  6FCB               	movwf	(sprintf@f+1)& (0+255),b
 12354  010E42  0EE6               	movlw	low STR_9
 12355  010E44  0100               	movlb	0	; () banked
 12356  010E46  0100               	movlb	0	; () banked
 12357  010E48  6FCA               	movwf	sprintf@f& (0+255),b
 12358  010E4A  0E02               	movlw	high _dataToSend
 12359  010E4C  0100               	movlb	0	; () banked
 12360  010E4E  0100               	movlb	0	; () banked
 12361  010E50  6FCD               	movwf	(?_sprintf+5)& (0+255),b
 12362  010E52  0E80               	movlw	low _dataToSend
 12363  010E54  0100               	movlb	0	; () banked
 12364  010E56  0100               	movlb	0	; () banked
 12365  010E58  6FCC               	movwf	(?_sprintf+4)& (0+255),b
 12366  010E5A  0EFE               	movlw	high STR_35
 12367  010E5C  0100               	movlb	0	; () banked
 12368  010E5E  0100               	movlb	0	; () banked
 12369  010E60  6FCF               	movwf	(?_sprintf+7)& (0+255),b
 12370  010E62  0EEA               	movlw	low STR_35
 12371  010E64  0100               	movlb	0	; () banked
 12372  010E66  0100               	movlb	0	; () banked
 12373  010E68  6FCE               	movwf	(?_sprintf+6)& (0+255),b
 12374  010E6A  ECAE  F0A1         	call	_sprintf	;wreg free
 12375                           
 12376                           ;GSM.c: 243: sprintf(dataToSend,"%s%s",dataToSend,timetoPost2);
 12377  010E6E  0E02               	movlw	high _dataToSend
 12378  010E70  0100               	movlb	0	; () banked
 12379  010E72  0100               	movlb	0	; () banked
 12380  010E74  6FC9               	movwf	(sprintf@sp+1)& (0+255),b
 12381  010E76  0E80               	movlw	low _dataToSend
 12382  010E78  0100               	movlb	0	; () banked
 12383  010E7A  0100               	movlb	0	; () banked
 12384  010E7C  6FC8               	movwf	sprintf@sp& (0+255),b
 12385  010E7E  0EFF               	movlw	high STR_9
 12386  010E80  0100               	movlb	0	; () banked
 12387  010E82  0100               	movlb	0	; () banked
 12388  010E84  6FCB               	movwf	(sprintf@f+1)& (0+255),b
 12389  010E86  0EE6               	movlw	low STR_9
 12390  010E88  0100               	movlb	0	; () banked
 12391  010E8A  0100               	movlb	0	; () banked
 12392  010E8C  6FCA               	movwf	sprintf@f& (0+255),b
 12393  010E8E  0E02               	movlw	high _dataToSend
 12394  010E90  0100               	movlb	0	; () banked
 12395  010E92  0100               	movlb	0	; () banked
 12396  010E94  6FCD               	movwf	(?_sprintf+5)& (0+255),b
 12397  010E96  0E80               	movlw	low _dataToSend
 12398  010E98  0100               	movlb	0	; () banked
 12399  010E9A  0100               	movlb	0	; () banked
 12400  010E9C  6FCC               	movwf	(?_sprintf+4)& (0+255),b
 12401  010E9E  0100               	movlb	0	; () banked
 12402  010EA0  0E00               	movlw	high _timetoPost2
 12403  010EA2  0100               	movlb	0	; () banked
 12404  010EA4  0100               	movlb	0	; () banked
 12405  010EA6  6FCF               	movwf	(?_sprintf+7)& (0+255),b
 12406  010EA8  0100               	movlb	0	; () banked
 12407  010EAA  0EB6               	movlw	low _timetoPost2
 12408  010EAC  0100               	movlb	0	; () banked
 12409  010EAE  0100               	movlb	0	; () banked
 12410  010EB0  6FCE               	movwf	(?_sprintf+6)& (0+255),b
 12411  010EB2  ECAE  F0A1         	call	_sprintf	;wreg free
 12412                           
 12413                           ;GSM.c: 247: my_FrameReceived[boardEC].receivedDataTimeEC = 0;
 12414  010EB6  C1E2  F0C2         	movff	sendJsonDO@boardEC,___wmul@multiplier
 12415  010EBA  C1E3  F0C3         	movff	sendJsonDO@boardEC+1,___wmul@multiplier+1
 12416  010EBE  0E00               	movlw	0
 12417  010EC0  0100               	movlb	0	; () banked
 12418  010EC2  0100               	movlb	0	; () banked
 12419  010EC4  6FC5               	movwf	(___wmul@multiplicand+1)& (0+255),b
 12420  010EC6  0E1C               	movlw	28
 12421  010EC8  0100               	movlb	0	; () banked
 12422  010ECA  6FC4               	movwf	___wmul@multiplicand& (0+255),b
 12423  010ECC  ECE9  F0A6         	call	___wmul	;wreg free
 12424  010ED0  0E13               	movlw	19
 12425  010ED2  0100               	movlb	0	; () banked
 12426  010ED4  0100               	movlb	0	; () banked
 12427  010ED6  27C2               	addwf	?___wmul& (0+255),f,b
 12428  010ED8  0E00               	movlw	0
 12429  010EDA  0100               	movlb	0	; () banked
 12430  010EDC  23C3               	addwfc	(?___wmul+1)& (0+255),f,b
 12431  010EDE  0E5C               	movlw	low _my_FrameReceived
 12432  010EE0  0100               	movlb	0	; () banked
 12433  010EE2  0100               	movlb	0	; () banked
 12434  010EE4  25C2               	addwf	?___wmul& (0+255),w,b
 12435  010EE6  6ED9               	movwf	fsr2l,c
 12436  010EE8  0E08               	movlw	high _my_FrameReceived
 12437  010EEA  0100               	movlb	0	; () banked
 12438  010EEC  0100               	movlb	0	; () banked
 12439  010EEE  21C3               	addwfc	(?___wmul+1)& (0+255),w,b
 12440  010EF0  6EDA               	movwf	fsr2h,c
 12441  010EF2  0E00               	movlw	0
 12442  010EF4  6EDE               	movwf	postinc2,c
 12443  010EF6  0E00               	movlw	0
 12444  010EF8  6EDD               	movwf	postdec2,c
 12445                           
 12446                           ; BSR set to: 0
 12447                           ;GSM.c: 248: sprintf(dataToSend,"%s%s",dataToSend,"\",\"valuetype\":\"");
 12448  010EFA  0E02               	movlw	high _dataToSend
 12449  010EFC  0100               	movlb	0	; () banked
 12450  010EFE  0100               	movlb	0	; () banked
 12451  010F00  6FC9               	movwf	(sprintf@sp+1)& (0+255),b
 12452  010F02  0E80               	movlw	low _dataToSend
 12453  010F04  0100               	movlb	0	; () banked
 12454  010F06  0100               	movlb	0	; () banked
 12455  010F08  6FC8               	movwf	sprintf@sp& (0+255),b
 12456  010F0A  0EFF               	movlw	high STR_9
 12457  010F0C  0100               	movlb	0	; () banked
 12458  010F0E  0100               	movlb	0	; () banked
 12459  010F10  6FCB               	movwf	(sprintf@f+1)& (0+255),b
 12460  010F12  0EE6               	movlw	low STR_9
 12461  010F14  0100               	movlb	0	; () banked
 12462  010F16  0100               	movlb	0	; () banked
 12463  010F18  6FCA               	movwf	sprintf@f& (0+255),b
 12464  010F1A  0E02               	movlw	high _dataToSend
 12465  010F1C  0100               	movlb	0	; () banked
 12466  010F1E  0100               	movlb	0	; () banked
 12467  010F20  6FCD               	movwf	(?_sprintf+5)& (0+255),b
 12468  010F22  0E80               	movlw	low _dataToSend
 12469  010F24  0100               	movlb	0	; () banked
 12470  010F26  0100               	movlb	0	; () banked
 12471  010F28  6FCC               	movwf	(?_sprintf+4)& (0+255),b
 12472  010F2A  0EFE               	movlw	high STR_38
 12473  010F2C  0100               	movlb	0	; () banked
 12474  010F2E  0100               	movlb	0	; () banked
 12475  010F30  6FCF               	movwf	(?_sprintf+7)& (0+255),b
 12476  010F32  0E9A               	movlw	low STR_38
 12477  010F34  0100               	movlb	0	; () banked
 12478  010F36  0100               	movlb	0	; () banked
 12479  010F38  6FCE               	movwf	(?_sprintf+6)& (0+255),b
 12480  010F3A  ECAE  F0A1         	call	_sprintf	;wreg free
 12481                           
 12482                           ;GSM.c: 249: sprintf(dataToSend,"%s%s",dataToSend,"asis");
 12483  010F3E  0E02               	movlw	high _dataToSend
 12484  010F40  0100               	movlb	0	; () banked
 12485  010F42  0100               	movlb	0	; () banked
 12486  010F44  6FC9               	movwf	(sprintf@sp+1)& (0+255),b
 12487  010F46  0E80               	movlw	low _dataToSend
 12488  010F48  0100               	movlb	0	; () banked
 12489  010F4A  0100               	movlb	0	; () banked
 12490  010F4C  6FC8               	movwf	sprintf@sp& (0+255),b
 12491  010F4E  0EFF               	movlw	high STR_9
 12492  010F50  0100               	movlb	0	; () banked
 12493  010F52  0100               	movlb	0	; () banked
 12494  010F54  6FCB               	movwf	(sprintf@f+1)& (0+255),b
 12495  010F56  0EE6               	movlw	low STR_9
 12496  010F58  0100               	movlb	0	; () banked
 12497  010F5A  0100               	movlb	0	; () banked
 12498  010F5C  6FCA               	movwf	sprintf@f& (0+255),b
 12499  010F5E  0E02               	movlw	high _dataToSend
 12500  010F60  0100               	movlb	0	; () banked
 12501  010F62  0100               	movlb	0	; () banked
 12502  010F64  6FCD               	movwf	(?_sprintf+5)& (0+255),b
 12503  010F66  0E80               	movlw	low _dataToSend
 12504  010F68  0100               	movlb	0	; () banked
 12505  010F6A  0100               	movlb	0	; () banked
 12506  010F6C  6FCC               	movwf	(?_sprintf+4)& (0+255),b
 12507  010F6E  0EFF               	movlw	high STR_40
 12508  010F70  0100               	movlb	0	; () banked
 12509  010F72  0100               	movlb	0	; () banked
 12510  010F74  6FCF               	movwf	(?_sprintf+7)& (0+255),b
 12511  010F76  0EEB               	movlw	low STR_40
 12512  010F78  0100               	movlb	0	; () banked
 12513  010F7A  0100               	movlb	0	; () banked
 12514  010F7C  6FCE               	movwf	(?_sprintf+6)& (0+255),b
 12515  010F7E  ECAE  F0A1         	call	_sprintf	;wreg free
 12516                           
 12517                           ;GSM.c: 250: sprintf(dataToSend,"%s%s",dataToSend,"\",\"value\":\"");
 12518  010F82  0E02               	movlw	high _dataToSend
 12519  010F84  0100               	movlb	0	; () banked
 12520  010F86  0100               	movlb	0	; () banked
 12521  010F88  6FC9               	movwf	(sprintf@sp+1)& (0+255),b
 12522  010F8A  0E80               	movlw	low _dataToSend
 12523  010F8C  0100               	movlb	0	; () banked
 12524  010F8E  0100               	movlb	0	; () banked
 12525  010F90  6FC8               	movwf	sprintf@sp& (0+255),b
 12526  010F92  0EFF               	movlw	high STR_9
 12527  010F94  0100               	movlb	0	; () banked
 12528  010F96  0100               	movlb	0	; () banked
 12529  010F98  6FCB               	movwf	(sprintf@f+1)& (0+255),b
 12530  010F9A  0EE6               	movlw	low STR_9
 12531  010F9C  0100               	movlb	0	; () banked
 12532  010F9E  0100               	movlb	0	; () banked
 12533  010FA0  6FCA               	movwf	sprintf@f& (0+255),b
 12534  010FA2  0E02               	movlw	high _dataToSend
 12535  010FA4  0100               	movlb	0	; () banked
 12536  010FA6  0100               	movlb	0	; () banked
 12537  010FA8  6FCD               	movwf	(?_sprintf+5)& (0+255),b
 12538  010FAA  0E80               	movlw	low _dataToSend
 12539  010FAC  0100               	movlb	0	; () banked
 12540  010FAE  0100               	movlb	0	; () banked
 12541  010FB0  6FCC               	movwf	(?_sprintf+4)& (0+255),b
 12542  010FB2  0EFF               	movlw	high STR_42
 12543  010FB4  0100               	movlb	0	; () banked
 12544  010FB6  0100               	movlb	0	; () banked
 12545  010FB8  6FCF               	movwf	(?_sprintf+7)& (0+255),b
 12546  010FBA  0E22               	movlw	low STR_42
 12547  010FBC  0100               	movlb	0	; () banked
 12548  010FBE  0100               	movlb	0	; () banked
 12549  010FC0  6FCE               	movwf	(?_sprintf+6)& (0+255),b
 12550  010FC2  ECAE  F0A1         	call	_sprintf	;wreg free
 12551                           
 12552                           ;GSM.c: 251: sprintf(dataToSend,"%s%s",dataToSend,my_FrameReceived[boardEC].receivedFram
      +                          eEC);
 12553  010FC6  0E02               	movlw	high _dataToSend
 12554  010FC8  0100               	movlb	0	; () banked
 12555  010FCA  0100               	movlb	0	; () banked
 12556  010FCC  6FC9               	movwf	(sprintf@sp+1)& (0+255),b
 12557  010FCE  0E80               	movlw	low _dataToSend
 12558  010FD0  0100               	movlb	0	; () banked
 12559  010FD2  0100               	movlb	0	; () banked
 12560  010FD4  6FC8               	movwf	sprintf@sp& (0+255),b
 12561  010FD6  0EFF               	movlw	high STR_9
 12562  010FD8  0100               	movlb	0	; () banked
 12563  010FDA  0100               	movlb	0	; () banked
 12564  010FDC  6FCB               	movwf	(sprintf@f+1)& (0+255),b
 12565  010FDE  0EE6               	movlw	low STR_9
 12566  010FE0  0100               	movlb	0	; () banked
 12567  010FE2  0100               	movlb	0	; () banked
 12568  010FE4  6FCA               	movwf	sprintf@f& (0+255),b
 12569  010FE6  0E02               	movlw	high _dataToSend
 12570  010FE8  0100               	movlb	0	; () banked
 12571  010FEA  0100               	movlb	0	; () banked
 12572  010FEC  6FCD               	movwf	(?_sprintf+5)& (0+255),b
 12573  010FEE  0E80               	movlw	low _dataToSend
 12574  010FF0  0100               	movlb	0	; () banked
 12575  010FF2  0100               	movlb	0	; () banked
 12576  010FF4  6FCC               	movwf	(?_sprintf+4)& (0+255),b
 12577  010FF6  C1E2  F0C2         	movff	sendJsonDO@boardEC,___wmul@multiplier
 12578  010FFA  C1E3  F0C3         	movff	sendJsonDO@boardEC+1,___wmul@multiplier+1
 12579  010FFE  0E00               	movlw	0
 12580  011000  0100               	movlb	0	; () banked
 12581  011002  0100               	movlb	0	; () banked
 12582  011004  6FC5               	movwf	(___wmul@multiplicand+1)& (0+255),b
 12583  011006  0E1C               	movlw	28
 12584  011008  0100               	movlb	0	; () banked
 12585  01100A  6FC4               	movwf	___wmul@multiplicand& (0+255),b
 12586  01100C  ECE9  F0A6         	call	___wmul	;wreg free
 12587  011010  0E0E               	movlw	14
 12588  011012  0100               	movlb	0	; () banked
 12589  011014  0100               	movlb	0	; () banked
 12590  011016  27C2               	addwf	?___wmul& (0+255),f,b
 12591  011018  0E00               	movlw	0
 12592  01101A  0100               	movlb	0	; () banked
 12593  01101C  23C3               	addwfc	(?___wmul+1)& (0+255),f,b
 12594  01101E  0E5C               	movlw	low _my_FrameReceived
 12595  011020  0100               	movlb	0	; () banked
 12596  011022  6FDA               	movwf	??_sendJsonDO& (0+255),b
 12597  011024  0E08               	movlw	high _my_FrameReceived
 12598  011026  6FDB               	movwf	(??_sendJsonDO+1)& (0+255),b
 12599  011028  0100               	movlb	0	; () banked
 12600  01102A  0100               	movlb	0	; () banked
 12601  01102C  51C2               	movf	?___wmul& (0+255),w,b
 12602  01102E  0100               	movlb	0	; () banked
 12603  011030  27DA               	addwf	??_sendJsonDO& (0+255),f,b
 12604  011032  0100               	movlb	0	; () banked
 12605  011034  0100               	movlb	0	; () banked
 12606  011036  51C3               	movf	(?___wmul+1)& (0+255),w,b
 12607  011038  0100               	movlb	0	; () banked
 12608  01103A  23DB               	addwfc	(??_sendJsonDO+1)& (0+255),f,b
 12609  01103C  C0DA  F0CE         	movff	??_sendJsonDO,?_sprintf+6
 12610  011040  C0DB  F0CF         	movff	??_sendJsonDO+1,?_sprintf+7
 12611  011044  ECAE  F0A1         	call	_sprintf	;wreg free
 12612                           
 12613                           ;GSM.c: 252: for(int erase =0;erase<=5;erase++)
 12614  011048  0E00               	movlw	0
 12615  01104A  0101               	movlb	1	; () banked
 12616  01104C  0101               	movlb	1	; () banked
 12617  01104E  6FDB               	movwf	(sendJsonDO@erase_1479+1)& (0+255),b
 12618  011050  0E00               	movlw	0
 12619  011052  0101               	movlb	1	; () banked
 12620  011054  6FDA               	movwf	sendJsonDO@erase_1479& (0+255),b
 12621  011056                     
 12622                           ; BSR set to: 1
 12623  011056  0101               	movlb	1	; () banked
 12624  011058  0101               	movlb	1	; () banked
 12625  01105A  51DB               	movf	(sendJsonDO@erase_1479+1)& (0+255),w,b
 12626  01105C  0A80               	xorlw	128
 12627  01105E  0F80               	addlw	-128
 12628  011060  0E06               	movlw	6
 12629  011062  B4D8               	btfsc	status,2,c
 12630  011064  5DDA               	subwf	sendJsonDO@erase_1479& (0+255),w,b
 12631  011066  B0D8               	btfsc	status,0,c
 12632  011068  D039               	goto	l8092
 12633                           
 12634                           ; BSR set to: 1
 12635                           ;GSM.c: 253: {
 12636                           ;GSM.c: 254: my_FrameReceived[boardEC].receivedFrameEC[erase] = '\0';
 12637                           
 12638                           ; BSR set to: 1
 12639                           
 12640                           ; BSR set to: 1
 12641  01106A  C1E2  F0C2         	movff	sendJsonDO@boardEC,___wmul@multiplier
 12642  01106E  C1E3  F0C3         	movff	sendJsonDO@boardEC+1,___wmul@multiplier+1
 12643  011072  0E00               	movlw	0
 12644  011074  0100               	movlb	0	; () banked
 12645  011076  0100               	movlb	0	; () banked
 12646  011078  6FC5               	movwf	(___wmul@multiplicand+1)& (0+255),b
 12647  01107A  0E1C               	movlw	28
 12648  01107C  0100               	movlb	0	; () banked
 12649  01107E  6FC4               	movwf	___wmul@multiplicand& (0+255),b
 12650  011080  ECE9  F0A6         	call	___wmul	;wreg free
 12651  011084  0E0E               	movlw	14
 12652  011086  0101               	movlb	1	; () banked
 12653  011088  0101               	movlb	1	; () banked
 12654  01108A  25DA               	addwf	sendJsonDO@erase_1479& (0+255),w,b
 12655  01108C  0100               	movlb	0	; () banked
 12656  01108E  6FDA               	movwf	??_sendJsonDO& (0+255),b
 12657  011090  0E00               	movlw	0
 12658  011092  0101               	movlb	1	; () banked
 12659  011094  0101               	movlb	1	; () banked
 12660  011096  21DB               	addwfc	(sendJsonDO@erase_1479+1)& (0+255),w,b
 12661  011098  0100               	movlb	0	; () banked
 12662  01109A  6FDB               	movwf	(??_sendJsonDO+1)& (0+255),b
 12663  01109C  0E5C               	movlw	low _my_FrameReceived
 12664  01109E  0100               	movlb	0	; () banked
 12665  0110A0  6FDC               	movwf	(??_sendJsonDO+2)& (0+255),b
 12666  0110A2  0E08               	movlw	high _my_FrameReceived
 12667  0110A4  6FDD               	movwf	(??_sendJsonDO+3)& (0+255),b
 12668  0110A6  0100               	movlb	0	; () banked
 12669  0110A8  51DA               	movf	??_sendJsonDO& (0+255),w,b
 12670  0110AA  0100               	movlb	0	; () banked
 12671  0110AC  27DC               	addwf	(??_sendJsonDO+2)& (0+255),f,b
 12672  0110AE  0100               	movlb	0	; () banked
 12673  0110B0  51DB               	movf	(??_sendJsonDO+1)& (0+255),w,b
 12674  0110B2  0100               	movlb	0	; () banked
 12675  0110B4  23DD               	addwfc	(??_sendJsonDO+3)& (0+255),f,b
 12676  0110B6  0100               	movlb	0	; () banked
 12677  0110B8  0100               	movlb	0	; () banked
 12678  0110BA  51C2               	movf	?___wmul& (0+255),w,b
 12679  0110BC  0100               	movlb	0	; () banked
 12680  0110BE  25DC               	addwf	(??_sendJsonDO+2)& (0+255),w,b
 12681  0110C0  6ED9               	movwf	fsr2l,c
 12682  0110C2  0100               	movlb	0	; () banked
 12683  0110C4  0100               	movlb	0	; () banked
 12684  0110C6  51C3               	movf	(?___wmul+1)& (0+255),w,b
 12685  0110C8  0100               	movlb	0	; () banked
 12686  0110CA  21DD               	addwfc	(??_sendJsonDO+3)& (0+255),w,b
 12687  0110CC  6EDA               	movwf	fsr2h,c
 12688  0110CE  0E00               	movlw	0
 12689  0110D0  6EDF               	movwf	indf2,c
 12690                           
 12691                           ; BSR set to: 0
 12692  0110D2  0101               	movlb	1	; () banked
 12693  0110D4  0101               	movlb	1	; () banked
 12694  0110D6  4BDA               	infsnz	sendJsonDO@erase_1479& (0+255),f,b
 12695  0110D8  2BDB               	incf	(sendJsonDO@erase_1479+1)& (0+255),f,b
 12696  0110DA  D7BD               	goto	L16
 12697  0110DC                     l8092:
 12698                           
 12699                           ; BSR set to: 1
 12700                           ;GSM.c: 255: }
 12701                           ;GSM.c: 256: boardEC++;
 12702  0110DC  0101               	movlb	1	; () banked
 12703  0110DE  0101               	movlb	1	; () banked
 12704  0110E0  4BE2               	infsnz	sendJsonDO@boardEC& (0+255),f,b
 12705  0110E2  2BE3               	incf	(sendJsonDO@boardEC+1)& (0+255),f,b
 12706                           
 12707                           ; BSR set to: 1
 12708                           ;GSM.c: 257: sprintf(dataToSend,"%s%s",dataToSend,"\"},");
 12709  0110E4  0E02               	movlw	high _dataToSend
 12710  0110E6  0100               	movlb	0	; () banked
 12711  0110E8  0100               	movlb	0	; () banked
 12712  0110EA  6FC9               	movwf	(sprintf@sp+1)& (0+255),b
 12713  0110EC  0E80               	movlw	low _dataToSend
 12714  0110EE  0100               	movlb	0	; () banked
 12715  0110F0  0100               	movlb	0	; () banked
 12716  0110F2  6FC8               	movwf	sprintf@sp& (0+255),b
 12717  0110F4  0EFF               	movlw	high STR_9
 12718  0110F6  0100               	movlb	0	; () banked
 12719  0110F8  0100               	movlb	0	; () banked
 12720  0110FA  6FCB               	movwf	(sprintf@f+1)& (0+255),b
 12721  0110FC  0EE6               	movlw	low STR_9
 12722  0110FE  0100               	movlb	0	; () banked
 12723  011100  0100               	movlb	0	; () banked
 12724  011102  6FCA               	movwf	sprintf@f& (0+255),b
 12725  011104  0E02               	movlw	high _dataToSend
 12726  011106  0100               	movlb	0	; () banked
 12727  011108  0100               	movlb	0	; () banked
 12728  01110A  6FCD               	movwf	(?_sprintf+5)& (0+255),b
 12729  01110C  0E80               	movlw	low _dataToSend
 12730  01110E  0100               	movlb	0	; () banked
 12731  011110  0100               	movlb	0	; () banked
 12732  011112  6FCC               	movwf	(?_sprintf+4)& (0+255),b
 12733  011114  0EFF               	movlw	high STR_45
 12734  011116  0100               	movlb	0	; () banked
 12735  011118  0100               	movlb	0	; () banked
 12736  01111A  6FCF               	movwf	(?_sprintf+7)& (0+255),b
 12737  01111C  0EF5               	movlw	low STR_45
 12738  01111E  0100               	movlb	0	; () banked
 12739  011120  0100               	movlb	0	; () banked
 12740  011122  6FCE               	movwf	(?_sprintf+6)& (0+255),b
 12741  011124  ECAE  F0A1         	call	_sprintf	;wreg free
 12742  011128  0101               	movlb	1	; () banked
 12743  01112A  0101               	movlb	1	; () banked
 12744  01112C  4BD2               	infsnz	sendJsonDO@l_1464& (0+255),f,b
 12745  01112E  2BD3               	incf	(sendJsonDO@l_1464+1)& (0+255),f,b
 12746  011130                     l8098:
 12747                           
 12748                           ; BSR set to: 1
 12749  011130  0EFF               	movlw	255
 12750  011132  0100               	movlb	0	; () banked
 12751  011134  6FDA               	movwf	??_sendJsonDO& (0+255),b
 12752  011136  0EFF               	movlw	255
 12753  011138  6FDB               	movwf	(??_sendJsonDO+1)& (0+255),b
 12754  01113A  0100               	movlb	0	; () banked
 12755  01113C  C086  F0DC         	movff	_nbFrameEC,??_sendJsonDO+2
 12756  011140  0100               	movlb	0	; () banked
 12757  011142  C087  F0DD         	movff	_nbFrameEC+1,??_sendJsonDO+3
 12758  011146  0100               	movlb	0	; () banked
 12759  011148  51DA               	movf	??_sendJsonDO& (0+255),w,b
 12760  01114A  0100               	movlb	0	; () banked
 12761  01114C  27DC               	addwf	(??_sendJsonDO+2)& (0+255),f,b
 12762  01114E  0100               	movlb	0	; () banked
 12763  011150  51DB               	movf	(??_sendJsonDO+1)& (0+255),w,b
 12764  011152  0100               	movlb	0	; () banked
 12765  011154  23DD               	addwfc	(??_sendJsonDO+3)& (0+255),f,b
 12766  011156  0100               	movlb	0	; () banked
 12767  011158  51DD               	movf	(??_sendJsonDO+3)& (0+255),w,b
 12768  01115A  0A80               	xorlw	128
 12769  01115C  0100               	movlb	0	; () banked
 12770  01115E  6FDE               	movwf	(??_sendJsonDO+4)& (0+255),b
 12771  011160  0101               	movlb	1	; () banked
 12772  011162  0101               	movlb	1	; () banked
 12773  011164  51D2               	movf	sendJsonDO@l_1464& (0+255),w,b
 12774  011166  0100               	movlb	0	; () banked
 12775  011168  5DDC               	subwf	(??_sendJsonDO+2)& (0+255),w,b
 12776  01116A  0101               	movlb	1	; () banked
 12777  01116C  0101               	movlb	1	; () banked
 12778  01116E  51D3               	movf	(sendJsonDO@l_1464+1)& (0+255),w,b
 12779  011170  0A80               	xorlw	128
 12780  011172  0100               	movlb	0	; () banked
 12781  011174  59DE               	subwfb	(??_sendJsonDO+4)& (0+255),w,b
 12782  011176  B0D8               	btfsc	status,0,c
 12783  011178  D612               	goto	l8060
 12784                           
 12785                           ; BSR set to: 0
 12786                           ;GSM.c: 258: }
 12787                           ;GSM.c: 260: for(int l = 0;l <= nbFrameTDS-1; l++)
 12788                           
 12789                           ; BSR set to: 0
 12790  01117A  0E00               	movlw	0
 12791  01117C  0101               	movlb	1	; () banked
 12792  01117E  0101               	movlb	1	; () banked
 12793  011180  6FD5               	movwf	(sendJsonDO@l_1482+1)& (0+255),b
 12794  011182  0E00               	movlw	0
 12795  011184  0101               	movlb	1	; () banked
 12796  011186  6FD4               	movwf	sendJsonDO@l_1482& (0+255),b
 12797  011188  D1C7               	goto	l8132
 12798  01118A                     l8102:
 12799                           
 12800                           ;GSM.c: 261: {
 12801                           ;GSM.c: 262: sprintf(dataToSend,"%s%s",dataToSend,"{\"id\":\"");
 12802  01118A  0E02               	movlw	high _dataToSend
 12803  01118C  0100               	movlb	0	; () banked
 12804  01118E  0100               	movlb	0	; () banked
 12805  011190  6FC9               	movwf	(sprintf@sp+1)& (0+255),b
 12806  011192  0E80               	movlw	low _dataToSend
 12807  011194  0100               	movlb	0	; () banked
 12808  011196  0100               	movlb	0	; () banked
 12809  011198  6FC8               	movwf	sprintf@sp& (0+255),b
 12810  01119A  0EFF               	movlw	high STR_9
 12811  01119C  0100               	movlb	0	; () banked
 12812  01119E  0100               	movlb	0	; () banked
 12813  0111A0  6FCB               	movwf	(sprintf@f+1)& (0+255),b
 12814  0111A2  0EE6               	movlw	low STR_9
 12815  0111A4  0100               	movlb	0	; () banked
 12816  0111A6  0100               	movlb	0	; () banked
 12817  0111A8  6FCA               	movwf	sprintf@f& (0+255),b
 12818  0111AA  0E02               	movlw	high _dataToSend
 12819  0111AC  0100               	movlb	0	; () banked
 12820  0111AE  0100               	movlb	0	; () banked
 12821  0111B0  6FCD               	movwf	(?_sprintf+5)& (0+255),b
 12822  0111B2  0E80               	movlw	low _dataToSend
 12823  0111B4  0100               	movlb	0	; () banked
 12824  0111B6  0100               	movlb	0	; () banked
 12825  0111B8  6FCC               	movwf	(?_sprintf+4)& (0+255),b
 12826  0111BA  0EFF               	movlw	high STR_31
 12827  0111BC  0100               	movlb	0	; () banked
 12828  0111BE  0100               	movlb	0	; () banked
 12829  0111C0  6FCF               	movwf	(?_sprintf+7)& (0+255),b
 12830  0111C2  0EAF               	movlw	low STR_31
 12831  0111C4  0100               	movlb	0	; () banked
 12832  0111C6  0100               	movlb	0	; () banked
 12833  0111C8  6FCE               	movwf	(?_sprintf+6)& (0+255),b
 12834  0111CA  ECAE  F0A1         	call	_sprintf	;wreg free
 12835                           
 12836                           ;GSM.c: 263: sprintf(dataToSend,"%s%s",dataToSend,"su0004_02");
 12837  0111CE  0E02               	movlw	high _dataToSend
 12838  0111D0  0100               	movlb	0	; () banked
 12839  0111D2  0100               	movlb	0	; () banked
 12840  0111D4  6FC9               	movwf	(sprintf@sp+1)& (0+255),b
 12841  0111D6  0E80               	movlw	low _dataToSend
 12842  0111D8  0100               	movlb	0	; () banked
 12843  0111DA  0100               	movlb	0	; () banked
 12844  0111DC  6FC8               	movwf	sprintf@sp& (0+255),b
 12845  0111DE  0EFF               	movlw	high STR_9
 12846  0111E0  0100               	movlb	0	; () banked
 12847  0111E2  0100               	movlb	0	; () banked
 12848  0111E4  6FCB               	movwf	(sprintf@f+1)& (0+255),b
 12849  0111E6  0EE6               	movlw	low STR_9
 12850  0111E8  0100               	movlb	0	; () banked
 12851  0111EA  0100               	movlb	0	; () banked
 12852  0111EC  6FCA               	movwf	sprintf@f& (0+255),b
 12853  0111EE  0E02               	movlw	high _dataToSend
 12854  0111F0  0100               	movlb	0	; () banked
 12855  0111F2  0100               	movlb	0	; () banked
 12856  0111F4  6FCD               	movwf	(?_sprintf+5)& (0+255),b
 12857  0111F6  0E80               	movlw	low _dataToSend
 12858  0111F8  0100               	movlb	0	; () banked
 12859  0111FA  0100               	movlb	0	; () banked
 12860  0111FC  6FCC               	movwf	(?_sprintf+4)& (0+255),b
 12861  0111FE  0EFF               	movlw	high STR_95
 12862  011200  0100               	movlb	0	; () banked
 12863  011202  0100               	movlb	0	; () banked
 12864  011204  6FCF               	movwf	(?_sprintf+7)& (0+255),b
 12865  011206  0E93               	movlw	low STR_95
 12866  011208  0100               	movlb	0	; () banked
 12867  01120A  0100               	movlb	0	; () banked
 12868  01120C  6FCE               	movwf	(?_sprintf+6)& (0+255),b
 12869  01120E  ECAE  F0A1         	call	_sprintf	;wreg free
 12870                           
 12871                           ;GSM.c: 264: sprintf(dataToSend,"%s%s",dataToSend,"\",\"datetime\":\"");
 12872  011212  0E02               	movlw	high _dataToSend
 12873  011214  0100               	movlb	0	; () banked
 12874  011216  0100               	movlb	0	; () banked
 12875  011218  6FC9               	movwf	(sprintf@sp+1)& (0+255),b
 12876  01121A  0E80               	movlw	low _dataToSend
 12877  01121C  0100               	movlb	0	; () banked
 12878  01121E  0100               	movlb	0	; () banked
 12879  011220  6FC8               	movwf	sprintf@sp& (0+255),b
 12880  011222  0EFF               	movlw	high STR_9
 12881  011224  0100               	movlb	0	; () banked
 12882  011226  0100               	movlb	0	; () banked
 12883  011228  6FCB               	movwf	(sprintf@f+1)& (0+255),b
 12884  01122A  0EE6               	movlw	low STR_9
 12885  01122C  0100               	movlb	0	; () banked
 12886  01122E  0100               	movlb	0	; () banked
 12887  011230  6FCA               	movwf	sprintf@f& (0+255),b
 12888  011232  0E02               	movlw	high _dataToSend
 12889  011234  0100               	movlb	0	; () banked
 12890  011236  0100               	movlb	0	; () banked
 12891  011238  6FCD               	movwf	(?_sprintf+5)& (0+255),b
 12892  01123A  0E80               	movlw	low _dataToSend
 12893  01123C  0100               	movlb	0	; () banked
 12894  01123E  0100               	movlb	0	; () banked
 12895  011240  6FCC               	movwf	(?_sprintf+4)& (0+255),b
 12896  011242  0EFE               	movlw	high STR_35
 12897  011244  0100               	movlb	0	; () banked
 12898  011246  0100               	movlb	0	; () banked
 12899  011248  6FCF               	movwf	(?_sprintf+7)& (0+255),b
 12900  01124A  0EEA               	movlw	low STR_35
 12901  01124C  0100               	movlb	0	; () banked
 12902  01124E  0100               	movlb	0	; () banked
 12903  011250  6FCE               	movwf	(?_sprintf+6)& (0+255),b
 12904  011252  ECAE  F0A1         	call	_sprintf	;wreg free
 12905                           
 12906                           ;GSM.c: 265: sprintf(dataToSend,"%s%s",dataToSend,timetoPost2);
 12907  011256  0E02               	movlw	high _dataToSend
 12908  011258  0100               	movlb	0	; () banked
 12909  01125A  0100               	movlb	0	; () banked
 12910  01125C  6FC9               	movwf	(sprintf@sp+1)& (0+255),b
 12911  01125E  0E80               	movlw	low _dataToSend
 12912  011260  0100               	movlb	0	; () banked
 12913  011262  0100               	movlb	0	; () banked
 12914  011264  6FC8               	movwf	sprintf@sp& (0+255),b
 12915  011266  0EFF               	movlw	high STR_9
 12916  011268  0100               	movlb	0	; () banked
 12917  01126A  0100               	movlb	0	; () banked
 12918  01126C  6FCB               	movwf	(sprintf@f+1)& (0+255),b
 12919  01126E  0EE6               	movlw	low STR_9
 12920  011270  0100               	movlb	0	; () banked
 12921  011272  0100               	movlb	0	; () banked
 12922  011274  6FCA               	movwf	sprintf@f& (0+255),b
 12923  011276  0E02               	movlw	high _dataToSend
 12924  011278  0100               	movlb	0	; () banked
 12925  01127A  0100               	movlb	0	; () banked
 12926  01127C  6FCD               	movwf	(?_sprintf+5)& (0+255),b
 12927  01127E  0E80               	movlw	low _dataToSend
 12928  011280  0100               	movlb	0	; () banked
 12929  011282  0100               	movlb	0	; () banked
 12930  011284  6FCC               	movwf	(?_sprintf+4)& (0+255),b
 12931  011286  0100               	movlb	0	; () banked
 12932  011288  0E00               	movlw	high _timetoPost2
 12933  01128A  0100               	movlb	0	; () banked
 12934  01128C  0100               	movlb	0	; () banked
 12935  01128E  6FCF               	movwf	(?_sprintf+7)& (0+255),b
 12936  011290  0100               	movlb	0	; () banked
 12937  011292  0EB6               	movlw	low _timetoPost2
 12938  011294  0100               	movlb	0	; () banked
 12939  011296  0100               	movlb	0	; () banked
 12940  011298  6FCE               	movwf	(?_sprintf+6)& (0+255),b
 12941  01129A  ECAE  F0A1         	call	_sprintf	;wreg free
 12942                           
 12943                           ;GSM.c: 268: my_FrameReceived[boardTDS].receivedDataTimeTDS = 0;
 12944  01129E  C1E4  F0C2         	movff	sendJsonDO@boardTDS,___wmul@multiplier
 12945  0112A2  C1E5  F0C3         	movff	sendJsonDO@boardTDS+1,___wmul@multiplier+1
 12946  0112A6  0E00               	movlw	0
 12947  0112A8  0100               	movlb	0	; () banked
 12948  0112AA  0100               	movlb	0	; () banked
 12949  0112AC  6FC5               	movwf	(___wmul@multiplicand+1)& (0+255),b
 12950  0112AE  0E1C               	movlw	28
 12951  0112B0  0100               	movlb	0	; () banked
 12952  0112B2  6FC4               	movwf	___wmul@multiplicand& (0+255),b
 12953  0112B4  ECE9  F0A6         	call	___wmul	;wreg free
 12954  0112B8  0E1A               	movlw	26
 12955  0112BA  0100               	movlb	0	; () banked
 12956  0112BC  0100               	movlb	0	; () banked
 12957  0112BE  27C2               	addwf	?___wmul& (0+255),f,b
 12958  0112C0  0E00               	movlw	0
 12959  0112C2  0100               	movlb	0	; () banked
 12960  0112C4  23C3               	addwfc	(?___wmul+1)& (0+255),f,b
 12961  0112C6  0E5C               	movlw	low _my_FrameReceived
 12962  0112C8  0100               	movlb	0	; () banked
 12963  0112CA  0100               	movlb	0	; () banked
 12964  0112CC  25C2               	addwf	?___wmul& (0+255),w,b
 12965  0112CE  6ED9               	movwf	fsr2l,c
 12966  0112D0  0E08               	movlw	high _my_FrameReceived
 12967  0112D2  0100               	movlb	0	; () banked
 12968  0112D4  0100               	movlb	0	; () banked
 12969  0112D6  21C3               	addwfc	(?___wmul+1)& (0+255),w,b
 12970  0112D8  6EDA               	movwf	fsr2h,c
 12971  0112DA  0E00               	movlw	0
 12972  0112DC  6EDE               	movwf	postinc2,c
 12973  0112DE  0E00               	movlw	0
 12974  0112E0  6EDD               	movwf	postdec2,c
 12975                           
 12976                           ; BSR set to: 0
 12977                           ;GSM.c: 269: sprintf(dataToSend,"%s%s",dataToSend,"\",\"valuetype\":\"");
 12978  0112E2  0E02               	movlw	high _dataToSend
 12979  0112E4  0100               	movlb	0	; () banked
 12980  0112E6  0100               	movlb	0	; () banked
 12981  0112E8  6FC9               	movwf	(sprintf@sp+1)& (0+255),b
 12982  0112EA  0E80               	movlw	low _dataToSend
 12983  0112EC  0100               	movlb	0	; () banked
 12984  0112EE  0100               	movlb	0	; () banked
 12985  0112F0  6FC8               	movwf	sprintf@sp& (0+255),b
 12986  0112F2  0EFF               	movlw	high STR_9
 12987  0112F4  0100               	movlb	0	; () banked
 12988  0112F6  0100               	movlb	0	; () banked
 12989  0112F8  6FCB               	movwf	(sprintf@f+1)& (0+255),b
 12990  0112FA  0EE6               	movlw	low STR_9
 12991  0112FC  0100               	movlb	0	; () banked
 12992  0112FE  0100               	movlb	0	; () banked
 12993  011300  6FCA               	movwf	sprintf@f& (0+255),b
 12994  011302  0E02               	movlw	high _dataToSend
 12995  011304  0100               	movlb	0	; () banked
 12996  011306  0100               	movlb	0	; () banked
 12997  011308  6FCD               	movwf	(?_sprintf+5)& (0+255),b
 12998  01130A  0E80               	movlw	low _dataToSend
 12999  01130C  0100               	movlb	0	; () banked
 13000  01130E  0100               	movlb	0	; () banked
 13001  011310  6FCC               	movwf	(?_sprintf+4)& (0+255),b
 13002  011312  0EFE               	movlw	high STR_38
 13003  011314  0100               	movlb	0	; () banked
 13004  011316  0100               	movlb	0	; () banked
 13005  011318  6FCF               	movwf	(?_sprintf+7)& (0+255),b
 13006  01131A  0E9A               	movlw	low STR_38
 13007  01131C  0100               	movlb	0	; () banked
 13008  01131E  0100               	movlb	0	; () banked
 13009  011320  6FCE               	movwf	(?_sprintf+6)& (0+255),b
 13010  011322  ECAE  F0A1         	call	_sprintf	;wreg free
 13011                           
 13012                           ;GSM.c: 270: sprintf(dataToSend,"%s%s",dataToSend,"asis");
 13013  011326  0E02               	movlw	high _dataToSend
 13014  011328  0100               	movlb	0	; () banked
 13015  01132A  0100               	movlb	0	; () banked
 13016  01132C  6FC9               	movwf	(sprintf@sp+1)& (0+255),b
 13017  01132E  0E80               	movlw	low _dataToSend
 13018  011330  0100               	movlb	0	; () banked
 13019  011332  0100               	movlb	0	; () banked
 13020  011334  6FC8               	movwf	sprintf@sp& (0+255),b
 13021  011336  0EFF               	movlw	high STR_9
 13022  011338  0100               	movlb	0	; () banked
 13023  01133A  0100               	movlb	0	; () banked
 13024  01133C  6FCB               	movwf	(sprintf@f+1)& (0+255),b
 13025  01133E  0EE6               	movlw	low STR_9
 13026  011340  0100               	movlb	0	; () banked
 13027  011342  0100               	movlb	0	; () banked
 13028  011344  6FCA               	movwf	sprintf@f& (0+255),b
 13029  011346  0E02               	movlw	high _dataToSend
 13030  011348  0100               	movlb	0	; () banked
 13031  01134A  0100               	movlb	0	; () banked
 13032  01134C  6FCD               	movwf	(?_sprintf+5)& (0+255),b
 13033  01134E  0E80               	movlw	low _dataToSend
 13034  011350  0100               	movlb	0	; () banked
 13035  011352  0100               	movlb	0	; () banked
 13036  011354  6FCC               	movwf	(?_sprintf+4)& (0+255),b
 13037  011356  0EFF               	movlw	high STR_40
 13038  011358  0100               	movlb	0	; () banked
 13039  01135A  0100               	movlb	0	; () banked
 13040  01135C  6FCF               	movwf	(?_sprintf+7)& (0+255),b
 13041  01135E  0EEB               	movlw	low STR_40
 13042  011360  0100               	movlb	0	; () banked
 13043  011362  0100               	movlb	0	; () banked
 13044  011364  6FCE               	movwf	(?_sprintf+6)& (0+255),b
 13045  011366  ECAE  F0A1         	call	_sprintf	;wreg free
 13046                           
 13047                           ;GSM.c: 271: sprintf(dataToSend,"%s%s",dataToSend,"\",\"value\":\"");
 13048  01136A  0E02               	movlw	high _dataToSend
 13049  01136C  0100               	movlb	0	; () banked
 13050  01136E  0100               	movlb	0	; () banked
 13051  011370  6FC9               	movwf	(sprintf@sp+1)& (0+255),b
 13052  011372  0E80               	movlw	low _dataToSend
 13053  011374  0100               	movlb	0	; () banked
 13054  011376  0100               	movlb	0	; () banked
 13055  011378  6FC8               	movwf	sprintf@sp& (0+255),b
 13056  01137A  0EFF               	movlw	high STR_9
 13057  01137C  0100               	movlb	0	; () banked
 13058  01137E  0100               	movlb	0	; () banked
 13059  011380  6FCB               	movwf	(sprintf@f+1)& (0+255),b
 13060  011382  0EE6               	movlw	low STR_9
 13061  011384  0100               	movlb	0	; () banked
 13062  011386  0100               	movlb	0	; () banked
 13063  011388  6FCA               	movwf	sprintf@f& (0+255),b
 13064  01138A  0E02               	movlw	high _dataToSend
 13065  01138C  0100               	movlb	0	; () banked
 13066  01138E  0100               	movlb	0	; () banked
 13067  011390  6FCD               	movwf	(?_sprintf+5)& (0+255),b
 13068  011392  0E80               	movlw	low _dataToSend
 13069  011394  0100               	movlb	0	; () banked
 13070  011396  0100               	movlb	0	; () banked
 13071  011398  6FCC               	movwf	(?_sprintf+4)& (0+255),b
 13072  01139A  0EFF               	movlw	high STR_42
 13073  01139C  0100               	movlb	0	; () banked
 13074  01139E  0100               	movlb	0	; () banked
 13075  0113A0  6FCF               	movwf	(?_sprintf+7)& (0+255),b
 13076  0113A2  0E22               	movlw	low STR_42
 13077  0113A4  0100               	movlb	0	; () banked
 13078  0113A6  0100               	movlb	0	; () banked
 13079  0113A8  6FCE               	movwf	(?_sprintf+6)& (0+255),b
 13080  0113AA  ECAE  F0A1         	call	_sprintf	;wreg free
 13081                           
 13082                           ;GSM.c: 272: sprintf(dataToSend,"%s%s",dataToSend,my_FrameReceived[boardTDS].receivedFra
      +                          meTDS);
 13083  0113AE  0E02               	movlw	high _dataToSend
 13084  0113B0  0100               	movlb	0	; () banked
 13085  0113B2  0100               	movlb	0	; () banked
 13086  0113B4  6FC9               	movwf	(sprintf@sp+1)& (0+255),b
 13087  0113B6  0E80               	movlw	low _dataToSend
 13088  0113B8  0100               	movlb	0	; () banked
 13089  0113BA  0100               	movlb	0	; () banked
 13090  0113BC  6FC8               	movwf	sprintf@sp& (0+255),b
 13091  0113BE  0EFF               	movlw	high STR_9
 13092  0113C0  0100               	movlb	0	; () banked
 13093  0113C2  0100               	movlb	0	; () banked
 13094  0113C4  6FCB               	movwf	(sprintf@f+1)& (0+255),b
 13095  0113C6  0EE6               	movlw	low STR_9
 13096  0113C8  0100               	movlb	0	; () banked
 13097  0113CA  0100               	movlb	0	; () banked
 13098  0113CC  6FCA               	movwf	sprintf@f& (0+255),b
 13099  0113CE  0E02               	movlw	high _dataToSend
 13100  0113D0  0100               	movlb	0	; () banked
 13101  0113D2  0100               	movlb	0	; () banked
 13102  0113D4  6FCD               	movwf	(?_sprintf+5)& (0+255),b
 13103  0113D6  0E80               	movlw	low _dataToSend
 13104  0113D8  0100               	movlb	0	; () banked
 13105  0113DA  0100               	movlb	0	; () banked
 13106  0113DC  6FCC               	movwf	(?_sprintf+4)& (0+255),b
 13107  0113DE  C1E4  F0C2         	movff	sendJsonDO@boardTDS,___wmul@multiplier
 13108  0113E2  C1E5  F0C3         	movff	sendJsonDO@boardTDS+1,___wmul@multiplier+1
 13109  0113E6  0E00               	movlw	0
 13110  0113E8  0100               	movlb	0	; () banked
 13111  0113EA  0100               	movlb	0	; () banked
 13112  0113EC  6FC5               	movwf	(___wmul@multiplicand+1)& (0+255),b
 13113  0113EE  0E1C               	movlw	28
 13114  0113F0  0100               	movlb	0	; () banked
 13115  0113F2  6FC4               	movwf	___wmul@multiplicand& (0+255),b
 13116  0113F4  ECE9  F0A6         	call	___wmul	;wreg free
 13117  0113F8  0E15               	movlw	21
 13118  0113FA  0100               	movlb	0	; () banked
 13119  0113FC  0100               	movlb	0	; () banked
 13120  0113FE  27C2               	addwf	?___wmul& (0+255),f,b
 13121  011400  0E00               	movlw	0
 13122  011402  0100               	movlb	0	; () banked
 13123  011404  23C3               	addwfc	(?___wmul+1)& (0+255),f,b
 13124  011406  0E5C               	movlw	low _my_FrameReceived
 13125  011408  0100               	movlb	0	; () banked
 13126  01140A  6FDA               	movwf	??_sendJsonDO& (0+255),b
 13127  01140C  0E08               	movlw	high _my_FrameReceived
 13128  01140E  6FDB               	movwf	(??_sendJsonDO+1)& (0+255),b
 13129  011410  0100               	movlb	0	; () banked
 13130  011412  0100               	movlb	0	; () banked
 13131  011414  51C2               	movf	?___wmul& (0+255),w,b
 13132  011416  0100               	movlb	0	; () banked
 13133  011418  27DA               	addwf	??_sendJsonDO& (0+255),f,b
 13134  01141A  0100               	movlb	0	; () banked
 13135  01141C  0100               	movlb	0	; () banked
 13136  01141E  51C3               	movf	(?___wmul+1)& (0+255),w,b
 13137  011420  0100               	movlb	0	; () banked
 13138  011422  23DB               	addwfc	(??_sendJsonDO+1)& (0+255),f,b
 13139  011424  C0DA  F0CE         	movff	??_sendJsonDO,?_sprintf+6
 13140  011428  C0DB  F0CF         	movff	??_sendJsonDO+1,?_sprintf+7
 13141  01142C  ECAE  F0A1         	call	_sprintf	;wreg free
 13142                           
 13143                           ;GSM.c: 273: for(int erase =0;erase<=4;erase++)
 13144  011430  0E00               	movlw	0
 13145  011432  0101               	movlb	1	; () banked
 13146  011434  0101               	movlb	1	; () banked
 13147  011436  6FDD               	movwf	(sendJsonDO@erase_1497+1)& (0+255),b
 13148  011438  0E00               	movlw	0
 13149  01143A  0101               	movlb	1	; () banked
 13150  01143C  6FDC               	movwf	sendJsonDO@erase_1497& (0+255),b
 13151  01143E                     
 13152                           ; BSR set to: 1
 13153  01143E  0101               	movlb	1	; () banked
 13154  011440  0101               	movlb	1	; () banked
 13155  011442  51DD               	movf	(sendJsonDO@erase_1497+1)& (0+255),w,b
 13156  011444  0A80               	xorlw	128
 13157  011446  0F80               	addlw	-128
 13158  011448  0E05               	movlw	5
 13159  01144A  B4D8               	btfsc	status,2,c
 13160  01144C  5DDC               	subwf	sendJsonDO@erase_1497& (0+255),w,b
 13161  01144E  B0D8               	btfsc	status,0,c
 13162  011450  D039               	goto	l8126
 13163                           
 13164                           ; BSR set to: 1
 13165                           ;GSM.c: 274: {
 13166                           ;GSM.c: 275: my_FrameReceived[boardTDS].receivedFrameTDS[erase] = '\0';
 13167                           
 13168                           ; BSR set to: 1
 13169                           
 13170                           ; BSR set to: 1
 13171  011452  C1E4  F0C2         	movff	sendJsonDO@boardTDS,___wmul@multiplier
 13172  011456  C1E5  F0C3         	movff	sendJsonDO@boardTDS+1,___wmul@multiplier+1
 13173  01145A  0E00               	movlw	0
 13174  01145C  0100               	movlb	0	; () banked
 13175  01145E  0100               	movlb	0	; () banked
 13176  011460  6FC5               	movwf	(___wmul@multiplicand+1)& (0+255),b
 13177  011462  0E1C               	movlw	28
 13178  011464  0100               	movlb	0	; () banked
 13179  011466  6FC4               	movwf	___wmul@multiplicand& (0+255),b
 13180  011468  ECE9  F0A6         	call	___wmul	;wreg free
 13181  01146C  0E15               	movlw	21
 13182  01146E  0101               	movlb	1	; () banked
 13183  011470  0101               	movlb	1	; () banked
 13184  011472  25DC               	addwf	sendJsonDO@erase_1497& (0+255),w,b
 13185  011474  0100               	movlb	0	; () banked
 13186  011476  6FDA               	movwf	??_sendJsonDO& (0+255),b
 13187  011478  0E00               	movlw	0
 13188  01147A  0101               	movlb	1	; () banked
 13189  01147C  0101               	movlb	1	; () banked
 13190  01147E  21DD               	addwfc	(sendJsonDO@erase_1497+1)& (0+255),w,b
 13191  011480  0100               	movlb	0	; () banked
 13192  011482  6FDB               	movwf	(??_sendJsonDO+1)& (0+255),b
 13193  011484  0E5C               	movlw	low _my_FrameReceived
 13194  011486  0100               	movlb	0	; () banked
 13195  011488  6FDC               	movwf	(??_sendJsonDO+2)& (0+255),b
 13196  01148A  0E08               	movlw	high _my_FrameReceived
 13197  01148C  6FDD               	movwf	(??_sendJsonDO+3)& (0+255),b
 13198  01148E  0100               	movlb	0	; () banked
 13199  011490  51DA               	movf	??_sendJsonDO& (0+255),w,b
 13200  011492  0100               	movlb	0	; () banked
 13201  011494  27DC               	addwf	(??_sendJsonDO+2)& (0+255),f,b
 13202  011496  0100               	movlb	0	; () banked
 13203  011498  51DB               	movf	(??_sendJsonDO+1)& (0+255),w,b
 13204  01149A  0100               	movlb	0	; () banked
 13205  01149C  23DD               	addwfc	(??_sendJsonDO+3)& (0+255),f,b
 13206  01149E  0100               	movlb	0	; () banked
 13207  0114A0  0100               	movlb	0	; () banked
 13208  0114A2  51C2               	movf	?___wmul& (0+255),w,b
 13209  0114A4  0100               	movlb	0	; () banked
 13210  0114A6  25DC               	addwf	(??_sendJsonDO+2)& (0+255),w,b
 13211  0114A8  6ED9               	movwf	fsr2l,c
 13212  0114AA  0100               	movlb	0	; () banked
 13213  0114AC  0100               	movlb	0	; () banked
 13214  0114AE  51C3               	movf	(?___wmul+1)& (0+255),w,b
 13215  0114B0  0100               	movlb	0	; () banked
 13216  0114B2  21DD               	addwfc	(??_sendJsonDO+3)& (0+255),w,b
 13217  0114B4  6EDA               	movwf	fsr2h,c
 13218  0114B6  0E00               	movlw	0
 13219  0114B8  6EDF               	movwf	indf2,c
 13220                           
 13221                           ; BSR set to: 0
 13222  0114BA  0101               	movlb	1	; () banked
 13223  0114BC  0101               	movlb	1	; () banked
 13224  0114BE  4BDC               	infsnz	sendJsonDO@erase_1497& (0+255),f,b
 13225  0114C0  2BDD               	incf	(sendJsonDO@erase_1497+1)& (0+255),f,b
 13226  0114C2  D7BD               	goto	L17
 13227  0114C4                     l8126:
 13228                           
 13229                           ; BSR set to: 1
 13230                           ;GSM.c: 276: }
 13231                           ;GSM.c: 277: boardTDS++;
 13232  0114C4  0101               	movlb	1	; () banked
 13233  0114C6  0101               	movlb	1	; () banked
 13234  0114C8  4BE4               	infsnz	sendJsonDO@boardTDS& (0+255),f,b
 13235  0114CA  2BE5               	incf	(sendJsonDO@boardTDS+1)& (0+255),f,b
 13236                           
 13237                           ; BSR set to: 1
 13238                           ;GSM.c: 278: sprintf(dataToSend,"%s%s",dataToSend,"\"},");
 13239  0114CC  0E02               	movlw	high _dataToSend
 13240  0114CE  0100               	movlb	0	; () banked
 13241  0114D0  0100               	movlb	0	; () banked
 13242  0114D2  6FC9               	movwf	(sprintf@sp+1)& (0+255),b
 13243  0114D4  0E80               	movlw	low _dataToSend
 13244  0114D6  0100               	movlb	0	; () banked
 13245  0114D8  0100               	movlb	0	; () banked
 13246  0114DA  6FC8               	movwf	sprintf@sp& (0+255),b
 13247  0114DC  0EFF               	movlw	high STR_9
 13248  0114DE  0100               	movlb	0	; () banked
 13249  0114E0  0100               	movlb	0	; () banked
 13250  0114E2  6FCB               	movwf	(sprintf@f+1)& (0+255),b
 13251  0114E4  0EE6               	movlw	low STR_9
 13252  0114E6  0100               	movlb	0	; () banked
 13253  0114E8  0100               	movlb	0	; () banked
 13254  0114EA  6FCA               	movwf	sprintf@f& (0+255),b
 13255  0114EC  0E02               	movlw	high _dataToSend
 13256  0114EE  0100               	movlb	0	; () banked
 13257  0114F0  0100               	movlb	0	; () banked
 13258  0114F2  6FCD               	movwf	(?_sprintf+5)& (0+255),b
 13259  0114F4  0E80               	movlw	low _dataToSend
 13260  0114F6  0100               	movlb	0	; () banked
 13261  0114F8  0100               	movlb	0	; () banked
 13262  0114FA  6FCC               	movwf	(?_sprintf+4)& (0+255),b
 13263  0114FC  0EFF               	movlw	high STR_45
 13264  0114FE  0100               	movlb	0	; () banked
 13265  011500  0100               	movlb	0	; () banked
 13266  011502  6FCF               	movwf	(?_sprintf+7)& (0+255),b
 13267  011504  0EF5               	movlw	low STR_45
 13268  011506  0100               	movlb	0	; () banked
 13269  011508  0100               	movlb	0	; () banked
 13270  01150A  6FCE               	movwf	(?_sprintf+6)& (0+255),b
 13271  01150C  ECAE  F0A1         	call	_sprintf	;wreg free
 13272  011510  0101               	movlb	1	; () banked
 13273  011512  0101               	movlb	1	; () banked
 13274  011514  4BD4               	infsnz	sendJsonDO@l_1482& (0+255),f,b
 13275  011516  2BD5               	incf	(sendJsonDO@l_1482+1)& (0+255),f,b
 13276  011518                     l8132:
 13277                           
 13278                           ; BSR set to: 1
 13279  011518  0EFF               	movlw	255
 13280  01151A  0100               	movlb	0	; () banked
 13281  01151C  6FDA               	movwf	??_sendJsonDO& (0+255),b
 13282  01151E  0EFF               	movlw	255
 13283  011520  6FDB               	movwf	(??_sendJsonDO+1)& (0+255),b
 13284  011522  0100               	movlb	0	; () banked
 13285  011524  C08A  F0DC         	movff	_nbFrameTDS,??_sendJsonDO+2
 13286  011528  0100               	movlb	0	; () banked
 13287  01152A  C08B  F0DD         	movff	_nbFrameTDS+1,??_sendJsonDO+3
 13288  01152E  0100               	movlb	0	; () banked
 13289  011530  51DA               	movf	??_sendJsonDO& (0+255),w,b
 13290  011532  0100               	movlb	0	; () banked
 13291  011534  27DC               	addwf	(??_sendJsonDO+2)& (0+255),f,b
 13292  011536  0100               	movlb	0	; () banked
 13293  011538  51DB               	movf	(??_sendJsonDO+1)& (0+255),w,b
 13294  01153A  0100               	movlb	0	; () banked
 13295  01153C  23DD               	addwfc	(??_sendJsonDO+3)& (0+255),f,b
 13296  01153E  0100               	movlb	0	; () banked
 13297  011540  51DD               	movf	(??_sendJsonDO+3)& (0+255),w,b
 13298  011542  0A80               	xorlw	128
 13299  011544  0100               	movlb	0	; () banked
 13300  011546  6FDE               	movwf	(??_sendJsonDO+4)& (0+255),b
 13301  011548  0101               	movlb	1	; () banked
 13302  01154A  0101               	movlb	1	; () banked
 13303  01154C  51D4               	movf	sendJsonDO@l_1482& (0+255),w,b
 13304  01154E  0100               	movlb	0	; () banked
 13305  011550  5DDC               	subwf	(??_sendJsonDO+2)& (0+255),w,b
 13306  011552  0101               	movlb	1	; () banked
 13307  011554  0101               	movlb	1	; () banked
 13308  011556  51D5               	movf	(sendJsonDO@l_1482+1)& (0+255),w,b
 13309  011558  0A80               	xorlw	128
 13310  01155A  0100               	movlb	0	; () banked
 13311  01155C  59DE               	subwfb	(??_sendJsonDO+4)& (0+255),w,b
 13312  01155E  B0D8               	btfsc	status,0,c
 13313  011560  D614               	goto	l8102
 13314  011562                     l8134:
 13315                           
 13316                           ; BSR set to: 0
 13317                           ;GSM.c: 279: }
 13318                           ;GSM.c: 280: }
 13319                           ;GSM.c: 281: sprintf(dataToSend,"%s]}",dataToSend);
 13320  011562  0E02               	movlw	high _dataToSend
 13321  011564  0100               	movlb	0	; () banked
 13322  011566  0100               	movlb	0	; () banked
 13323  011568  6FC9               	movwf	(sprintf@sp+1)& (0+255),b
 13324  01156A  0E80               	movlw	low _dataToSend
 13325  01156C  0100               	movlb	0	; () banked
 13326  01156E  0100               	movlb	0	; () banked
 13327  011570  6FC8               	movwf	sprintf@sp& (0+255),b
 13328  011572  0EFF               	movlw	high STR_108
 13329  011574  0100               	movlb	0	; () banked
 13330  011576  0100               	movlb	0	; () banked
 13331  011578  6FCB               	movwf	(sprintf@f+1)& (0+255),b
 13332  01157A  0EF0               	movlw	low STR_108
 13333  01157C  0100               	movlb	0	; () banked
 13334  01157E  0100               	movlb	0	; () banked
 13335  011580  6FCA               	movwf	sprintf@f& (0+255),b
 13336  011582  0E02               	movlw	high _dataToSend
 13337  011584  0100               	movlb	0	; () banked
 13338  011586  0100               	movlb	0	; () banked
 13339  011588  6FCD               	movwf	(?_sprintf+5)& (0+255),b
 13340  01158A  0E80               	movlw	low _dataToSend
 13341  01158C  0100               	movlb	0	; () banked
 13342  01158E  0100               	movlb	0	; () banked
 13343  011590  6FCC               	movwf	(?_sprintf+4)& (0+255),b
 13344  011592  ECAE  F0A1         	call	_sprintf	;wreg free
 13345                           
 13346                           ;GSM.c: 282: sprintf(dataToSend,"%s%s",dataToSend,"]}}                  ");
 13347  011596  0E02               	movlw	high _dataToSend
 13348  011598  0100               	movlb	0	; () banked
 13349  01159A  0100               	movlb	0	; () banked
 13350  01159C  6FC9               	movwf	(sprintf@sp+1)& (0+255),b
 13351  01159E  0E80               	movlw	low _dataToSend
 13352  0115A0  0100               	movlb	0	; () banked
 13353  0115A2  0100               	movlb	0	; () banked
 13354  0115A4  6FC8               	movwf	sprintf@sp& (0+255),b
 13355  0115A6  0EFF               	movlw	high STR_9
 13356  0115A8  0100               	movlb	0	; () banked
 13357  0115AA  0100               	movlb	0	; () banked
 13358  0115AC  6FCB               	movwf	(sprintf@f+1)& (0+255),b
 13359  0115AE  0EE6               	movlw	low STR_9
 13360  0115B0  0100               	movlb	0	; () banked
 13361  0115B2  0100               	movlb	0	; () banked
 13362  0115B4  6FCA               	movwf	sprintf@f& (0+255),b
 13363  0115B6  0E02               	movlw	high _dataToSend
 13364  0115B8  0100               	movlb	0	; () banked
 13365  0115BA  0100               	movlb	0	; () banked
 13366  0115BC  6FCD               	movwf	(?_sprintf+5)& (0+255),b
 13367  0115BE  0E80               	movlw	low _dataToSend
 13368  0115C0  0100               	movlb	0	; () banked
 13369  0115C2  0100               	movlb	0	; () banked
 13370  0115C4  6FCC               	movwf	(?_sprintf+4)& (0+255),b
 13371  0115C6  0EFE               	movlw	high STR_110
 13372  0115C8  0100               	movlb	0	; () banked
 13373  0115CA  0100               	movlb	0	; () banked
 13374  0115CC  6FCF               	movwf	(?_sprintf+7)& (0+255),b
 13375  0115CE  0E60               	movlw	low STR_110
 13376  0115D0  0100               	movlb	0	; () banked
 13377  0115D2  0100               	movlb	0	; () banked
 13378  0115D4  6FCE               	movwf	(?_sprintf+6)& (0+255),b
 13379  0115D6  ECAE  F0A1         	call	_sprintf	;wreg free
 13380                           
 13381                           ;GSM.c: 283: nbFrameDO = 0 ;
 13382  0115DA  0E00               	movlw	0
 13383  0115DC  0100               	movlb	0	; () banked
 13384  0115DE  0100               	movlb	0	; () banked
 13385  0115E0  6F85               	movwf	(_nbFrameDO+1)& (0+255),b
 13386  0115E2  0E00               	movlw	0
 13387  0115E4  0100               	movlb	0	; () banked
 13388  0115E6  6F84               	movwf	_nbFrameDO& (0+255),b
 13389                           
 13390                           ; BSR set to: 0
 13391                           ;GSM.c: 284: nbdataI = 0;
 13392  0115E8  0E00               	movlw	0
 13393  0115EA  0101               	movlb	1	; () banked
 13394  0115EC  0101               	movlb	1	; () banked
 13395  0115EE  6FC7               	movwf	(sendJsonDO@nbdataI+1)& (0+255),b
 13396  0115F0  0E00               	movlw	0
 13397  0115F2  0101               	movlb	1	; () banked
 13398  0115F4  6FC6               	movwf	sendJsonDO@nbdataI& (0+255),b
 13399                           
 13400                           ; BSR set to: 1
 13401                           ;GSM.c: 285: boardDO = 0;
 13402  0115F6  0E00               	movlw	0
 13403  0115F8  0101               	movlb	1	; () banked
 13404  0115FA  0101               	movlb	1	; () banked
 13405  0115FC  6FDF               	movwf	(sendJsonDO@boardDO+1)& (0+255),b
 13406  0115FE  0E00               	movlw	0
 13407  011600  0101               	movlb	1	; () banked
 13408  011602  6FDE               	movwf	sendJsonDO@boardDO& (0+255),b
 13409                           
 13410                           ; BSR set to: 1
 13411                           ;GSM.c: 286: nbFramePH = 0 ;
 13412  011604  0E00               	movlw	0
 13413  011606  0100               	movlb	0	; () banked
 13414  011608  0100               	movlb	0	; () banked
 13415  01160A  6F89               	movwf	(_nbFramePH+1)& (0+255),b
 13416  01160C  0E00               	movlw	0
 13417  01160E  0100               	movlb	0	; () banked
 13418  011610  6F88               	movwf	_nbFramePH& (0+255),b
 13419                           
 13420                           ; BSR set to: 0
 13421                           ;GSM.c: 287: nbdataIPH = 0;
 13422  011612  0E00               	movlw	0
 13423  011614  0101               	movlb	1	; () banked
 13424  011616  0101               	movlb	1	; () banked
 13425  011618  6FC9               	movwf	(sendJsonDO@nbdataIPH+1)& (0+255),b
 13426  01161A  0E00               	movlw	0
 13427  01161C  0101               	movlb	1	; () banked
 13428  01161E  6FC8               	movwf	sendJsonDO@nbdataIPH& (0+255),b
 13429                           
 13430                           ; BSR set to: 1
 13431                           ;GSM.c: 288: boardPH = 0;
 13432  011620  0E00               	movlw	0
 13433  011622  0101               	movlb	1	; () banked
 13434  011624  0101               	movlb	1	; () banked
 13435  011626  6FE1               	movwf	(sendJsonDO@boardPH+1)& (0+255),b
 13436  011628  0E00               	movlw	0
 13437  01162A  0101               	movlb	1	; () banked
 13438  01162C  6FE0               	movwf	sendJsonDO@boardPH& (0+255),b
 13439                           
 13440                           ; BSR set to: 1
 13441                           ;GSM.c: 289: nbFrameEC = 0 ;
 13442  01162E  0E00               	movlw	0
 13443  011630  0100               	movlb	0	; () banked
 13444  011632  0100               	movlb	0	; () banked
 13445  011634  6F87               	movwf	(_nbFrameEC+1)& (0+255),b
 13446  011636  0E00               	movlw	0
 13447  011638  0100               	movlb	0	; () banked
 13448  01163A  6F86               	movwf	_nbFrameEC& (0+255),b
 13449                           
 13450                           ; BSR set to: 0
 13451                           ;GSM.c: 290: nbdataIEC = 0;
 13452  01163C  0E00               	movlw	0
 13453  01163E  0101               	movlb	1	; () banked
 13454  011640  0101               	movlb	1	; () banked
 13455  011642  6FCB               	movwf	(sendJsonDO@nbdataIEC+1)& (0+255),b
 13456  011644  0E00               	movlw	0
 13457  011646  0101               	movlb	1	; () banked
 13458  011648  6FCA               	movwf	sendJsonDO@nbdataIEC& (0+255),b
 13459                           
 13460                           ; BSR set to: 1
 13461                           ;GSM.c: 291: boardEC = 0;
 13462  01164A  0E00               	movlw	0
 13463  01164C  0101               	movlb	1	; () banked
 13464  01164E  0101               	movlb	1	; () banked
 13465  011650  6FE3               	movwf	(sendJsonDO@boardEC+1)& (0+255),b
 13466  011652  0E00               	movlw	0
 13467  011654  0101               	movlb	1	; () banked
 13468  011656  6FE2               	movwf	sendJsonDO@boardEC& (0+255),b
 13469                           
 13470                           ; BSR set to: 1
 13471                           ;GSM.c: 292: nbFrameTDS = 0 ;
 13472  011658  0E00               	movlw	0
 13473  01165A  0100               	movlb	0	; () banked
 13474  01165C  0100               	movlb	0	; () banked
 13475  01165E  6F8B               	movwf	(_nbFrameTDS+1)& (0+255),b
 13476  011660  0E00               	movlw	0
 13477  011662  0100               	movlb	0	; () banked
 13478  011664  6F8A               	movwf	_nbFrameTDS& (0+255),b
 13479                           
 13480                           ; BSR set to: 0
 13481                           ;GSM.c: 293: nbdataITDS = 0;
 13482  011666  0E00               	movlw	0
 13483  011668  0101               	movlb	1	; () banked
 13484  01166A  0101               	movlb	1	; () banked
 13485  01166C  6FCD               	movwf	(sendJsonDO@nbdataITDS+1)& (0+255),b
 13486  01166E  0E00               	movlw	0
 13487  011670  0101               	movlb	1	; () banked
 13488  011672  6FCC               	movwf	sendJsonDO@nbdataITDS& (0+255),b
 13489                           
 13490                           ; BSR set to: 1
 13491                           ;GSM.c: 294: boardTDS = 0;
 13492  011674  0E00               	movlw	0
 13493  011676  0101               	movlb	1	; () banked
 13494  011678  0101               	movlb	1	; () banked
 13495  01167A  6FE5               	movwf	(sendJsonDO@boardTDS+1)& (0+255),b
 13496  01167C  0E00               	movlw	0
 13497  01167E  0101               	movlb	1	; () banked
 13498  011680  6FE4               	movwf	sendJsonDO@boardTDS& (0+255),b
 13499                           
 13500                           ; BSR set to: 1
 13501  011682  0012               	return	
 13502  011684                     __end_of_sendJsonDO:
 13503                           	opt stack 0
 13504                           tblptru	equ	0xFF8
 13505                           tblptrh	equ	0xFF7
 13506                           tblptrl	equ	0xFF6
 13507                           tablat	equ	0xFF5
 13508                           prodl	equ	0xFF3
 13509                           intcon	equ	0xFF2
 13510                           intcon2	equ	0xFF1
 13511                           indf0	equ	0xFEF
 13512                           postinc0	equ	0xFEE
 13513                           fsr0h	equ	0xFEA
 13514                           fsr0l	equ	0xFE9
 13515                           wreg	equ	0xFE8
 13516                           indf1	equ	0xFE7
 13517                           postinc1	equ	0xFE6
 13518                           postdec1	equ	0xFE5
 13519                           fsr1h	equ	0xFE2
 13520                           fsr1l	equ	0xFE1
 13521                           indf2	equ	0xFDF
 13522                           postinc2	equ	0xFDE
 13523                           postdec2	equ	0xFDD
 13524                           fsr2h	equ	0xFDA
 13525                           fsr2l	equ	0xFD9
 13526                           status	equ	0xFD8
 13527                           
 13528 ;; *************** function _sprintf *****************
 13529 ;; Defined at:
 13530 ;;		line 492 in file "C:\Program Files (x86)\Microchip\xc8\v1.30\sources\common\doprnt.c"
 13531 ;; Parameters:    Size  Location     Type
 13532 ;;  sp              2    6[BANK0 ] PTR unsigned char 
 13533 ;;		 -> dataToSend(1500), 
 13534 ;;  f               2    8[BANK0 ] PTR const unsigned char 
 13535 ;;		 -> STR_109(5), STR_108(5), STR_106(5), STR_105(5), 
 13536 ;;		 -> STR_103(5), STR_101(5), STR_99(5), STR_98(5), 
 13537 ;;		 -> STR_96(5), STR_94(5), STR_92(5), STR_90(5), 
 13538 ;;		 -> STR_89(5), STR_87(5), STR_85(5), STR_83(5), 
 13539 ;;		 -> STR_82(5), STR_80(5), STR_78(5), STR_76(5), 
 13540 ;;		 -> STR_74(5), STR_72(5), STR_70(5), STR_69(6), 
 13541 ;;		 -> STR_67(5), STR_66(5), STR_64(5), STR_62(5), 
 13542 ;;		 -> STR_60(5), STR_59(5), STR_57(5), STR_55(5), 
 13543 ;;		 -> STR_53(5), STR_51(5), STR_49(5), STR_47(5), 
 13544 ;;		 -> STR_46(6), STR_44(5), STR_43(5), STR_41(5), 
 13545 ;;		 -> STR_39(5), STR_37(5), STR_36(5), STR_34(5), 
 13546 ;;		 -> STR_32(5), STR_30(5), STR_28(5), STR_26(5), 
 13547 ;;		 -> STR_24(5), STR_22(5), STR_20(5), STR_18(5), 
 13548 ;;		 -> STR_16(5), STR_14(5), STR_13(5), STR_11(5), 
 13549 ;;		 -> STR_9(5), 
 13550 ;; Auto vars:     Size  Location     Type
 13551 ;;  _val            4   20[BANK0 ] struct .
 13552 ;;  ap              2   17[BANK0 ] PTR void [1]
 13553 ;;		 -> ?_sprintf(2), 
 13554 ;;  c               1   19[BANK0 ] char 
 13555 ;;  flag            1   16[BANK0 ] unsigned char 
 13556 ;;  prec            1    0        char 
 13557 ;; Return value:  Size  Location     Type
 13558 ;;                  2    6[BANK0 ] int 
 13559 ;; Registers used:
 13560 ;;		wreg, fsr0l, fsr0h, fsr2l, fsr2h, status,2, status,0, tblptrl, tblptrh, tblptru
 13561 ;; Tracked objects:
 13562 ;;		On entry : 0/0
 13563 ;;		On exit  : 0/0
 13564 ;;		Unchanged: 0/0
 13565 ;; Data sizes:     COMRAM   BANK0   BANK1   BANK2   BANK3   BANK4   BANK5   BANK6   BANK7   BANK8   BANK9  BANK10  BANK1
      +1  BANK12  BANK13  BANK14
 13566 ;;      Params:         0       8       0       0       0       0       0       0       0       0       0       0       
      +0       0       0       0
 13567 ;;      Locals:         0       8       0       0       0       0       0       0       0       0       0       0       
      +0       0       0       0
 13568 ;;      Temps:          0       2       0       0       0       0       0       0       0       0       0       0       
      +0       0       0       0
 13569 ;;      Totals:         0      18       0       0       0       0       0       0       0       0       0       0       
      +0       0       0       0
 13570 ;;Total ram usage:       18 bytes
 13571 ;; Hardware stack levels used:    1
 13572 ;; Hardware stack levels required when called:    3
 13573 ;; This function calls:
 13574 ;;		Nothing
 13575 ;; This function is called by:
 13576 ;;		_sendJsonDO
 13577 ;; This function uses a non-reentrant model
 13578 ;;
 13579                           
 13580                           	psect	text22
 13581  01435C                     __ptext22:
 13582                           	opt stack 0
 13583  01435C                     _sprintf:
 13584                           	opt stack 25
 13585                           
 13586                           ;doprnt.c: 494: va_list ap;
 13587                           ;doprnt.c: 499: signed char c;
 13588                           ;doprnt.c: 506: signed char prec;
 13589                           ;doprnt.c: 508: unsigned char flag;
 13590                           ;doprnt.c: 527: union {
 13591                           ;doprnt.c: 528: unsigned int _val;
 13592                           ;doprnt.c: 529: struct {
 13593                           ;doprnt.c: 530: const char * _cp;
 13594                           ;doprnt.c: 531: unsigned _len;
 13595                           ;doprnt.c: 532: } _str;
 13596                           ;doprnt.c: 533: } _val;
 13597                           ;doprnt.c: 542: *ap = __va_start();
 13598                           
 13599                           ; BSR set to: 1
 13600                           ;incstack = 0
 13601  01435C  0100               	movlb	0	; () banked
 13602  01435E  0E00               	movlw	high (?_sprintf+4)
 13603  014360  0100               	movlb	0	; () banked
 13604  014362  0100               	movlb	0	; () banked
 13605  014364  6FD4               	movwf	(sprintf@ap+1)& (0+255),b
 13606  014366  0100               	movlb	0	; () banked
 13607  014368  0ECC               	movlw	low (?_sprintf+4)
 13608  01436A  0100               	movlb	0	; () banked
 13609  01436C  0100               	movlb	0	; () banked
 13610  01436E  6FD3               	movwf	sprintf@ap& (0+255),b
 13611                           
 13612                           ;doprnt.c: 545: while(c = *f++) {
 13613  014370  D091               	goto	l8208
 13614  014372                     l8180:
 13615                           
 13616                           ; BSR set to: 0
 13617                           ;doprnt.c: 547: if(c != '%')
 13618  014372  0100               	movlb	0	; () banked
 13619  014374  0100               	movlb	0	; () banked
 13620  014376  51D5               	movf	sprintf@c& (0+255),w,b
 13621  014378  0A25               	xorlw	37
 13622  01437A  B4D8               	btfsc	status,2,c
 13623  01437C  D00C               	goto	l8186
 13624                           
 13625                           ; BSR set to: 0
 13626                           ;doprnt.c: 549: {
 13627                           ;doprnt.c: 550: ((*sp++ = (c)));
 13628  01437E  C0C8  FFD9         	movff	sprintf@sp,fsr2l
 13629  014382  C0C9  FFDA         	movff	sprintf@sp+1,fsr2h
 13630  014386  0100               	movlb	0	; () banked
 13631  014388  C0D5  FFDF         	movff	sprintf@c,indf2
 13632                           
 13633                           ; BSR set to: 0
 13634  01438C  0100               	movlb	0	; () banked
 13635  01438E  0100               	movlb	0	; () banked
 13636  014390  4BC8               	infsnz	sprintf@sp& (0+255),f,b
 13637  014392  2BC9               	incf	(sprintf@sp+1)& (0+255),f,b
 13638                           
 13639                           ;doprnt.c: 551: continue;
 13640  014394  D07F               	goto	l8208
 13641  014396                     l8186:
 13642                           
 13643                           ; BSR set to: 0
 13644                           ;doprnt.c: 552: }
 13645                           ;doprnt.c: 557: flag = 0;
 13646  014396  0100               	movlb	0	; () banked
 13647  014398  6FD0               	movwf	??_sprintf& (0+255),b
 13648  01439A  0E00               	movlw	0
 13649  01439C  0100               	movlb	0	; () banked
 13650  01439E  0100               	movlb	0	; () banked
 13651  0143A0  6FD2               	movwf	sprintf@flag& (0+255),b
 13652  0143A2  0100               	movlb	0	; () banked
 13653  0143A4  51D0               	movf	??_sprintf& (0+255),w,b
 13654                           
 13655                           ;doprnt.c: 644: switch(c = *f++) {
 13656  0143A6  D057               	goto	l8206
 13657  0143A8                     l8188:
 13658                           
 13659                           ; BSR set to: 0
 13660                           ;doprnt.c: 743: _val._str._cp = (*(const char * *)__va_arg((*(const char * **)ap), (cons
      +                          t char *)0));
 13661  0143A8  C0D3  FFD9         	movff	sprintf@ap,fsr2l
 13662  0143AC  C0D4  FFDA         	movff	sprintf@ap+1,fsr2h
 13663  0143B0  0100               	movlb	0	; () banked
 13664  0143B2  CFDE F0D6          	movff	postinc2,sprintf@_val
 13665  0143B6  0100               	movlb	0	; () banked
 13666  0143B8  CFDD F0D7          	movff	postdec2,sprintf@_val+1
 13667                           
 13668                           ; BSR set to: 0
 13669  0143BC  0E02               	movlw	2
 13670  0143BE  0100               	movlb	0	; () banked
 13671  0143C0  0100               	movlb	0	; () banked
 13672  0143C2  27D3               	addwf	sprintf@ap& (0+255),f,b
 13673  0143C4  0E00               	movlw	0
 13674  0143C6  0100               	movlb	0	; () banked
 13675  0143C8  23D4               	addwfc	(sprintf@ap+1)& (0+255),f,b
 13676                           
 13677                           ; BSR set to: 0
 13678                           ;doprnt.c: 749: if(!_val._str._cp)
 13679  0143CA  0100               	movlb	0	; () banked
 13680  0143CC  0100               	movlb	0	; () banked
 13681  0143CE  51D7               	movf	(sprintf@_val+1)& (0+255),w,b
 13682  0143D0  11D6               	iorwf	sprintf@_val& (0+255),w,b
 13683  0143D2  A4D8               	btfss	status,2,c
 13684  0143D4  D029               	goto	l8202
 13685                           
 13686                           ; BSR set to: 0
 13687                           ;doprnt.c: 750: _val._str._cp = "(null)";
 13688  0143D6  0EFF               	movlw	high STR_124
 13689  0143D8  0100               	movlb	0	; () banked
 13690  0143DA  0100               	movlb	0	; () banked
 13691  0143DC  6FD7               	movwf	(sprintf@_val+1)& (0+255),b
 13692  0143DE  0EB7               	movlw	low STR_124
 13693  0143E0  0100               	movlb	0	; () banked
 13694  0143E2  0100               	movlb	0	; () banked
 13695  0143E4  6FD6               	movwf	sprintf@_val& (0+255),b
 13696  0143E6  D020               	goto	l8202
 13697  0143E8                     l8196:
 13698                           
 13699                           ;doprnt.c: 787: ((*sp++ = (*_val._str._cp++)));
 13700  0143E8  0100               	movlb	0	; () banked
 13701  0143EA  C0D6  FFF6         	movff	sprintf@_val,tblptrl
 13702  0143EE  0100               	movlb	0	; () banked
 13703  0143F0  C0D7  FFF7         	movff	sprintf@_val+1,tblptrh
 13704  0143F4  0E00               	movlw	low (__mediumconst shr (0+16))
 13705  0143F6  6EF8               	movwf	tblptru,c
 13706  0143F8  C0C8  FFD9         	movff	sprintf@sp,fsr2l
 13707  0143FC  C0C9  FFDA         	movff	sprintf@sp+1,fsr2h
 13708  014400  0E0E               	movlw	(high __ramtop+-1)
 13709  014402  64F7               	cpfsgt	tblptrh,c
 13710  014404  D003               	bra	u6957
 13711  014406  0008               	tblrd		*
 13712  014408  50F5               	movf	tablat,w,c
 13713  01440A  D005               	bra	u6950
 13714  01440C                     u6957:
 13715  01440C  CFF6 FFE9          	movff	tblptrl,fsr0l
 13716  014410  CFF7 FFEA          	movff	tblptrh,fsr0h
 13717  014414  50EF               	movf	indf0,w,c
 13718  014416                     u6950:
 13719  014416  6EDF               	movwf	indf2,c
 13720  014418  0100               	movlb	0	; () banked
 13721  01441A  0100               	movlb	0	; () banked
 13722  01441C  4BD6               	infsnz	sprintf@_val& (0+255),f,b
 13723  01441E  2BD7               	incf	(sprintf@_val+1)& (0+255),f,b
 13724                           
 13725                           ; BSR set to: 0
 13726  014420  0100               	movlb	0	; () banked
 13727  014422  0100               	movlb	0	; () banked
 13728  014424  4BC8               	infsnz	sprintf@sp& (0+255),f,b
 13729  014426  2BC9               	incf	(sprintf@sp+1)& (0+255),f,b
 13730  014428                     l8202:
 13731                           
 13732                           ; BSR set to: 0
 13733  014428  0100               	movlb	0	; () banked
 13734  01442A  C0D6  FFF6         	movff	sprintf@_val,tblptrl
 13735  01442E  0100               	movlb	0	; () banked
 13736  014430  C0D7  FFF7         	movff	sprintf@_val+1,tblptrh
 13737  014434  0E00               	movlw	low (__mediumconst shr (0+16))
 13738  014436  6EF8               	movwf	tblptru,c
 13739  014438  0E0E               	movlw	(high __ramtop+-1)
 13740  01443A  64F7               	cpfsgt	tblptrh,c
 13741  01443C  D003               	bra	u6967
 13742  01443E  0008               	tblrd		*
 13743  014440  50F5               	movf	tablat,w,c
 13744  014442  D005               	bra	u6960
 13745  014444                     u6967:
 13746  014444  CFF6 FFE9          	movff	tblptrl,fsr0l
 13747  014448  CFF7 FFEA          	movff	tblptrh,fsr0h
 13748  01444C  50EF               	movf	indf0,w,c
 13749  01444E                     u6960:
 13750  01444E  0900               	iorlw	0
 13751  014450  B4D8               	btfsc	status,2,c
 13752  014452  D020               	goto	l8208
 13753  014454  D7C9               	goto	l8196
 13754  014456                     l8206:
 13755  014456  0100               	movlb	0	; () banked
 13756  014458  0100               	movlb	0	; () banked
 13757  01445A  51CA               	movf	sprintf@f& (0+255),w,b
 13758  01445C  0100               	movlb	0	; () banked
 13759  01445E  6FD0               	movwf	??_sprintf& (0+255),b
 13760  014460  0100               	movlb	0	; () banked
 13761  014462  0100               	movlb	0	; () banked
 13762  014464  51CB               	movf	(sprintf@f+1)& (0+255),w,b
 13763  014466  0100               	movlb	0	; () banked
 13764  014468  6FD1               	movwf	(??_sprintf+1)& (0+255),b
 13765  01446A  0100               	movlb	0	; () banked
 13766  01446C  4BCA               	infsnz	sprintf@f& (0+255),f,b
 13767  01446E  2BCB               	incf	(sprintf@f+1)& (0+255),f,b
 13768  014470  C0D0  FFF6         	movff	??_sprintf,tblptrl
 13769  014474  C0D1  FFF7         	movff	??_sprintf+1,tblptrh
 13770  014478  0E00               	movlw	low (__mediumconst shr (0+16))
 13771  01447A  6EF8               	movwf	tblptru,c
 13772  01447C  0008               	tblrd		*
 13773  01447E  0100               	movlb	0	; () banked
 13774  014480  CFF5 F0D5          	movff	tablat,sprintf@c
 13775  014484  0100               	movlb	0	; () banked
 13776  014486  51D5               	movf	sprintf@c& (0+255),w,b
 13777                           
 13778                           ; Switch size 1, requested type "space"
 13779                           ; Number of cases is 2, Range of values is 0 to 115
 13780                           ; switch strategies available:
 13781                           ; Name         Instructions Cycles
 13782                           ; simple_byte            7     4 (average)
 13783                           ;	Chosen strategy is simple_byte
 13784  014488  0A00               	xorlw	0	; case 0
 13785  01448A  B4D8               	btfsc	status,2,c
 13786  01448C  D01D               	goto	l8210
 13787  01448E  0A73               	xorlw	115	; case 115
 13788  014490  B4D8               	btfsc	status,2,c
 13789  014492  D78A               	goto	l8188
 13790  014494                     l8208:
 13791  014494  0100               	movlb	0	; () banked
 13792  014496  0100               	movlb	0	; () banked
 13793  014498  51CA               	movf	sprintf@f& (0+255),w,b
 13794  01449A  0100               	movlb	0	; () banked
 13795  01449C  6FD0               	movwf	??_sprintf& (0+255),b
 13796  01449E  0100               	movlb	0	; () banked
 13797  0144A0  0100               	movlb	0	; () banked
 13798  0144A2  51CB               	movf	(sprintf@f+1)& (0+255),w,b
 13799  0144A4  0100               	movlb	0	; () banked
 13800  0144A6  6FD1               	movwf	(??_sprintf+1)& (0+255),b
 13801  0144A8  0100               	movlb	0	; () banked
 13802  0144AA  4BCA               	infsnz	sprintf@f& (0+255),f,b
 13803  0144AC  2BCB               	incf	(sprintf@f+1)& (0+255),f,b
 13804  0144AE  C0D0  FFF6         	movff	??_sprintf,tblptrl
 13805  0144B2  C0D1  FFF7         	movff	??_sprintf+1,tblptrh
 13806  0144B6  0E00               	movlw	low (__mediumconst shr (0+16))
 13807  0144B8  6EF8               	movwf	tblptru,c
 13808  0144BA  0008               	tblrd		*
 13809  0144BC  0100               	movlb	0	; () banked
 13810  0144BE  CFF5 F0D5          	movff	tablat,sprintf@c
 13811  0144C2  0100               	movlb	0	; () banked
 13812  0144C4  67D5               	tstfsz	sprintf@c& (0+255),b
 13813  0144C6  D755               	goto	l8180
 13814  0144C8                     l8210:
 13815                           
 13816                           ; BSR set to: 0
 13817                           ;doprnt.c: 1547: *sp = 0;
 13818  0144C8  C0C8  FFD9         	movff	sprintf@sp,fsr2l
 13819  0144CC  C0C9  FFDA         	movff	sprintf@sp+1,fsr2h
 13820  0144D0  0E00               	movlw	0
 13821  0144D2  6EDF               	movwf	indf2,c
 13822  0144D4  0012               	return	
 13823  0144D6                     __end_of_sprintf:
 13824                           	opt stack 0
 13825                           tblptru	equ	0xFF8
 13826                           tblptrh	equ	0xFF7
 13827                           tblptrl	equ	0xFF6
 13828                           tablat	equ	0xFF5
 13829                           prodl	equ	0xFF3
 13830                           intcon	equ	0xFF2
 13831                           intcon2	equ	0xFF1
 13832                           indf0	equ	0xFEF
 13833                           postinc0	equ	0xFEE
 13834                           fsr0h	equ	0xFEA
 13835                           fsr0l	equ	0xFE9
 13836                           wreg	equ	0xFE8
 13837                           indf1	equ	0xFE7
 13838                           postinc1	equ	0xFE6
 13839                           postdec1	equ	0xFE5
 13840                           fsr1h	equ	0xFE2
 13841                           fsr1l	equ	0xFE1
 13842                           indf2	equ	0xFDF
 13843                           postinc2	equ	0xFDE
 13844                           postdec2	equ	0xFDD
 13845                           fsr2h	equ	0xFDA
 13846                           fsr2l	equ	0xFD9
 13847                           status	equ	0xFD8
 13848                           
 13849 ;; *************** function _send_cr *****************
 13850 ;; Defined at:
 13851 ;;		line 5 in file "usart.c"
 13852 ;; Parameters:    Size  Location     Type
 13853 ;;		None
 13854 ;; Auto vars:     Size  Location     Type
 13855 ;;		None
 13856 ;; Return value:  Size  Location     Type
 13857 ;;		None               void
 13858 ;; Registers used:
 13859 ;;		wreg, cstack
 13860 ;; Tracked objects:
 13861 ;;		On entry : 0/0
 13862 ;;		On exit  : 0/0
 13863 ;;		Unchanged: 0/0
 13864 ;; Data sizes:     COMRAM   BANK0   BANK1   BANK2   BANK3   BANK4   BANK5   BANK6   BANK7   BANK8   BANK9  BANK10  BANK1
      +1  BANK12  BANK13  BANK14
 13865 ;;      Params:         0       0       0       0       0       0       0       0       0       0       0       0       
      +0       0       0       0
 13866 ;;      Locals:         0       0       0       0       0       0       0       0       0       0       0       0       
      +0       0       0       0
 13867 ;;      Temps:          0       0       0       0       0       0       0       0       0       0       0       0       
      +0       0       0       0
 13868 ;;      Totals:         0       0       0       0       0       0       0       0       0       0       0       0       
      +0       0       0       0
 13869 ;;Total ram usage:        0 bytes
 13870 ;; Hardware stack levels used:    1
 13871 ;; Hardware stack levels required when called:    4
 13872 ;; This function calls:
 13873 ;;		_Write2USART
 13874 ;; This function is called by:
 13875 ;;		_POST
 13876 ;;		_sendJsonDO
 13877 ;;		_startGSM
 13878 ;;		_GET
 13879 ;;		_CloseGSM
 13880 ;; This function uses a non-reentrant model
 13881 ;;
 13882                           
 13883                           	psect	text23
 13884  014FEE                     __ptext23:
 13885                           	opt stack 0
 13886  014FEE                     _send_cr:
 13887                           	opt stack 25
 13888  014FEE                     l1111:
 13889  014FEE  A2A8               	btfss	4008,1,c	;volatile
 13890  014FF0  D7FE               	goto	l1111
 13891                           
 13892                           ;usart.c: 8: Write2USART(0x0D);
 13893  014FF2  0E0D               	movlw	13
 13894  014FF4  ECED  F0A7         	call	_Write2USART
 13895  014FF8  0012               	return	
 13896  014FFA                     __end_of_send_cr:
 13897                           	opt stack 0
 13898                           tblptru	equ	0xFF8
 13899                           tblptrh	equ	0xFF7
 13900                           tblptrl	equ	0xFF6
 13901                           tablat	equ	0xFF5
 13902                           prodl	equ	0xFF3
 13903                           intcon	equ	0xFF2
 13904                           intcon2	equ	0xFF1
 13905                           indf0	equ	0xFEF
 13906                           postinc0	equ	0xFEE
 13907                           fsr0h	equ	0xFEA
 13908                           fsr0l	equ	0xFE9
 13909                           wreg	equ	0xFE8
 13910                           indf1	equ	0xFE7
 13911                           postinc1	equ	0xFE6
 13912                           postdec1	equ	0xFE5
 13913                           fsr1h	equ	0xFE2
 13914                           fsr1l	equ	0xFE1
 13915                           indf2	equ	0xFDF
 13916                           postinc2	equ	0xFDE
 13917                           postdec2	equ	0xFDD
 13918                           fsr2h	equ	0xFDA
 13919                           fsr2l	equ	0xFD9
 13920                           status	equ	0xFD8
 13921                           
 13922 ;; *************** function _Write2USART *****************
 13923 ;; Defined at:
 13924 ;;		line 15 in file "C:\Program Files (x86)\Microchip\xc8\v1.30\sources\pic18\plib\USART\u2write.c"
 13925 ;; Parameters:    Size  Location     Type
 13926 ;;  data            1    wreg     unsigned char 
 13927 ;; Auto vars:     Size  Location     Type
 13928 ;;  data            1    0[BANK0 ] unsigned char 
 13929 ;; Return value:  Size  Location     Type
 13930 ;;		None               void
 13931 ;; Registers used:
 13932 ;;		wreg
 13933 ;; Tracked objects:
 13934 ;;		On entry : 0/0
 13935 ;;		On exit  : 0/0
 13936 ;;		Unchanged: 0/0
 13937 ;; Data sizes:     COMRAM   BANK0   BANK1   BANK2   BANK3   BANK4   BANK5   BANK6   BANK7   BANK8   BANK9  BANK10  BANK1
      +1  BANK12  BANK13  BANK14
 13938 ;;      Params:         0       0       0       0       0       0       0       0       0       0       0       0       
      +0       0       0       0
 13939 ;;      Locals:         0       1       0       0       0       0       0       0       0       0       0       0       
      +0       0       0       0
 13940 ;;      Temps:          0       0       0       0       0       0       0       0       0       0       0       0       
      +0       0       0       0
 13941 ;;      Totals:         0       1       0       0       0       0       0       0       0       0       0       0       
      +0       0       0       0
 13942 ;;Total ram usage:        1 bytes
 13943 ;; Hardware stack levels used:    1
 13944 ;; Hardware stack levels required when called:    3
 13945 ;; This function calls:
 13946 ;;		Nothing
 13947 ;; This function is called by:
 13948 ;;		_send_cr
 13949 ;;		_send_char2USART
 13950 ;;		_writeUsart2
 13951 ;; This function uses a non-reentrant model
 13952 ;;
 13953                           
 13954                           	psect	text24
 13955  014FDA                     __ptext24:
 13956                           	opt stack 0
 13957  014FDA                     _Write2USART:
 13958                           	opt stack 25
 13959                           
 13960                           ;incstack = 0
 13961                           ;Write2USART@data stored from wreg
 13962  014FDA  CFE8 F0C2          	movff	wreg,Write2USART@data
 13963  014FDE  ACA8               	btfss	4008,6,c	;volatile
 13964  014FE0  D003               	goto	l8308
 13965  014FE2  90A8               	bcf	4008,0,c	;volatile
 13966  014FE4  B230               	btfsc	_USART2_Status,1,c
 13967  014FE6  80A8               	bsf	4008,0,c	;volatile
 13968  014FE8                     l8308:
 13969  014FE8  C0C2  FFA9         	movff	Write2USART@data,4009	;volatile
 13970  014FEC  0012               	return	
 13971  014FEE                     __end_of_Write2USART:
 13972                           	opt stack 0
 13973                           tblptru	equ	0xFF8
 13974                           tblptrh	equ	0xFF7
 13975                           tblptrl	equ	0xFF6
 13976                           tablat	equ	0xFF5
 13977                           prodl	equ	0xFF3
 13978                           intcon	equ	0xFF2
 13979                           intcon2	equ	0xFF1
 13980                           indf0	equ	0xFEF
 13981                           postinc0	equ	0xFEE
 13982                           fsr0h	equ	0xFEA
 13983                           fsr0l	equ	0xFE9
 13984                           wreg	equ	0xFE8
 13985                           indf1	equ	0xFE7
 13986                           postinc1	equ	0xFE6
 13987                           postdec1	equ	0xFE5
 13988                           fsr1h	equ	0xFE2
 13989                           fsr1l	equ	0xFE1
 13990                           indf2	equ	0xFDF
 13991                           postinc2	equ	0xFDE
 13992                           postdec2	equ	0xFDD
 13993                           fsr2h	equ	0xFDA
 13994                           fsr2l	equ	0xFD9
 13995                           status	equ	0xFD8
 13996                           
 13997 ;; *************** function _itoa *****************
 13998 ;; Defined at:
 13999 ;;		line 4 in file "C:\Program Files (x86)\Microchip\xc8\v1.30\sources\common\itoa.c"
 14000 ;; Parameters:    Size  Location     Type
 14001 ;;  buf             2   17[BANK0 ] PTR unsigned char 
 14002 ;;		 -> STrLengh@bufferTEMPO(10), POST@STrLenghC(4), 
 14003 ;;  val             2   19[BANK0 ] int 
 14004 ;;  base            2   21[BANK0 ] int 
 14005 ;; Auto vars:     Size  Location     Type
 14006 ;;  cp              2   23[BANK0 ] PTR unsigned char 
 14007 ;;		 -> STrLengh@bufferTEMPO(10), POST@STrLenghC(4), 
 14008 ;; Return value:  Size  Location     Type
 14009 ;;                  2   17[BANK0 ] PTR unsigned char 
 14010 ;; Registers used:
 14011 ;;		wreg, fsr2l, fsr2h, status,2, status,0, prodl, cstack
 14012 ;; Tracked objects:
 14013 ;;		On entry : 0/0
 14014 ;;		On exit  : 0/0
 14015 ;;		Unchanged: 0/0
 14016 ;; Data sizes:     COMRAM   BANK0   BANK1   BANK2   BANK3   BANK4   BANK5   BANK6   BANK7   BANK8   BANK9  BANK10  BANK1
      +1  BANK12  BANK13  BANK14
 14017 ;;      Params:         0       6       0       0       0       0       0       0       0       0       0       0       
      +0       0       0       0
 14018 ;;      Locals:         0       2       0       0       0       0       0       0       0       0       0       0       
      +0       0       0       0
 14019 ;;      Temps:          0       0       0       0       0       0       0       0       0       0       0       0       
      +0       0       0       0
 14020 ;;      Totals:         0       8       0       0       0       0       0       0       0       0       0       0       
      +0       0       0       0
 14021 ;;Total ram usage:        8 bytes
 14022 ;; Hardware stack levels used:    1
 14023 ;; Hardware stack levels required when called:    5
 14024 ;; This function calls:
 14025 ;;		_utoa
 14026 ;; This function is called by:
 14027 ;;		_POST
 14028 ;;		_STrLengh
 14029 ;; This function uses a non-reentrant model
 14030 ;;
 14031                           
 14032                           	psect	text25
 14033  014D62                     __ptext25:
 14034                           	opt stack 0
 14035  014D62                     _itoa:
 14036                           	opt stack 24
 14037                           
 14038                           ;incstack = 0
 14039  014D62  0100               	movlb	0	; () banked
 14040  014D64  0100               	movlb	0	; () banked
 14041  014D66  C0D4  F0DA         	movff	itoa@buf+1,itoa@cp+1
 14042  014D6A  0100               	movlb	0	; () banked
 14043  014D6C  0100               	movlb	0	; () banked
 14044  014D6E  C0D3  F0D9         	movff	itoa@buf,itoa@cp
 14045                           
 14046                           ; BSR set to: 0
 14047  014D72  0100               	movlb	0	; () banked
 14048  014D74  0100               	movlb	0	; () banked
 14049  014D76  51D6               	movf	(itoa@val+1)& (0+255),w,b
 14050  014D78  0A80               	xorlw	128
 14051  014D7A  6EF3               	movwf	prodl,c
 14052  014D7C  0E80               	movlw	128
 14053  014D7E  5CF3               	subwf	prodl,w,c
 14054  014D80  0E00               	movlw	0
 14055  014D82  B4D8               	btfsc	status,2,c
 14056  014D84  5DD5               	subwf	itoa@val& (0+255),w,b
 14057  014D86  B0D8               	btfsc	status,0,c
 14058  014D88  D011               	goto	l8170
 14059                           
 14060                           ; BSR set to: 0
 14061  014D8A  C0D3  FFD9         	movff	itoa@buf,fsr2l
 14062  014D8E  C0D4  FFDA         	movff	itoa@buf+1,fsr2h
 14063  014D92  0E2D               	movlw	45
 14064  014D94  6EDF               	movwf	indf2,c
 14065                           
 14066                           ; BSR set to: 0
 14067  014D96  0100               	movlb	0	; () banked
 14068  014D98  0100               	movlb	0	; () banked
 14069  014D9A  4BD3               	infsnz	itoa@buf& (0+255),f,b
 14070  014D9C  2BD4               	incf	(itoa@buf+1)& (0+255),f,b
 14071                           
 14072                           ; BSR set to: 0
 14073  014D9E  0100               	movlb	0	; () banked
 14074  014DA0  0100               	movlb	0	; () banked
 14075  014DA2  6DD5               	negf	itoa@val& (0+255),b
 14076  014DA4  0100               	movlb	0	; () banked
 14077  014DA6  1FD6               	comf	(itoa@val+1)& (0+255),f,b
 14078  014DA8  B0D8               	btfsc	status,0,c
 14079  014DAA  2BD6               	incf	(itoa@val+1)& (0+255),f,b
 14080  014DAC                     l8170:
 14081                           
 14082                           ; BSR set to: 0
 14083  014DAC  0100               	movlb	0	; () banked
 14084  014DAE  0100               	movlb	0	; () banked
 14085  014DB0  C0D4  F0CB         	movff	itoa@buf+1,utoa@buf+1
 14086  014DB4  0100               	movlb	0	; () banked
 14087  014DB6  0100               	movlb	0	; () banked
 14088  014DB8  C0D3  F0CA         	movff	itoa@buf,utoa@buf
 14089  014DBC  C0D5  F0CC         	movff	itoa@val,utoa@val
 14090  014DC0  C0D6  F0CD         	movff	itoa@val+1,utoa@val+1
 14091  014DC4  C0D7  F0CE         	movff	itoa@base,utoa@base
 14092  014DC8  C0D8  F0CF         	movff	itoa@base+1,utoa@base+1
 14093  014DCC  EC6A  F0A3         	call	_utoa	;wreg free
 14094  014DD0  0012               	return	
 14095  014DD2                     __end_of_itoa:
 14096                           	opt stack 0
 14097                           tblptru	equ	0xFF8
 14098                           tblptrh	equ	0xFF7
 14099                           tblptrl	equ	0xFF6
 14100                           tablat	equ	0xFF5
 14101                           prodl	equ	0xFF3
 14102                           intcon	equ	0xFF2
 14103                           intcon2	equ	0xFF1
 14104                           indf0	equ	0xFEF
 14105                           postinc0	equ	0xFEE
 14106                           fsr0h	equ	0xFEA
 14107                           fsr0l	equ	0xFE9
 14108                           wreg	equ	0xFE8
 14109                           indf1	equ	0xFE7
 14110                           postinc1	equ	0xFE6
 14111                           postdec1	equ	0xFE5
 14112                           fsr1h	equ	0xFE2
 14113                           fsr1l	equ	0xFE1
 14114                           indf2	equ	0xFDF
 14115                           postinc2	equ	0xFDE
 14116                           postdec2	equ	0xFDD
 14117                           fsr2h	equ	0xFDA
 14118                           fsr2l	equ	0xFD9
 14119                           status	equ	0xFD8
 14120                           
 14121 ;; *************** function _utoa *****************
 14122 ;; Defined at:
 14123 ;;		line 17 in file "C:\Program Files (x86)\Microchip\xc8\v1.30\sources\common\itoa.c"
 14124 ;; Parameters:    Size  Location     Type
 14125 ;;  buf             2    8[BANK0 ] PTR unsigned char 
 14126 ;;		 -> STrLengh@bufferTEMPO(10), POST@STrLenghC(4), 
 14127 ;;  val             2   10[BANK0 ] unsigned int 
 14128 ;;  base            2   12[BANK0 ] int 
 14129 ;; Auto vars:     Size  Location     Type
 14130 ;;  v               2   14[BANK0 ] unsigned int 
 14131 ;;  c               1   16[BANK0 ] unsigned char 
 14132 ;; Return value:  Size  Location     Type
 14133 ;;                  2    8[BANK0 ] PTR unsigned char 
 14134 ;; Registers used:
 14135 ;;		wreg, fsr2l, fsr2h, status,2, status,0, cstack
 14136 ;; Tracked objects:
 14137 ;;		On entry : 0/0
 14138 ;;		On exit  : 0/0
 14139 ;;		Unchanged: 0/0
 14140 ;; Data sizes:     COMRAM   BANK0   BANK1   BANK2   BANK3   BANK4   BANK5   BANK6   BANK7   BANK8   BANK9  BANK10  BANK1
      +1  BANK12  BANK13  BANK14
 14141 ;;      Params:         0       6       0       0       0       0       0       0       0       0       0       0       
      +0       0       0       0
 14142 ;;      Locals:         0       3       0       0       0       0       0       0       0       0       0       0       
      +0       0       0       0
 14143 ;;      Temps:          0       0       0       0       0       0       0       0       0       0       0       0       
      +0       0       0       0
 14144 ;;      Totals:         0       9       0       0       0       0       0       0       0       0       0       0       
      +0       0       0       0
 14145 ;;Total ram usage:        9 bytes
 14146 ;; Hardware stack levels used:    1
 14147 ;; Hardware stack levels required when called:    4
 14148 ;; This function calls:
 14149 ;;		___lwdiv
 14150 ;;		___lwmod
 14151 ;; This function is called by:
 14152 ;;		_itoa
 14153 ;; This function uses a non-reentrant model
 14154 ;;
 14155                           
 14156                           	psect	text26
 14157  0146D4                     __ptext26:
 14158                           	opt stack 0
 14159  0146D4                     _utoa:
 14160                           	opt stack 24
 14161                           
 14162                           ;incstack = 0
 14163  0146D4  C0CC  F0D0         	movff	utoa@val,utoa@v
 14164  0146D8  C0CD  F0D1         	movff	utoa@val+1,utoa@v+1
 14165  0146DC                     l8324:
 14166  0146DC  C0D0  F0C2         	movff	utoa@v,___lwdiv@dividend
 14167  0146E0  C0D1  F0C3         	movff	utoa@v+1,___lwdiv@dividend+1
 14168  0146E4  C0CE  F0C4         	movff	utoa@base,___lwdiv@divisor
 14169  0146E8  C0CF  F0C5         	movff	utoa@base+1,___lwdiv@divisor+1
 14170  0146EC  ECA0  F0A4         	call	___lwdiv	;wreg free
 14171  0146F0  0100               	movlb	0	; () banked
 14172  0146F2  C0C2  F0D0         	movff	?___lwdiv,utoa@v
 14173  0146F6  0100               	movlb	0	; () banked
 14174  0146F8  C0C3  F0D1         	movff	?___lwdiv+1,utoa@v+1
 14175                           
 14176                           ; BSR set to: 0
 14177  0146FC  0100               	movlb	0	; () banked
 14178  0146FE  0100               	movlb	0	; () banked
 14179  014700  4BCA               	infsnz	utoa@buf& (0+255),f,b
 14180  014702  2BCB               	incf	(utoa@buf+1)& (0+255),f,b
 14181                           
 14182                           ; BSR set to: 0
 14183  014704  0100               	movlb	0	; () banked
 14184  014706  0100               	movlb	0	; () banked
 14185  014708  51D1               	movf	(utoa@v+1)& (0+255),w,b
 14186  01470A  11D0               	iorwf	utoa@v& (0+255),w,b
 14187  01470C  A4D8               	btfss	status,2,c
 14188  01470E  D7E6               	goto	l8324
 14189                           
 14190                           ; BSR set to: 0
 14191                           
 14192                           ; BSR set to: 0
 14193  014710  C0CA  FFD9         	movff	utoa@buf,fsr2l
 14194  014714  C0CB  FFDA         	movff	utoa@buf+1,fsr2h
 14195  014718  0E00               	movlw	0
 14196  01471A  6EDF               	movwf	indf2,c
 14197                           
 14198                           ; BSR set to: 0
 14199  01471C  0100               	movlb	0	; () banked
 14200  01471E  0100               	movlb	0	; () banked
 14201  014720  07CA               	decf	utoa@buf& (0+255),f,b
 14202  014722  A0D8               	btfss	status,0,c
 14203  014724  07CB               	decf	(utoa@buf+1)& (0+255),f,b
 14204  014726                     l8334:
 14205                           
 14206                           ; BSR set to: 0
 14207  014726  C0CC  F0C2         	movff	utoa@val,___lwmod@dividend
 14208  01472A  C0CD  F0C3         	movff	utoa@val+1,___lwmod@dividend+1
 14209  01472E  C0CE  F0C4         	movff	utoa@base,___lwmod@divisor
 14210  014732  C0CF  F0C5         	movff	utoa@base+1,___lwmod@divisor+1
 14211  014736  ECF5  F0A4         	call	___lwmod	;wreg free
 14212  01473A  0100               	movlb	0	; () banked
 14213  01473C  0100               	movlb	0	; () banked
 14214  01473E  51C2               	movf	?___lwmod& (0+255),w,b
 14215  014740  0100               	movlb	0	; () banked
 14216  014742  0100               	movlb	0	; () banked
 14217  014744  6FD2               	movwf	utoa@c& (0+255),b
 14218                           
 14219                           ; BSR set to: 0
 14220  014746  C0CC  F0C2         	movff	utoa@val,___lwdiv@dividend
 14221  01474A  C0CD  F0C3         	movff	utoa@val+1,___lwdiv@dividend+1
 14222  01474E  C0CE  F0C4         	movff	utoa@base,___lwdiv@divisor
 14223  014752  C0CF  F0C5         	movff	utoa@base+1,___lwdiv@divisor+1
 14224  014756  ECA0  F0A4         	call	___lwdiv	;wreg free
 14225  01475A  0100               	movlb	0	; () banked
 14226  01475C  C0C2  F0CC         	movff	?___lwdiv,utoa@val
 14227  014760  0100               	movlb	0	; () banked
 14228  014762  C0C3  F0CD         	movff	?___lwdiv+1,utoa@val+1
 14229                           
 14230                           ; BSR set to: 0
 14231  014766  0E09               	movlw	9
 14232  014768  0100               	movlb	0	; () banked
 14233  01476A  0100               	movlb	0	; () banked
 14234  01476C  65D2               	cpfsgt	utoa@c& (0+255),b
 14235  01476E  D004               	goto	l1730
 14236                           
 14237                           ; BSR set to: 0
 14238  014770  0E07               	movlw	7
 14239  014772  0100               	movlb	0	; () banked
 14240  014774  0100               	movlb	0	; () banked
 14241  014776  27D2               	addwf	utoa@c& (0+255),f,b
 14242  014778                     l1730:
 14243                           
 14244                           ; BSR set to: 0
 14245  014778  0E30               	movlw	48
 14246  01477A  0100               	movlb	0	; () banked
 14247  01477C  0100               	movlb	0	; () banked
 14248  01477E  27D2               	addwf	utoa@c& (0+255),f,b
 14249                           
 14250                           ; BSR set to: 0
 14251  014780  C0CA  FFD9         	movff	utoa@buf,fsr2l
 14252  014784  C0CB  FFDA         	movff	utoa@buf+1,fsr2h
 14253  014788  0100               	movlb	0	; () banked
 14254  01478A  C0D2  FFDF         	movff	utoa@c,indf2
 14255                           
 14256                           ; BSR set to: 0
 14257  01478E  0100               	movlb	0	; () banked
 14258  014790  0100               	movlb	0	; () banked
 14259  014792  07CA               	decf	utoa@buf& (0+255),f,b
 14260  014794  A0D8               	btfss	status,0,c
 14261  014796  07CB               	decf	(utoa@buf+1)& (0+255),f,b
 14262                           
 14263                           ; BSR set to: 0
 14264  014798  0100               	movlb	0	; () banked
 14265  01479A  0100               	movlb	0	; () banked
 14266  01479C  51CD               	movf	(utoa@val+1)& (0+255),w,b
 14267  01479E  11CC               	iorwf	utoa@val& (0+255),w,b
 14268  0147A0  A4D8               	btfss	status,2,c
 14269  0147A2  D7C1               	goto	l8334
 14270                           
 14271                           ; BSR set to: 0
 14272                           ;	Return value of _utoa is never used
 14273                           
 14274                           ; BSR set to: 0
 14275  0147A4  0100               	movlb	0	; () banked
 14276  0147A6  0100               	movlb	0	; () banked
 14277  0147A8  4BCA               	infsnz	utoa@buf& (0+255),f,b
 14278  0147AA  2BCB               	incf	(utoa@buf+1)& (0+255),f,b
 14279  0147AC  0012               	return	
 14280  0147AE                     __end_of_utoa:
 14281                           	opt stack 0
 14282                           tblptru	equ	0xFF8
 14283                           tblptrh	equ	0xFF7
 14284                           tblptrl	equ	0xFF6
 14285                           tablat	equ	0xFF5
 14286                           prodl	equ	0xFF3
 14287                           intcon	equ	0xFF2
 14288                           intcon2	equ	0xFF1
 14289                           indf0	equ	0xFEF
 14290                           postinc0	equ	0xFEE
 14291                           fsr0h	equ	0xFEA
 14292                           fsr0l	equ	0xFE9
 14293                           wreg	equ	0xFE8
 14294                           indf1	equ	0xFE7
 14295                           postinc1	equ	0xFE6
 14296                           postdec1	equ	0xFE5
 14297                           fsr1h	equ	0xFE2
 14298                           fsr1l	equ	0xFE1
 14299                           indf2	equ	0xFDF
 14300                           postinc2	equ	0xFDE
 14301                           postdec2	equ	0xFDD
 14302                           fsr2h	equ	0xFDA
 14303                           fsr2l	equ	0xFD9
 14304                           status	equ	0xFD8
 14305                           
 14306 ;; *************** function ___lwmod *****************
 14307 ;; Defined at:
 14308 ;;		line 8 in file "C:\Program Files (x86)\Microchip\xc8\v1.30\sources\common\lwmod.c"
 14309 ;; Parameters:    Size  Location     Type
 14310 ;;  dividend        2    0[BANK0 ] unsigned int 
 14311 ;;  divisor         2    2[BANK0 ] unsigned int 
 14312 ;; Auto vars:     Size  Location     Type
 14313 ;;  counter         1    5[BANK0 ] unsigned char 
 14314 ;; Return value:  Size  Location     Type
 14315 ;;                  2    0[BANK0 ] unsigned int 
 14316 ;; Registers used:
 14317 ;;		wreg, status,2, status,0
 14318 ;; Tracked objects:
 14319 ;;		On entry : 0/0
 14320 ;;		On exit  : 0/0
 14321 ;;		Unchanged: 0/0
 14322 ;; Data sizes:     COMRAM   BANK0   BANK1   BANK2   BANK3   BANK4   BANK5   BANK6   BANK7   BANK8   BANK9  BANK10  BANK1
      +1  BANK12  BANK13  BANK14
 14323 ;;      Params:         0       4       0       0       0       0       0       0       0       0       0       0       
      +0       0       0       0
 14324 ;;      Locals:         0       1       0       0       0       0       0       0       0       0       0       0       
      +0       0       0       0
 14325 ;;      Temps:          0       1       0       0       0       0       0       0       0       0       0       0       
      +0       0       0       0
 14326 ;;      Totals:         0       6       0       0       0       0       0       0       0       0       0       0       
      +0       0       0       0
 14327 ;;Total ram usage:        6 bytes
 14328 ;; Hardware stack levels used:    1
 14329 ;; Hardware stack levels required when called:    3
 14330 ;; This function calls:
 14331 ;;		Nothing
 14332 ;; This function is called by:
 14333 ;;		_utoa
 14334 ;; This function uses a non-reentrant model
 14335 ;;
 14336                           
 14337                           	psect	text27
 14338  0149EA                     __ptext27:
 14339                           	opt stack 0
 14340  0149EA                     ___lwmod:
 14341                           	opt stack 24
 14342                           
 14343                           ; BSR set to: 0
 14344                           ;incstack = 0
 14345  0149EA  0100               	movlb	0	; () banked
 14346  0149EC  0100               	movlb	0	; () banked
 14347  0149EE  51C5               	movf	(___lwmod@divisor+1)& (0+255),w,b
 14348  0149F0  11C4               	iorwf	___lwmod@divisor& (0+255),w,b
 14349  0149F2  B4D8               	btfsc	status,2,c
 14350  0149F4  D03A               	goto	l1840
 14351                           
 14352                           ; BSR set to: 0
 14353  0149F6  0100               	movlb	0	; () banked
 14354  0149F8  6FC6               	movwf	??___lwmod& (0+255),b
 14355  0149FA  0E01               	movlw	1
 14356  0149FC  0100               	movlb	0	; () banked
 14357  0149FE  0100               	movlb	0	; () banked
 14358  014A00  6FC7               	movwf	___lwmod@counter& (0+255),b
 14359  014A02  0100               	movlb	0	; () banked
 14360  014A04  51C6               	movf	??___lwmod& (0+255),w,b
 14361  014A06  D009               	goto	l8380
 14362  014A08                     l8378:
 14363                           
 14364                           ; BSR set to: 0
 14365  014A08  0100               	movlb	0	; () banked
 14366  014A0A  0100               	movlb	0	; () banked
 14367  014A0C  0100               	movlb	0	; () banked
 14368  014A0E  90D8               	bcf	status,0,c
 14369  014A10  37C4               	rlcf	___lwmod@divisor& (0+255),f,b
 14370  014A12  37C5               	rlcf	(___lwmod@divisor+1)& (0+255),f,b
 14371  014A14  0100               	movlb	0	; () banked
 14372  014A16  0100               	movlb	0	; () banked
 14373  014A18  2BC7               	incf	___lwmod@counter& (0+255),f,b
 14374  014A1A                     l8380:
 14375                           
 14376                           ; BSR set to: 0
 14377  014A1A  0100               	movlb	0	; () banked
 14378  014A1C  0100               	movlb	0	; () banked
 14379  014A1E  AFC5               	btfss	(___lwmod@divisor+1)& (0+255),7,b
 14380  014A20  D7F3               	goto	l8378
 14381  014A22                     l8382:
 14382                           
 14383                           ; BSR set to: 0
 14384  014A22  0100               	movlb	0	; () banked
 14385  014A24  0100               	movlb	0	; () banked
 14386  014A26  51C4               	movf	___lwmod@divisor& (0+255),w,b
 14387  014A28  0100               	movlb	0	; () banked
 14388  014A2A  0100               	movlb	0	; () banked
 14389  014A2C  5DC2               	subwf	___lwmod@dividend& (0+255),w,b
 14390  014A2E  0100               	movlb	0	; () banked
 14391  014A30  0100               	movlb	0	; () banked
 14392  014A32  51C5               	movf	(___lwmod@divisor+1)& (0+255),w,b
 14393  014A34  0100               	movlb	0	; () banked
 14394  014A36  0100               	movlb	0	; () banked
 14395  014A38  59C3               	subwfb	(___lwmod@dividend+1)& (0+255),w,b
 14396  014A3A  A0D8               	btfss	status,0,c
 14397  014A3C  D00C               	goto	l8386
 14398                           
 14399                           ; BSR set to: 0
 14400  014A3E  0100               	movlb	0	; () banked
 14401  014A40  0100               	movlb	0	; () banked
 14402  014A42  51C4               	movf	___lwmod@divisor& (0+255),w,b
 14403  014A44  0100               	movlb	0	; () banked
 14404  014A46  0100               	movlb	0	; () banked
 14405  014A48  5FC2               	subwf	___lwmod@dividend& (0+255),f,b
 14406  014A4A  0100               	movlb	0	; () banked
 14407  014A4C  0100               	movlb	0	; () banked
 14408  014A4E  51C5               	movf	(___lwmod@divisor+1)& (0+255),w,b
 14409  014A50  0100               	movlb	0	; () banked
 14410  014A52  0100               	movlb	0	; () banked
 14411  014A54  5BC3               	subwfb	(___lwmod@dividend+1)& (0+255),f,b
 14412  014A56                     l8386:
 14413                           
 14414                           ; BSR set to: 0
 14415  014A56  0100               	movlb	0	; () banked
 14416  014A58  0100               	movlb	0	; () banked
 14417  014A5A  0100               	movlb	0	; () banked
 14418  014A5C  90D8               	bcf	status,0,c
 14419  014A5E  33C5               	rrcf	(___lwmod@divisor+1)& (0+255),f,b
 14420  014A60  33C4               	rrcf	___lwmod@divisor& (0+255),f,b
 14421                           
 14422                           ; BSR set to: 0
 14423  014A62  0100               	movlb	0	; () banked
 14424  014A64  0100               	movlb	0	; () banked
 14425  014A66  2FC7               	decfsz	___lwmod@counter& (0+255),f,b
 14426  014A68  D7DC               	goto	l8382
 14427  014A6A                     l1840:
 14428                           
 14429                           ; BSR set to: 0
 14430  014A6A  C0C2  F0C2         	movff	___lwmod@dividend,?___lwmod
 14431  014A6E  C0C3  F0C3         	movff	___lwmod@dividend+1,?___lwmod+1
 14432                           
 14433                           ; BSR set to: 0
 14434  014A72  0012               	return	
 14435  014A74                     __end_of___lwmod:
 14436                           	opt stack 0
 14437                           tblptru	equ	0xFF8
 14438                           tblptrh	equ	0xFF7
 14439                           tblptrl	equ	0xFF6
 14440                           tablat	equ	0xFF5
 14441                           prodl	equ	0xFF3
 14442                           intcon	equ	0xFF2
 14443                           intcon2	equ	0xFF1
 14444                           indf0	equ	0xFEF
 14445                           postinc0	equ	0xFEE
 14446                           fsr0h	equ	0xFEA
 14447                           fsr0l	equ	0xFE9
 14448                           wreg	equ	0xFE8
 14449                           indf1	equ	0xFE7
 14450                           postinc1	equ	0xFE6
 14451                           postdec1	equ	0xFE5
 14452                           fsr1h	equ	0xFE2
 14453                           fsr1l	equ	0xFE1
 14454                           indf2	equ	0xFDF
 14455                           postinc2	equ	0xFDE
 14456                           postdec2	equ	0xFDD
 14457                           fsr2h	equ	0xFDA
 14458                           fsr2l	equ	0xFD9
 14459                           status	equ	0xFD8
 14460                           
 14461 ;; *************** function _commun_delaiMS *****************
 14462 ;; Defined at:
 14463 ;;		line 35 in file "commun.c"
 14464 ;; Parameters:    Size  Location     Type
 14465 ;;  ms              2    8[BANK0 ] unsigned int 
 14466 ;; Auto vars:     Size  Location     Type
 14467 ;;  i               2   11[BANK0 ] unsigned int 
 14468 ;; Return value:  Size  Location     Type
 14469 ;;		None               void
 14470 ;; Registers used:
 14471 ;;		wreg, status,2, status,0, cstack
 14472 ;; Tracked objects:
 14473 ;;		On entry : 0/0
 14474 ;;		On exit  : 0/0
 14475 ;;		Unchanged: 0/0
 14476 ;; Data sizes:     COMRAM   BANK0   BANK1   BANK2   BANK3   BANK4   BANK5   BANK6   BANK7   BANK8   BANK9  BANK10  BANK1
      +1  BANK12  BANK13  BANK14
 14477 ;;      Params:         0       2       0       0       0       0       0       0       0       0       0       0       
      +0       0       0       0
 14478 ;;      Locals:         0       2       0       0       0       0       0       0       0       0       0       0       
      +0       0       0       0
 14479 ;;      Temps:          0       1       0       0       0       0       0       0       0       0       0       0       
      +0       0       0       0
 14480 ;;      Totals:         0       5       0       0       0       0       0       0       0       0       0       0       
      +0       0       0       0
 14481 ;;Total ram usage:        5 bytes
 14482 ;; Hardware stack levels used:    1
 14483 ;; Hardware stack levels required when called:    4
 14484 ;; This function calls:
 14485 ;;		___lwdiv
 14486 ;; This function is called by:
 14487 ;;		_sendGSM
 14488 ;;		_POST
 14489 ;;		_startGSM
 14490 ;; This function uses a non-reentrant model
 14491 ;;
 14492                           
 14493                           	psect	text28
 14494  014E34                     __ptext28:
 14495                           	opt stack 0
 14496  014E34                     _commun_delaiMS:
 14497                           	opt stack 25
 14498                           
 14499                           ;commun.c: 37: unsigned i;
 14500                           ;commun.c: 39: for(i=0;i< (ms/10);i++)
 14501                           
 14502                           ; BSR set to: 0
 14503                           ;incstack = 0
 14504  014E34  0E00               	movlw	0
 14505  014E36  0100               	movlb	0	; () banked
 14506  014E38  0100               	movlb	0	; () banked
 14507  014E3A  6FCE               	movwf	(commun_delaiMS@i+1)& (0+255),b
 14508  014E3C  0E00               	movlw	0
 14509  014E3E  0100               	movlb	0	; () banked
 14510  014E40  6FCD               	movwf	commun_delaiMS@i& (0+255),b
 14511  014E42  D00C               	goto	l6710
 14512  014E44                     l6706:
 14513                           
 14514                           ; BSR set to: 0
 14515                           ;commun.c: 40: _delay((unsigned long)((10)*(4000000/4000.0)));
 14516  014E44  0E0D               	movlw	13
 14517  014E46  0100               	movlb	0	; () banked
 14518  014E48  6FCC               	movwf	??_commun_delaiMS& (0+255),b
 14519  014E4A  0EFC               	movlw	252
 14520  014E4C                     u7257:
 14521  014E4C  2EE8               	decfsz	wreg,f,c
 14522  014E4E  D7FE               	goto	u7257
 14523  014E50  2FCC               	decfsz	??_commun_delaiMS& (0+255),f,b
 14524  014E52  D7FC               	goto	u7257
 14525  014E54  0100               	movlb	0	; () banked
 14526  014E56  0100               	movlb	0	; () banked
 14527  014E58  4BCD               	infsnz	commun_delaiMS@i& (0+255),f,b
 14528  014E5A  2BCE               	incf	(commun_delaiMS@i+1)& (0+255),f,b
 14529  014E5C                     l6710:
 14530                           
 14531                           ; BSR set to: 0
 14532  014E5C  C0CA  F0C2         	movff	commun_delaiMS@ms,___lwdiv@dividend
 14533  014E60  C0CB  F0C3         	movff	commun_delaiMS@ms+1,___lwdiv@dividend+1
 14534  014E64  0E00               	movlw	0
 14535  014E66  0100               	movlb	0	; () banked
 14536  014E68  0100               	movlb	0	; () banked
 14537  014E6A  6FC5               	movwf	(___lwdiv@divisor+1)& (0+255),b
 14538  014E6C  0E0A               	movlw	10
 14539  014E6E  0100               	movlb	0	; () banked
 14540  014E70  6FC4               	movwf	___lwdiv@divisor& (0+255),b
 14541  014E72  ECA0  F0A4         	call	___lwdiv	;wreg free
 14542  014E76  0100               	movlb	0	; () banked
 14543  014E78  0100               	movlb	0	; () banked
 14544  014E7A  51C2               	movf	?___lwdiv& (0+255),w,b
 14545  014E7C  0100               	movlb	0	; () banked
 14546  014E7E  0100               	movlb	0	; () banked
 14547  014E80  5DCD               	subwf	commun_delaiMS@i& (0+255),w,b
 14548  014E82  0100               	movlb	0	; () banked
 14549  014E84  0100               	movlb	0	; () banked
 14550  014E86  51C3               	movf	(?___lwdiv+1)& (0+255),w,b
 14551  014E88  0100               	movlb	0	; () banked
 14552  014E8A  0100               	movlb	0	; () banked
 14553  014E8C  59CE               	subwfb	(commun_delaiMS@i+1)& (0+255),w,b
 14554  014E8E  B0D8               	btfsc	status,0,c
 14555                           
 14556                           ; BSR set to: 0
 14557                           
 14558                           ; BSR set to: 0
 14559  014E90  0012               	return	
 14560  014E92  D7D8               	goto	l6706
 14561  014E94                     __end_of_commun_delaiMS:
 14562                           	opt stack 0
 14563                           tblptru	equ	0xFF8
 14564                           tblptrh	equ	0xFF7
 14565                           tblptrl	equ	0xFF6
 14566                           tablat	equ	0xFF5
 14567                           prodl	equ	0xFF3
 14568                           intcon	equ	0xFF2
 14569                           intcon2	equ	0xFF1
 14570                           indf0	equ	0xFEF
 14571                           postinc0	equ	0xFEE
 14572                           fsr0h	equ	0xFEA
 14573                           fsr0l	equ	0xFE9
 14574                           wreg	equ	0xFE8
 14575                           indf1	equ	0xFE7
 14576                           postinc1	equ	0xFE6
 14577                           postdec1	equ	0xFE5
 14578                           fsr1h	equ	0xFE2
 14579                           fsr1l	equ	0xFE1
 14580                           indf2	equ	0xFDF
 14581                           postinc2	equ	0xFDE
 14582                           postdec2	equ	0xFDD
 14583                           fsr2h	equ	0xFDA
 14584                           fsr2l	equ	0xFD9
 14585                           status	equ	0xFD8
 14586                           
 14587 ;; *************** function ___lwdiv *****************
 14588 ;; Defined at:
 14589 ;;		line 8 in file "C:\Program Files (x86)\Microchip\xc8\v1.30\sources\common\lwdiv.c"
 14590 ;; Parameters:    Size  Location     Type
 14591 ;;  dividend        2    0[BANK0 ] unsigned int 
 14592 ;;  divisor         2    2[BANK0 ] unsigned int 
 14593 ;; Auto vars:     Size  Location     Type
 14594 ;;  quotient        2    6[BANK0 ] unsigned int 
 14595 ;;  counter         1    5[BANK0 ] unsigned char 
 14596 ;; Return value:  Size  Location     Type
 14597 ;;                  2    0[BANK0 ] unsigned int 
 14598 ;; Registers used:
 14599 ;;		wreg, status,2, status,0
 14600 ;; Tracked objects:
 14601 ;;		On entry : 0/0
 14602 ;;		On exit  : 0/0
 14603 ;;		Unchanged: 0/0
 14604 ;; Data sizes:     COMRAM   BANK0   BANK1   BANK2   BANK3   BANK4   BANK5   BANK6   BANK7   BANK8   BANK9  BANK10  BANK1
      +1  BANK12  BANK13  BANK14
 14605 ;;      Params:         0       4       0       0       0       0       0       0       0       0       0       0       
      +0       0       0       0
 14606 ;;      Locals:         0       3       0       0       0       0       0       0       0       0       0       0       
      +0       0       0       0
 14607 ;;      Temps:          0       1       0       0       0       0       0       0       0       0       0       0       
      +0       0       0       0
 14608 ;;      Totals:         0       8       0       0       0       0       0       0       0       0       0       0       
      +0       0       0       0
 14609 ;;Total ram usage:        8 bytes
 14610 ;; Hardware stack levels used:    1
 14611 ;; Hardware stack levels required when called:    3
 14612 ;; This function calls:
 14613 ;;		Nothing
 14614 ;; This function is called by:
 14615 ;;		_commun_delaiMS
 14616 ;;		_utoa
 14617 ;; This function uses a non-reentrant model
 14618 ;;
 14619                           
 14620                           	psect	text29
 14621  014940                     __ptext29:
 14622                           	opt stack 0
 14623  014940                     ___lwdiv:
 14624                           	opt stack 25
 14625                           
 14626                           ; BSR set to: 0
 14627                           ;incstack = 0
 14628  014940  0E00               	movlw	0
 14629  014942  0100               	movlb	0	; () banked
 14630  014944  0100               	movlb	0	; () banked
 14631  014946  6FC9               	movwf	(___lwdiv@quotient+1)& (0+255),b
 14632  014948  0E00               	movlw	0
 14633  01494A  0100               	movlb	0	; () banked
 14634  01494C  6FC8               	movwf	___lwdiv@quotient& (0+255),b
 14635                           
 14636                           ; BSR set to: 0
 14637  01494E  0100               	movlb	0	; () banked
 14638  014950  0100               	movlb	0	; () banked
 14639  014952  51C5               	movf	(___lwdiv@divisor+1)& (0+255),w,b
 14640  014954  11C4               	iorwf	___lwdiv@divisor& (0+255),w,b
 14641  014956  B4D8               	btfsc	status,2,c
 14642  014958  D043               	goto	l1830
 14643                           
 14644                           ; BSR set to: 0
 14645  01495A  0100               	movlb	0	; () banked
 14646  01495C  6FC6               	movwf	??___lwdiv& (0+255),b
 14647  01495E  0E01               	movlw	1
 14648  014960  0100               	movlb	0	; () banked
 14649  014962  0100               	movlb	0	; () banked
 14650  014964  6FC7               	movwf	___lwdiv@counter& (0+255),b
 14651  014966  0100               	movlb	0	; () banked
 14652  014968  51C6               	movf	??___lwdiv& (0+255),w,b
 14653  01496A  D009               	goto	l8360
 14654  01496C                     l8358:
 14655                           
 14656                           ; BSR set to: 0
 14657  01496C  0100               	movlb	0	; () banked
 14658  01496E  0100               	movlb	0	; () banked
 14659  014970  0100               	movlb	0	; () banked
 14660  014972  90D8               	bcf	status,0,c
 14661  014974  37C4               	rlcf	___lwdiv@divisor& (0+255),f,b
 14662  014976  37C5               	rlcf	(___lwdiv@divisor+1)& (0+255),f,b
 14663  014978  0100               	movlb	0	; () banked
 14664  01497A  0100               	movlb	0	; () banked
 14665  01497C  2BC7               	incf	___lwdiv@counter& (0+255),f,b
 14666  01497E                     l8360:
 14667                           
 14668                           ; BSR set to: 0
 14669  01497E  0100               	movlb	0	; () banked
 14670  014980  0100               	movlb	0	; () banked
 14671  014982  AFC5               	btfss	(___lwdiv@divisor+1)& (0+255),7,b
 14672  014984  D7F3               	goto	l8358
 14673  014986                     l8362:
 14674                           
 14675                           ; BSR set to: 0
 14676  014986  0100               	movlb	0	; () banked
 14677  014988  0100               	movlb	0	; () banked
 14678  01498A  0100               	movlb	0	; () banked
 14679  01498C  90D8               	bcf	status,0,c
 14680  01498E  37C8               	rlcf	___lwdiv@quotient& (0+255),f,b
 14681  014990  37C9               	rlcf	(___lwdiv@quotient+1)& (0+255),f,b
 14682                           
 14683                           ; BSR set to: 0
 14684  014992  0100               	movlb	0	; () banked
 14685  014994  0100               	movlb	0	; () banked
 14686  014996  51C4               	movf	___lwdiv@divisor& (0+255),w,b
 14687  014998  0100               	movlb	0	; () banked
 14688  01499A  0100               	movlb	0	; () banked
 14689  01499C  5DC2               	subwf	___lwdiv@dividend& (0+255),w,b
 14690  01499E  0100               	movlb	0	; () banked
 14691  0149A0  0100               	movlb	0	; () banked
 14692  0149A2  51C5               	movf	(___lwdiv@divisor+1)& (0+255),w,b
 14693  0149A4  0100               	movlb	0	; () banked
 14694  0149A6  0100               	movlb	0	; () banked
 14695  0149A8  59C3               	subwfb	(___lwdiv@dividend+1)& (0+255),w,b
 14696  0149AA  A0D8               	btfss	status,0,c
 14697  0149AC  D00F               	goto	l8370
 14698                           
 14699                           ; BSR set to: 0
 14700  0149AE  0100               	movlb	0	; () banked
 14701  0149B0  0100               	movlb	0	; () banked
 14702  0149B2  51C4               	movf	___lwdiv@divisor& (0+255),w,b
 14703  0149B4  0100               	movlb	0	; () banked
 14704  0149B6  0100               	movlb	0	; () banked
 14705  0149B8  5FC2               	subwf	___lwdiv@dividend& (0+255),f,b
 14706  0149BA  0100               	movlb	0	; () banked
 14707  0149BC  0100               	movlb	0	; () banked
 14708  0149BE  51C5               	movf	(___lwdiv@divisor+1)& (0+255),w,b
 14709  0149C0  0100               	movlb	0	; () banked
 14710  0149C2  0100               	movlb	0	; () banked
 14711  0149C4  5BC3               	subwfb	(___lwdiv@dividend+1)& (0+255),f,b
 14712                           
 14713                           ; BSR set to: 0
 14714  0149C6  0100               	movlb	0	; () banked
 14715  0149C8  0100               	movlb	0	; () banked
 14716  0149CA  81C8               	bsf	___lwdiv@quotient& (0+255),0,b
 14717  0149CC                     l8370:
 14718                           
 14719                           ; BSR set to: 0
 14720  0149CC  0100               	movlb	0	; () banked
 14721  0149CE  0100               	movlb	0	; () banked
 14722  0149D0  0100               	movlb	0	; () banked
 14723  0149D2  90D8               	bcf	status,0,c
 14724  0149D4  33C5               	rrcf	(___lwdiv@divisor+1)& (0+255),f,b
 14725  0149D6  33C4               	rrcf	___lwdiv@divisor& (0+255),f,b
 14726                           
 14727                           ; BSR set to: 0
 14728  0149D8  0100               	movlb	0	; () banked
 14729  0149DA  0100               	movlb	0	; () banked
 14730  0149DC  2FC7               	decfsz	___lwdiv@counter& (0+255),f,b
 14731  0149DE  D7D3               	goto	l8362
 14732  0149E0                     l1830:
 14733                           
 14734                           ; BSR set to: 0
 14735  0149E0  C0C8  F0C2         	movff	___lwdiv@quotient,?___lwdiv
 14736  0149E4  C0C9  F0C3         	movff	___lwdiv@quotient+1,?___lwdiv+1
 14737                           
 14738                           ; BSR set to: 0
 14739  0149E8  0012               	return	
 14740  0149EA                     __end_of___lwdiv:
 14741                           	opt stack 0
 14742                           tblptru	equ	0xFF8
 14743                           tblptrh	equ	0xFF7
 14744                           tblptrl	equ	0xFF6
 14745                           tablat	equ	0xFF5
 14746                           prodl	equ	0xFF3
 14747                           intcon	equ	0xFF2
 14748                           intcon2	equ	0xFF1
 14749                           indf0	equ	0xFEF
 14750                           postinc0	equ	0xFEE
 14751                           fsr0h	equ	0xFEA
 14752                           fsr0l	equ	0xFE9
 14753                           wreg	equ	0xFE8
 14754                           indf1	equ	0xFE7
 14755                           postinc1	equ	0xFE6
 14756                           postdec1	equ	0xFE5
 14757                           fsr1h	equ	0xFE2
 14758                           fsr1l	equ	0xFE1
 14759                           indf2	equ	0xFDF
 14760                           postinc2	equ	0xFDE
 14761                           postdec2	equ	0xFDD
 14762                           fsr2h	equ	0xFDA
 14763                           fsr2l	equ	0xFD9
 14764                           status	equ	0xFD8
 14765                           
 14766 ;; *************** function _ClearMemory *****************
 14767 ;; Defined at:
 14768 ;;		line 138 in file "main.c"
 14769 ;; Parameters:    Size  Location     Type
 14770 ;;		None
 14771 ;; Auto vars:     Size  Location     Type
 14772 ;;  erase           2   22[BANK0 ] int 
 14773 ;;  erase           2   20[BANK0 ] int 
 14774 ;;  erase           2   18[BANK0 ] int 
 14775 ;;  erase           2   16[BANK0 ] int 
 14776 ;;  g               2   24[BANK0 ] int 
 14777 ;; Return value:  Size  Location     Type
 14778 ;;		None               void
 14779 ;; Registers used:
 14780 ;;		wreg, fsr0l, fsr0h, fsr2l, fsr2h, status,2, status,0, tblptrl, tblptrh, tblptru, prodl, prodh, cstack
 14781 ;; Tracked objects:
 14782 ;;		On entry : 0/0
 14783 ;;		On exit  : 0/0
 14784 ;;		Unchanged: 0/0
 14785 ;; Data sizes:     COMRAM   BANK0   BANK1   BANK2   BANK3   BANK4   BANK5   BANK6   BANK7   BANK8   BANK9  BANK10  BANK1
      +1  BANK12  BANK13  BANK14
 14786 ;;      Params:         0       0       0       0       0       0       0       0       0       0       0       0       
      +0       0       0       0
 14787 ;;      Locals:         0      10       0       0       0       0       0       0       0       0       0       0       
      +0       0       0       0
 14788 ;;      Temps:          0       4       0       0       0       0       0       0       0       0       0       0       
      +0       0       0       0
 14789 ;;      Totals:         0      14       0       0       0       0       0       0       0       0       0       0       
      +0       0       0       0
 14790 ;;Total ram usage:       14 bytes
 14791 ;; Hardware stack levels used:    1
 14792 ;; Hardware stack levels required when called:    4
 14793 ;; This function calls:
 14794 ;;		___wmul
 14795 ;;		_strlen
 14796 ;; This function is called by:
 14797 ;;		_main
 14798 ;; This function uses a non-reentrant model
 14799 ;;
 14800                           
 14801                           	psect	text30
 14802  0139BE                     __ptext30:
 14803                           	opt stack 0
 14804  0139BE                     _ClearMemory:
 14805                           	opt stack 26
 14806                           
 14807                           ;main.c: 140: for(int g = 0;g <= 50; g++)
 14808                           
 14809                           ; BSR set to: 0
 14810                           ;incstack = 0
 14811  0139BE  0E00               	movlw	0
 14812  0139C0  0100               	movlb	0	; () banked
 14813  0139C2  0100               	movlb	0	; () banked
 14814  0139C4  6FDB               	movwf	(ClearMemory@g+1)& (0+255),b
 14815  0139C6  0E00               	movlw	0
 14816  0139C8  0100               	movlb	0	; () banked
 14817  0139CA  6FDA               	movwf	ClearMemory@g& (0+255),b
 14818  0139CC                     
 14819                           ; BSR set to: 0
 14820  0139CC  0100               	movlb	0	; () banked
 14821  0139CE  0100               	movlb	0	; () banked
 14822  0139D0  51DB               	movf	(ClearMemory@g+1)& (0+255),w,b
 14823  0139D2  0A80               	xorlw	128
 14824  0139D4  0F80               	addlw	-128
 14825  0139D6  0E33               	movlw	51
 14826  0139D8  B4D8               	btfsc	status,2,c
 14827  0139DA  5DDA               	subwf	ClearMemory@g& (0+255),w,b
 14828  0139DC  B0D8               	btfsc	status,0,c
 14829  0139DE  D294               	goto	l7046
 14830                           
 14831                           ; BSR set to: 0
 14832                           ;main.c: 141: {
 14833                           ;main.c: 142: for(int erase =0;erase<=strlen(my_FrameReceived[g].receivedFrameDO)-1;eras
      +                          e++)
 14834                           
 14835                           ; BSR set to: 0
 14836                           
 14837                           ; BSR set to: 0
 14838  0139E0  0E00               	movlw	0
 14839  0139E2  0100               	movlb	0	; () banked
 14840  0139E4  0100               	movlb	0	; () banked
 14841  0139E6  6FD3               	movwf	(ClearMemory@erase+1)& (0+255),b
 14842  0139E8  0E00               	movlw	0
 14843  0139EA  0100               	movlb	0	; () banked
 14844  0139EC  6FD2               	movwf	ClearMemory@erase& (0+255),b
 14845  0139EE  D038               	goto	l7008
 14846  0139F0                     l7004:
 14847                           
 14848                           ; BSR set to: 0
 14849                           ;main.c: 143: {
 14850                           ;main.c: 144: my_FrameReceived[g].receivedFrameDO[erase] = '\0';
 14851  0139F0  C0DA  F0C2         	movff	ClearMemory@g,___wmul@multiplier
 14852  0139F4  C0DB  F0C3         	movff	ClearMemory@g+1,___wmul@multiplier+1
 14853  0139F8  0E00               	movlw	0
 14854  0139FA  0100               	movlb	0	; () banked
 14855  0139FC  0100               	movlb	0	; () banked
 14856  0139FE  6FC5               	movwf	(___wmul@multiplicand+1)& (0+255),b
 14857  013A00  0E1C               	movlw	28
 14858  013A02  0100               	movlb	0	; () banked
 14859  013A04  6FC4               	movwf	___wmul@multiplicand& (0+255),b
 14860  013A06  ECE9  F0A6         	call	___wmul	;wreg free
 14861  013A0A  0E07               	movlw	7
 14862  013A0C  0100               	movlb	0	; () banked
 14863  013A0E  0100               	movlb	0	; () banked
 14864  013A10  25D2               	addwf	ClearMemory@erase& (0+255),w,b
 14865  013A12  0100               	movlb	0	; () banked
 14866  013A14  6FCE               	movwf	??_ClearMemory& (0+255),b
 14867  013A16  0E00               	movlw	0
 14868  013A18  0100               	movlb	0	; () banked
 14869  013A1A  0100               	movlb	0	; () banked
 14870  013A1C  21D3               	addwfc	(ClearMemory@erase+1)& (0+255),w,b
 14871  013A1E  0100               	movlb	0	; () banked
 14872  013A20  6FCF               	movwf	(??_ClearMemory+1)& (0+255),b
 14873  013A22  0E5C               	movlw	low _my_FrameReceived
 14874  013A24  0100               	movlb	0	; () banked
 14875  013A26  6FD0               	movwf	(??_ClearMemory+2)& (0+255),b
 14876  013A28  0E08               	movlw	high _my_FrameReceived
 14877  013A2A  6FD1               	movwf	(??_ClearMemory+3)& (0+255),b
 14878  013A2C  0100               	movlb	0	; () banked
 14879  013A2E  51CE               	movf	??_ClearMemory& (0+255),w,b
 14880  013A30  0100               	movlb	0	; () banked
 14881  013A32  27D0               	addwf	(??_ClearMemory+2)& (0+255),f,b
 14882  013A34  0100               	movlb	0	; () banked
 14883  013A36  51CF               	movf	(??_ClearMemory+1)& (0+255),w,b
 14884  013A38  0100               	movlb	0	; () banked
 14885  013A3A  23D1               	addwfc	(??_ClearMemory+3)& (0+255),f,b
 14886  013A3C  0100               	movlb	0	; () banked
 14887  013A3E  0100               	movlb	0	; () banked
 14888  013A40  51C2               	movf	?___wmul& (0+255),w,b
 14889  013A42  0100               	movlb	0	; () banked
 14890  013A44  25D0               	addwf	(??_ClearMemory+2)& (0+255),w,b
 14891  013A46  6ED9               	movwf	fsr2l,c
 14892  013A48  0100               	movlb	0	; () banked
 14893  013A4A  0100               	movlb	0	; () banked
 14894  013A4C  51C3               	movf	(?___wmul+1)& (0+255),w,b
 14895  013A4E  0100               	movlb	0	; () banked
 14896  013A50  21D1               	addwfc	(??_ClearMemory+3)& (0+255),w,b
 14897  013A52  6EDA               	movwf	fsr2h,c
 14898  013A54  0E00               	movlw	0
 14899  013A56  6EDF               	movwf	indf2,c
 14900                           
 14901                           ; BSR set to: 0
 14902  013A58  0100               	movlb	0	; () banked
 14903  013A5A  0100               	movlb	0	; () banked
 14904  013A5C  4BD2               	infsnz	ClearMemory@erase& (0+255),f,b
 14905  013A5E  2BD3               	incf	(ClearMemory@erase+1)& (0+255),f,b
 14906  013A60                     l7008:
 14907                           
 14908                           ; BSR set to: 0
 14909  013A60  0EFF               	movlw	255
 14910  013A62  0100               	movlb	0	; () banked
 14911  013A64  6FCE               	movwf	??_ClearMemory& (0+255),b
 14912  013A66  0EFF               	movlw	255
 14913  013A68  6FCF               	movwf	(??_ClearMemory+1)& (0+255),b
 14914  013A6A  C0DA  F0C2         	movff	ClearMemory@g,___wmul@multiplier
 14915  013A6E  C0DB  F0C3         	movff	ClearMemory@g+1,___wmul@multiplier+1
 14916  013A72  0E00               	movlw	0
 14917  013A74  0100               	movlb	0	; () banked
 14918  013A76  0100               	movlb	0	; () banked
 14919  013A78  6FC5               	movwf	(___wmul@multiplicand+1)& (0+255),b
 14920  013A7A  0E1C               	movlw	28
 14921  013A7C  0100               	movlb	0	; () banked
 14922  013A7E  6FC4               	movwf	___wmul@multiplicand& (0+255),b
 14923  013A80  ECE9  F0A6         	call	___wmul	;wreg free
 14924  013A84  0E07               	movlw	7
 14925  013A86  0100               	movlb	0	; () banked
 14926  013A88  0100               	movlb	0	; () banked
 14927  013A8A  27C2               	addwf	?___wmul& (0+255),f,b
 14928  013A8C  0E00               	movlw	0
 14929  013A8E  0100               	movlb	0	; () banked
 14930  013A90  23C3               	addwfc	(?___wmul+1)& (0+255),f,b
 14931  013A92  0E5C               	movlw	low _my_FrameReceived
 14932  013A94  0100               	movlb	0	; () banked
 14933  013A96  6FD0               	movwf	(??_ClearMemory+2)& (0+255),b
 14934  013A98  0E08               	movlw	high _my_FrameReceived
 14935  013A9A  6FD1               	movwf	(??_ClearMemory+3)& (0+255),b
 14936  013A9C  0100               	movlb	0	; () banked
 14937  013A9E  0100               	movlb	0	; () banked
 14938  013AA0  51C2               	movf	?___wmul& (0+255),w,b
 14939  013AA2  0100               	movlb	0	; () banked
 14940  013AA4  27D0               	addwf	(??_ClearMemory+2)& (0+255),f,b
 14941  013AA6  0100               	movlb	0	; () banked
 14942  013AA8  0100               	movlb	0	; () banked
 14943  013AAA  51C3               	movf	(?___wmul+1)& (0+255),w,b
 14944  013AAC  0100               	movlb	0	; () banked
 14945  013AAE  23D1               	addwfc	(??_ClearMemory+3)& (0+255),f,b
 14946  013AB0  C0D0  F0C8         	movff	??_ClearMemory+2,strlen@s
 14947  013AB4  C0D1  F0C9         	movff	??_ClearMemory+3,strlen@s+1
 14948  013AB8  ECFF  F0A5         	call	_strlen	;wreg free
 14949  013ABC  0100               	movlb	0	; () banked
 14950  013ABE  51CE               	movf	??_ClearMemory& (0+255),w,b
 14951  013AC0  0100               	movlb	0	; () banked
 14952  013AC2  0100               	movlb	0	; () banked
 14953  013AC4  27C8               	addwf	?_strlen& (0+255),f,b
 14954  013AC6  0100               	movlb	0	; () banked
 14955  013AC8  51CF               	movf	(??_ClearMemory+1)& (0+255),w,b
 14956  013ACA  0100               	movlb	0	; () banked
 14957  013ACC  0100               	movlb	0	; () banked
 14958  013ACE  23C9               	addwfc	(?_strlen+1)& (0+255),f,b
 14959  013AD0  0100               	movlb	0	; () banked
 14960  013AD2  0100               	movlb	0	; () banked
 14961  013AD4  51D2               	movf	ClearMemory@erase& (0+255),w,b
 14962  013AD6  0100               	movlb	0	; () banked
 14963  013AD8  0100               	movlb	0	; () banked
 14964  013ADA  5DC8               	subwf	?_strlen& (0+255),w,b
 14965  013ADC  0100               	movlb	0	; () banked
 14966  013ADE  0100               	movlb	0	; () banked
 14967  013AE0  51D3               	movf	(ClearMemory@erase+1)& (0+255),w,b
 14968  013AE2  0100               	movlb	0	; () banked
 14969  013AE4  0100               	movlb	0	; () banked
 14970  013AE6  59C9               	subwfb	(?_strlen+1)& (0+255),w,b
 14971  013AE8  B0D8               	btfsc	status,0,c
 14972  013AEA  D782               	goto	l7004
 14973                           
 14974                           ; BSR set to: 0
 14975                           ;main.c: 145: }
 14976                           ;main.c: 146: my_FrameReceived[g].receivedDataTimeDO = 0;
 14977                           
 14978                           ; BSR set to: 0
 14979  013AEC  C0DA  F0C2         	movff	ClearMemory@g,___wmul@multiplier
 14980  013AF0  C0DB  F0C3         	movff	ClearMemory@g+1,___wmul@multiplier+1
 14981  013AF4  0E00               	movlw	0
 14982  013AF6  0100               	movlb	0	; () banked
 14983  013AF8  0100               	movlb	0	; () banked
 14984  013AFA  6FC5               	movwf	(___wmul@multiplicand+1)& (0+255),b
 14985  013AFC  0E1C               	movlw	28
 14986  013AFE  0100               	movlb	0	; () banked
 14987  013B00  6FC4               	movwf	___wmul@multiplicand& (0+255),b
 14988  013B02  ECE9  F0A6         	call	___wmul	;wreg free
 14989  013B06  0E0C               	movlw	12
 14990  013B08  0100               	movlb	0	; () banked
 14991  013B0A  0100               	movlb	0	; () banked
 14992  013B0C  27C2               	addwf	?___wmul& (0+255),f,b
 14993  013B0E  0E00               	movlw	0
 14994  013B10  0100               	movlb	0	; () banked
 14995  013B12  23C3               	addwfc	(?___wmul+1)& (0+255),f,b
 14996  013B14  0E5C               	movlw	low _my_FrameReceived
 14997  013B16  0100               	movlb	0	; () banked
 14998  013B18  0100               	movlb	0	; () banked
 14999  013B1A  25C2               	addwf	?___wmul& (0+255),w,b
 15000  013B1C  6ED9               	movwf	fsr2l,c
 15001  013B1E  0E08               	movlw	high _my_FrameReceived
 15002  013B20  0100               	movlb	0	; () banked
 15003  013B22  0100               	movlb	0	; () banked
 15004  013B24  21C3               	addwfc	(?___wmul+1)& (0+255),w,b
 15005  013B26  6EDA               	movwf	fsr2h,c
 15006  013B28  0E00               	movlw	0
 15007  013B2A  6EDE               	movwf	postinc2,c
 15008  013B2C  0E00               	movlw	0
 15009  013B2E  6EDD               	movwf	postdec2,c
 15010                           
 15011                           ; BSR set to: 0
 15012                           ;main.c: 148: for(int erase =0;erase<=strlen(my_FrameReceived[g].receivedFramePH)-1;eras
      +                          e++)
 15013  013B30  0E00               	movlw	0
 15014  013B32  0100               	movlb	0	; () banked
 15015  013B34  0100               	movlb	0	; () banked
 15016  013B36  6FD5               	movwf	(ClearMemory@erase_1122+1)& (0+255),b
 15017  013B38  0E00               	movlw	0
 15018  013B3A  0100               	movlb	0	; () banked
 15019  013B3C  6FD4               	movwf	ClearMemory@erase_1122& (0+255),b
 15020  013B3E  D02E               	goto	l7018
 15021  013B40                     l7014:
 15022                           
 15023                           ; BSR set to: 0
 15024                           ;main.c: 149: {
 15025                           ;main.c: 150: my_FrameReceived[g].receivedFramePH[erase] = '\0';
 15026  013B40  C0DA  F0C2         	movff	ClearMemory@g,___wmul@multiplier
 15027  013B44  C0DB  F0C3         	movff	ClearMemory@g+1,___wmul@multiplier+1
 15028  013B48  0E00               	movlw	0
 15029  013B4A  0100               	movlb	0	; () banked
 15030  013B4C  0100               	movlb	0	; () banked
 15031  013B4E  6FC5               	movwf	(___wmul@multiplicand+1)& (0+255),b
 15032  013B50  0E1C               	movlw	28
 15033  013B52  0100               	movlb	0	; () banked
 15034  013B54  6FC4               	movwf	___wmul@multiplicand& (0+255),b
 15035  013B56  ECE9  F0A6         	call	___wmul	;wreg free
 15036  013B5A  0E5C               	movlw	low _my_FrameReceived
 15037  013B5C  0100               	movlb	0	; () banked
 15038  013B5E  6FCE               	movwf	??_ClearMemory& (0+255),b
 15039  013B60  0E08               	movlw	high _my_FrameReceived
 15040  013B62  6FCF               	movwf	(??_ClearMemory+1)& (0+255),b
 15041  013B64  0100               	movlb	0	; () banked
 15042  013B66  0100               	movlb	0	; () banked
 15043  013B68  51C2               	movf	?___wmul& (0+255),w,b
 15044  013B6A  0100               	movlb	0	; () banked
 15045  013B6C  27CE               	addwf	??_ClearMemory& (0+255),f,b
 15046  013B6E  0100               	movlb	0	; () banked
 15047  013B70  0100               	movlb	0	; () banked
 15048  013B72  51C3               	movf	(?___wmul+1)& (0+255),w,b
 15049  013B74  0100               	movlb	0	; () banked
 15050  013B76  23CF               	addwfc	(??_ClearMemory+1)& (0+255),f,b
 15051  013B78  0100               	movlb	0	; () banked
 15052  013B7A  0100               	movlb	0	; () banked
 15053  013B7C  51D4               	movf	ClearMemory@erase_1122& (0+255),w,b
 15054  013B7E  0100               	movlb	0	; () banked
 15055  013B80  25CE               	addwf	??_ClearMemory& (0+255),w,b
 15056  013B82  6ED9               	movwf	fsr2l,c
 15057  013B84  0100               	movlb	0	; () banked
 15058  013B86  0100               	movlb	0	; () banked
 15059  013B88  51D5               	movf	(ClearMemory@erase_1122+1)& (0+255),w,b
 15060  013B8A  0100               	movlb	0	; () banked
 15061  013B8C  21CF               	addwfc	(??_ClearMemory+1)& (0+255),w,b
 15062  013B8E  6EDA               	movwf	fsr2h,c
 15063  013B90  0E00               	movlw	0
 15064  013B92  6EDF               	movwf	indf2,c
 15065                           
 15066                           ; BSR set to: 0
 15067  013B94  0100               	movlb	0	; () banked
 15068  013B96  0100               	movlb	0	; () banked
 15069  013B98  4BD4               	infsnz	ClearMemory@erase_1122& (0+255),f,b
 15070  013B9A  2BD5               	incf	(ClearMemory@erase_1122+1)& (0+255),f,b
 15071  013B9C                     l7018:
 15072                           
 15073                           ; BSR set to: 0
 15074  013B9C  0EFF               	movlw	255
 15075  013B9E  0100               	movlb	0	; () banked
 15076  013BA0  6FCE               	movwf	??_ClearMemory& (0+255),b
 15077  013BA2  0EFF               	movlw	255
 15078  013BA4  6FCF               	movwf	(??_ClearMemory+1)& (0+255),b
 15079  013BA6  C0DA  F0C2         	movff	ClearMemory@g,___wmul@multiplier
 15080  013BAA  C0DB  F0C3         	movff	ClearMemory@g+1,___wmul@multiplier+1
 15081  013BAE  0E00               	movlw	0
 15082  013BB0  0100               	movlb	0	; () banked
 15083  013BB2  0100               	movlb	0	; () banked
 15084  013BB4  6FC5               	movwf	(___wmul@multiplicand+1)& (0+255),b
 15085  013BB6  0E1C               	movlw	28
 15086  013BB8  0100               	movlb	0	; () banked
 15087  013BBA  6FC4               	movwf	___wmul@multiplicand& (0+255),b
 15088  013BBC  ECE9  F0A6         	call	___wmul	;wreg free
 15089  013BC0  0E5C               	movlw	low _my_FrameReceived
 15090  013BC2  0100               	movlb	0	; () banked
 15091  013BC4  6FD0               	movwf	(??_ClearMemory+2)& (0+255),b
 15092  013BC6  0E08               	movlw	high _my_FrameReceived
 15093  013BC8  6FD1               	movwf	(??_ClearMemory+3)& (0+255),b
 15094  013BCA  0100               	movlb	0	; () banked
 15095  013BCC  0100               	movlb	0	; () banked
 15096  013BCE  51C2               	movf	?___wmul& (0+255),w,b
 15097  013BD0  0100               	movlb	0	; () banked
 15098  013BD2  27D0               	addwf	(??_ClearMemory+2)& (0+255),f,b
 15099  013BD4  0100               	movlb	0	; () banked
 15100  013BD6  0100               	movlb	0	; () banked
 15101  013BD8  51C3               	movf	(?___wmul+1)& (0+255),w,b
 15102  013BDA  0100               	movlb	0	; () banked
 15103  013BDC  23D1               	addwfc	(??_ClearMemory+3)& (0+255),f,b
 15104  013BDE  C0D0  F0C8         	movff	??_ClearMemory+2,strlen@s
 15105  013BE2  C0D1  F0C9         	movff	??_ClearMemory+3,strlen@s+1
 15106  013BE6  ECFF  F0A5         	call	_strlen	;wreg free
 15107  013BEA  0100               	movlb	0	; () banked
 15108  013BEC  51CE               	movf	??_ClearMemory& (0+255),w,b
 15109  013BEE  0100               	movlb	0	; () banked
 15110  013BF0  0100               	movlb	0	; () banked
 15111  013BF2  27C8               	addwf	?_strlen& (0+255),f,b
 15112  013BF4  0100               	movlb	0	; () banked
 15113  013BF6  51CF               	movf	(??_ClearMemory+1)& (0+255),w,b
 15114  013BF8  0100               	movlb	0	; () banked
 15115  013BFA  0100               	movlb	0	; () banked
 15116  013BFC  23C9               	addwfc	(?_strlen+1)& (0+255),f,b
 15117  013BFE  0100               	movlb	0	; () banked
 15118  013C00  0100               	movlb	0	; () banked
 15119  013C02  51D4               	movf	ClearMemory@erase_1122& (0+255),w,b
 15120  013C04  0100               	movlb	0	; () banked
 15121  013C06  0100               	movlb	0	; () banked
 15122  013C08  5DC8               	subwf	?_strlen& (0+255),w,b
 15123  013C0A  0100               	movlb	0	; () banked
 15124  013C0C  0100               	movlb	0	; () banked
 15125  013C0E  51D5               	movf	(ClearMemory@erase_1122+1)& (0+255),w,b
 15126  013C10  0100               	movlb	0	; () banked
 15127  013C12  0100               	movlb	0	; () banked
 15128  013C14  59C9               	subwfb	(?_strlen+1)& (0+255),w,b
 15129  013C16  B0D8               	btfsc	status,0,c
 15130  013C18  D793               	goto	l7014
 15131                           
 15132                           ; BSR set to: 0
 15133                           ;main.c: 151: }
 15134                           ;main.c: 152: my_FrameReceived[g].receivedDataTimePH = 0;
 15135                           
 15136                           ; BSR set to: 0
 15137  013C1A  C0DA  F0C2         	movff	ClearMemory@g,___wmul@multiplier
 15138  013C1E  C0DB  F0C3         	movff	ClearMemory@g+1,___wmul@multiplier+1
 15139  013C22  0E00               	movlw	0
 15140  013C24  0100               	movlb	0	; () banked
 15141  013C26  0100               	movlb	0	; () banked
 15142  013C28  6FC5               	movwf	(___wmul@multiplicand+1)& (0+255),b
 15143  013C2A  0E1C               	movlw	28
 15144  013C2C  0100               	movlb	0	; () banked
 15145  013C2E  6FC4               	movwf	___wmul@multiplicand& (0+255),b
 15146  013C30  ECE9  F0A6         	call	___wmul	;wreg free
 15147  013C34  0E05               	movlw	5
 15148  013C36  0100               	movlb	0	; () banked
 15149  013C38  0100               	movlb	0	; () banked
 15150  013C3A  27C2               	addwf	?___wmul& (0+255),f,b
 15151  013C3C  0E00               	movlw	0
 15152  013C3E  0100               	movlb	0	; () banked
 15153  013C40  23C3               	addwfc	(?___wmul+1)& (0+255),f,b
 15154  013C42  0E5C               	movlw	low _my_FrameReceived
 15155  013C44  0100               	movlb	0	; () banked
 15156  013C46  0100               	movlb	0	; () banked
 15157  013C48  25C2               	addwf	?___wmul& (0+255),w,b
 15158  013C4A  6ED9               	movwf	fsr2l,c
 15159  013C4C  0E08               	movlw	high _my_FrameReceived
 15160  013C4E  0100               	movlb	0	; () banked
 15161  013C50  0100               	movlb	0	; () banked
 15162  013C52  21C3               	addwfc	(?___wmul+1)& (0+255),w,b
 15163  013C54  6EDA               	movwf	fsr2h,c
 15164  013C56  0E00               	movlw	0
 15165  013C58  6EDE               	movwf	postinc2,c
 15166  013C5A  0E00               	movlw	0
 15167  013C5C  6EDD               	movwf	postdec2,c
 15168                           
 15169                           ; BSR set to: 0
 15170                           ;main.c: 153: for(int erase =0;erase<=strlen(my_FrameReceived[g].receivedFrameEC)-1;eras
      +                          e++)
 15171  013C5E  0E00               	movlw	0
 15172  013C60  0100               	movlb	0	; () banked
 15173  013C62  0100               	movlb	0	; () banked
 15174  013C64  6FD7               	movwf	(ClearMemory@erase_1123+1)& (0+255),b
 15175  013C66  0E00               	movlw	0
 15176  013C68  0100               	movlb	0	; () banked
 15177  013C6A  6FD6               	movwf	ClearMemory@erase_1123& (0+255),b
 15178  013C6C  D038               	goto	l7028
 15179  013C6E                     l7024:
 15180                           
 15181                           ; BSR set to: 0
 15182                           ;main.c: 154: {
 15183                           ;main.c: 155: my_FrameReceived[g].receivedFrameEC[erase] = '\0';
 15184  013C6E  C0DA  F0C2         	movff	ClearMemory@g,___wmul@multiplier
 15185  013C72  C0DB  F0C3         	movff	ClearMemory@g+1,___wmul@multiplier+1
 15186  013C76  0E00               	movlw	0
 15187  013C78  0100               	movlb	0	; () banked
 15188  013C7A  0100               	movlb	0	; () banked
 15189  013C7C  6FC5               	movwf	(___wmul@multiplicand+1)& (0+255),b
 15190  013C7E  0E1C               	movlw	28
 15191  013C80  0100               	movlb	0	; () banked
 15192  013C82  6FC4               	movwf	___wmul@multiplicand& (0+255),b
 15193  013C84  ECE9  F0A6         	call	___wmul	;wreg free
 15194  013C88  0E0E               	movlw	14
 15195  013C8A  0100               	movlb	0	; () banked
 15196  013C8C  0100               	movlb	0	; () banked
 15197  013C8E  25D6               	addwf	ClearMemory@erase_1123& (0+255),w,b
 15198  013C90  0100               	movlb	0	; () banked
 15199  013C92  6FCE               	movwf	??_ClearMemory& (0+255),b
 15200  013C94  0E00               	movlw	0
 15201  013C96  0100               	movlb	0	; () banked
 15202  013C98  0100               	movlb	0	; () banked
 15203  013C9A  21D7               	addwfc	(ClearMemory@erase_1123+1)& (0+255),w,b
 15204  013C9C  0100               	movlb	0	; () banked
 15205  013C9E  6FCF               	movwf	(??_ClearMemory+1)& (0+255),b
 15206  013CA0  0E5C               	movlw	low _my_FrameReceived
 15207  013CA2  0100               	movlb	0	; () banked
 15208  013CA4  6FD0               	movwf	(??_ClearMemory+2)& (0+255),b
 15209  013CA6  0E08               	movlw	high _my_FrameReceived
 15210  013CA8  6FD1               	movwf	(??_ClearMemory+3)& (0+255),b
 15211  013CAA  0100               	movlb	0	; () banked
 15212  013CAC  51CE               	movf	??_ClearMemory& (0+255),w,b
 15213  013CAE  0100               	movlb	0	; () banked
 15214  013CB0  27D0               	addwf	(??_ClearMemory+2)& (0+255),f,b
 15215  013CB2  0100               	movlb	0	; () banked
 15216  013CB4  51CF               	movf	(??_ClearMemory+1)& (0+255),w,b
 15217  013CB6  0100               	movlb	0	; () banked
 15218  013CB8  23D1               	addwfc	(??_ClearMemory+3)& (0+255),f,b
 15219  013CBA  0100               	movlb	0	; () banked
 15220  013CBC  0100               	movlb	0	; () banked
 15221  013CBE  51C2               	movf	?___wmul& (0+255),w,b
 15222  013CC0  0100               	movlb	0	; () banked
 15223  013CC2  25D0               	addwf	(??_ClearMemory+2)& (0+255),w,b
 15224  013CC4  6ED9               	movwf	fsr2l,c
 15225  013CC6  0100               	movlb	0	; () banked
 15226  013CC8  0100               	movlb	0	; () banked
 15227  013CCA  51C3               	movf	(?___wmul+1)& (0+255),w,b
 15228  013CCC  0100               	movlb	0	; () banked
 15229  013CCE  21D1               	addwfc	(??_ClearMemory+3)& (0+255),w,b
 15230  013CD0  6EDA               	movwf	fsr2h,c
 15231  013CD2  0E00               	movlw	0
 15232  013CD4  6EDF               	movwf	indf2,c
 15233                           
 15234                           ; BSR set to: 0
 15235  013CD6  0100               	movlb	0	; () banked
 15236  013CD8  0100               	movlb	0	; () banked
 15237  013CDA  4BD6               	infsnz	ClearMemory@erase_1123& (0+255),f,b
 15238  013CDC  2BD7               	incf	(ClearMemory@erase_1123+1)& (0+255),f,b
 15239  013CDE                     l7028:
 15240                           
 15241                           ; BSR set to: 0
 15242  013CDE  0EFF               	movlw	255
 15243  013CE0  0100               	movlb	0	; () banked
 15244  013CE2  6FCE               	movwf	??_ClearMemory& (0+255),b
 15245  013CE4  0EFF               	movlw	255
 15246  013CE6  6FCF               	movwf	(??_ClearMemory+1)& (0+255),b
 15247  013CE8  C0DA  F0C2         	movff	ClearMemory@g,___wmul@multiplier
 15248  013CEC  C0DB  F0C3         	movff	ClearMemory@g+1,___wmul@multiplier+1
 15249  013CF0  0E00               	movlw	0
 15250  013CF2  0100               	movlb	0	; () banked
 15251  013CF4  0100               	movlb	0	; () banked
 15252  013CF6  6FC5               	movwf	(___wmul@multiplicand+1)& (0+255),b
 15253  013CF8  0E1C               	movlw	28
 15254  013CFA  0100               	movlb	0	; () banked
 15255  013CFC  6FC4               	movwf	___wmul@multiplicand& (0+255),b
 15256  013CFE  ECE9  F0A6         	call	___wmul	;wreg free
 15257  013D02  0E0E               	movlw	14
 15258  013D04  0100               	movlb	0	; () banked
 15259  013D06  0100               	movlb	0	; () banked
 15260  013D08  27C2               	addwf	?___wmul& (0+255),f,b
 15261  013D0A  0E00               	movlw	0
 15262  013D0C  0100               	movlb	0	; () banked
 15263  013D0E  23C3               	addwfc	(?___wmul+1)& (0+255),f,b
 15264  013D10  0E5C               	movlw	low _my_FrameReceived
 15265  013D12  0100               	movlb	0	; () banked
 15266  013D14  6FD0               	movwf	(??_ClearMemory+2)& (0+255),b
 15267  013D16  0E08               	movlw	high _my_FrameReceived
 15268  013D18  6FD1               	movwf	(??_ClearMemory+3)& (0+255),b
 15269  013D1A  0100               	movlb	0	; () banked
 15270  013D1C  0100               	movlb	0	; () banked
 15271  013D1E  51C2               	movf	?___wmul& (0+255),w,b
 15272  013D20  0100               	movlb	0	; () banked
 15273  013D22  27D0               	addwf	(??_ClearMemory+2)& (0+255),f,b
 15274  013D24  0100               	movlb	0	; () banked
 15275  013D26  0100               	movlb	0	; () banked
 15276  013D28  51C3               	movf	(?___wmul+1)& (0+255),w,b
 15277  013D2A  0100               	movlb	0	; () banked
 15278  013D2C  23D1               	addwfc	(??_ClearMemory+3)& (0+255),f,b
 15279  013D2E  C0D0  F0C8         	movff	??_ClearMemory+2,strlen@s
 15280  013D32  C0D1  F0C9         	movff	??_ClearMemory+3,strlen@s+1
 15281  013D36  ECFF  F0A5         	call	_strlen	;wreg free
 15282  013D3A  0100               	movlb	0	; () banked
 15283  013D3C  51CE               	movf	??_ClearMemory& (0+255),w,b
 15284  013D3E  0100               	movlb	0	; () banked
 15285  013D40  0100               	movlb	0	; () banked
 15286  013D42  27C8               	addwf	?_strlen& (0+255),f,b
 15287  013D44  0100               	movlb	0	; () banked
 15288  013D46  51CF               	movf	(??_ClearMemory+1)& (0+255),w,b
 15289  013D48  0100               	movlb	0	; () banked
 15290  013D4A  0100               	movlb	0	; () banked
 15291  013D4C  23C9               	addwfc	(?_strlen+1)& (0+255),f,b
 15292  013D4E  0100               	movlb	0	; () banked
 15293  013D50  0100               	movlb	0	; () banked
 15294  013D52  51D6               	movf	ClearMemory@erase_1123& (0+255),w,b
 15295  013D54  0100               	movlb	0	; () banked
 15296  013D56  0100               	movlb	0	; () banked
 15297  013D58  5DC8               	subwf	?_strlen& (0+255),w,b
 15298  013D5A  0100               	movlb	0	; () banked
 15299  013D5C  0100               	movlb	0	; () banked
 15300  013D5E  51D7               	movf	(ClearMemory@erase_1123+1)& (0+255),w,b
 15301  013D60  0100               	movlb	0	; () banked
 15302  013D62  0100               	movlb	0	; () banked
 15303  013D64  59C9               	subwfb	(?_strlen+1)& (0+255),w,b
 15304  013D66  B0D8               	btfsc	status,0,c
 15305  013D68  D782               	goto	l7024
 15306                           
 15307                           ; BSR set to: 0
 15308                           ;main.c: 156: }
 15309                           ;main.c: 157: my_FrameReceived[g].receivedDataTimeEC = 0;
 15310                           
 15311                           ; BSR set to: 0
 15312  013D6A  C0DA  F0C2         	movff	ClearMemory@g,___wmul@multiplier
 15313  013D6E  C0DB  F0C3         	movff	ClearMemory@g+1,___wmul@multiplier+1
 15314  013D72  0E00               	movlw	0
 15315  013D74  0100               	movlb	0	; () banked
 15316  013D76  0100               	movlb	0	; () banked
 15317  013D78  6FC5               	movwf	(___wmul@multiplicand+1)& (0+255),b
 15318  013D7A  0E1C               	movlw	28
 15319  013D7C  0100               	movlb	0	; () banked
 15320  013D7E  6FC4               	movwf	___wmul@multiplicand& (0+255),b
 15321  013D80  ECE9  F0A6         	call	___wmul	;wreg free
 15322  013D84  0E13               	movlw	19
 15323  013D86  0100               	movlb	0	; () banked
 15324  013D88  0100               	movlb	0	; () banked
 15325  013D8A  27C2               	addwf	?___wmul& (0+255),f,b
 15326  013D8C  0E00               	movlw	0
 15327  013D8E  0100               	movlb	0	; () banked
 15328  013D90  23C3               	addwfc	(?___wmul+1)& (0+255),f,b
 15329  013D92  0E5C               	movlw	low _my_FrameReceived
 15330  013D94  0100               	movlb	0	; () banked
 15331  013D96  0100               	movlb	0	; () banked
 15332  013D98  25C2               	addwf	?___wmul& (0+255),w,b
 15333  013D9A  6ED9               	movwf	fsr2l,c
 15334  013D9C  0E08               	movlw	high _my_FrameReceived
 15335  013D9E  0100               	movlb	0	; () banked
 15336  013DA0  0100               	movlb	0	; () banked
 15337  013DA2  21C3               	addwfc	(?___wmul+1)& (0+255),w,b
 15338  013DA4  6EDA               	movwf	fsr2h,c
 15339  013DA6  0E00               	movlw	0
 15340  013DA8  6EDE               	movwf	postinc2,c
 15341  013DAA  0E00               	movlw	0
 15342  013DAC  6EDD               	movwf	postdec2,c
 15343                           
 15344                           ; BSR set to: 0
 15345                           ;main.c: 158: for(int erase =0;erase<=strlen(my_FrameReceived[g].receivedFrameTDS)-1;era
      +                          se++)
 15346  013DAE  0E00               	movlw	0
 15347  013DB0  0100               	movlb	0	; () banked
 15348  013DB2  0100               	movlb	0	; () banked
 15349  013DB4  6FD9               	movwf	(ClearMemory@erase_1124+1)& (0+255),b
 15350  013DB6  0E00               	movlw	0
 15351  013DB8  0100               	movlb	0	; () banked
 15352  013DBA  6FD8               	movwf	ClearMemory@erase_1124& (0+255),b
 15353  013DBC  D038               	goto	l7038
 15354  013DBE                     l7034:
 15355                           
 15356                           ; BSR set to: 0
 15357                           ;main.c: 159: {
 15358                           ;main.c: 160: my_FrameReceived[g].receivedFrameTDS[erase] = '\0';
 15359  013DBE  C0DA  F0C2         	movff	ClearMemory@g,___wmul@multiplier
 15360  013DC2  C0DB  F0C3         	movff	ClearMemory@g+1,___wmul@multiplier+1
 15361  013DC6  0E00               	movlw	0
 15362  013DC8  0100               	movlb	0	; () banked
 15363  013DCA  0100               	movlb	0	; () banked
 15364  013DCC  6FC5               	movwf	(___wmul@multiplicand+1)& (0+255),b
 15365  013DCE  0E1C               	movlw	28
 15366  013DD0  0100               	movlb	0	; () banked
 15367  013DD2  6FC4               	movwf	___wmul@multiplicand& (0+255),b
 15368  013DD4  ECE9  F0A6         	call	___wmul	;wreg free
 15369  013DD8  0E15               	movlw	21
 15370  013DDA  0100               	movlb	0	; () banked
 15371  013DDC  0100               	movlb	0	; () banked
 15372  013DDE  25D8               	addwf	ClearMemory@erase_1124& (0+255),w,b
 15373  013DE0  0100               	movlb	0	; () banked
 15374  013DE2  6FCE               	movwf	??_ClearMemory& (0+255),b
 15375  013DE4  0E00               	movlw	0
 15376  013DE6  0100               	movlb	0	; () banked
 15377  013DE8  0100               	movlb	0	; () banked
 15378  013DEA  21D9               	addwfc	(ClearMemory@erase_1124+1)& (0+255),w,b
 15379  013DEC  0100               	movlb	0	; () banked
 15380  013DEE  6FCF               	movwf	(??_ClearMemory+1)& (0+255),b
 15381  013DF0  0E5C               	movlw	low _my_FrameReceived
 15382  013DF2  0100               	movlb	0	; () banked
 15383  013DF4  6FD0               	movwf	(??_ClearMemory+2)& (0+255),b
 15384  013DF6  0E08               	movlw	high _my_FrameReceived
 15385  013DF8  6FD1               	movwf	(??_ClearMemory+3)& (0+255),b
 15386  013DFA  0100               	movlb	0	; () banked
 15387  013DFC  51CE               	movf	??_ClearMemory& (0+255),w,b
 15388  013DFE  0100               	movlb	0	; () banked
 15389  013E00  27D0               	addwf	(??_ClearMemory+2)& (0+255),f,b
 15390  013E02  0100               	movlb	0	; () banked
 15391  013E04  51CF               	movf	(??_ClearMemory+1)& (0+255),w,b
 15392  013E06  0100               	movlb	0	; () banked
 15393  013E08  23D1               	addwfc	(??_ClearMemory+3)& (0+255),f,b
 15394  013E0A  0100               	movlb	0	; () banked
 15395  013E0C  0100               	movlb	0	; () banked
 15396  013E0E  51C2               	movf	?___wmul& (0+255),w,b
 15397  013E10  0100               	movlb	0	; () banked
 15398  013E12  25D0               	addwf	(??_ClearMemory+2)& (0+255),w,b
 15399  013E14  6ED9               	movwf	fsr2l,c
 15400  013E16  0100               	movlb	0	; () banked
 15401  013E18  0100               	movlb	0	; () banked
 15402  013E1A  51C3               	movf	(?___wmul+1)& (0+255),w,b
 15403  013E1C  0100               	movlb	0	; () banked
 15404  013E1E  21D1               	addwfc	(??_ClearMemory+3)& (0+255),w,b
 15405  013E20  6EDA               	movwf	fsr2h,c
 15406  013E22  0E00               	movlw	0
 15407  013E24  6EDF               	movwf	indf2,c
 15408                           
 15409                           ; BSR set to: 0
 15410  013E26  0100               	movlb	0	; () banked
 15411  013E28  0100               	movlb	0	; () banked
 15412  013E2A  4BD8               	infsnz	ClearMemory@erase_1124& (0+255),f,b
 15413  013E2C  2BD9               	incf	(ClearMemory@erase_1124+1)& (0+255),f,b
 15414  013E2E                     l7038:
 15415                           
 15416                           ; BSR set to: 0
 15417  013E2E  0EFF               	movlw	255
 15418  013E30  0100               	movlb	0	; () banked
 15419  013E32  6FCE               	movwf	??_ClearMemory& (0+255),b
 15420  013E34  0EFF               	movlw	255
 15421  013E36  6FCF               	movwf	(??_ClearMemory+1)& (0+255),b
 15422  013E38  C0DA  F0C2         	movff	ClearMemory@g,___wmul@multiplier
 15423  013E3C  C0DB  F0C3         	movff	ClearMemory@g+1,___wmul@multiplier+1
 15424  013E40  0E00               	movlw	0
 15425  013E42  0100               	movlb	0	; () banked
 15426  013E44  0100               	movlb	0	; () banked
 15427  013E46  6FC5               	movwf	(___wmul@multiplicand+1)& (0+255),b
 15428  013E48  0E1C               	movlw	28
 15429  013E4A  0100               	movlb	0	; () banked
 15430  013E4C  6FC4               	movwf	___wmul@multiplicand& (0+255),b
 15431  013E4E  ECE9  F0A6         	call	___wmul	;wreg free
 15432  013E52  0E15               	movlw	21
 15433  013E54  0100               	movlb	0	; () banked
 15434  013E56  0100               	movlb	0	; () banked
 15435  013E58  27C2               	addwf	?___wmul& (0+255),f,b
 15436  013E5A  0E00               	movlw	0
 15437  013E5C  0100               	movlb	0	; () banked
 15438  013E5E  23C3               	addwfc	(?___wmul+1)& (0+255),f,b
 15439  013E60  0E5C               	movlw	low _my_FrameReceived
 15440  013E62  0100               	movlb	0	; () banked
 15441  013E64  6FD0               	movwf	(??_ClearMemory+2)& (0+255),b
 15442  013E66  0E08               	movlw	high _my_FrameReceived
 15443  013E68  6FD1               	movwf	(??_ClearMemory+3)& (0+255),b
 15444  013E6A  0100               	movlb	0	; () banked
 15445  013E6C  0100               	movlb	0	; () banked
 15446  013E6E  51C2               	movf	?___wmul& (0+255),w,b
 15447  013E70  0100               	movlb	0	; () banked
 15448  013E72  27D0               	addwf	(??_ClearMemory+2)& (0+255),f,b
 15449  013E74  0100               	movlb	0	; () banked
 15450  013E76  0100               	movlb	0	; () banked
 15451  013E78  51C3               	movf	(?___wmul+1)& (0+255),w,b
 15452  013E7A  0100               	movlb	0	; () banked
 15453  013E7C  23D1               	addwfc	(??_ClearMemory+3)& (0+255),f,b
 15454  013E7E  C0D0  F0C8         	movff	??_ClearMemory+2,strlen@s
 15455  013E82  C0D1  F0C9         	movff	??_ClearMemory+3,strlen@s+1
 15456  013E86  ECFF  F0A5         	call	_strlen	;wreg free
 15457  013E8A  0100               	movlb	0	; () banked
 15458  013E8C  51CE               	movf	??_ClearMemory& (0+255),w,b
 15459  013E8E  0100               	movlb	0	; () banked
 15460  013E90  0100               	movlb	0	; () banked
 15461  013E92  27C8               	addwf	?_strlen& (0+255),f,b
 15462  013E94  0100               	movlb	0	; () banked
 15463  013E96  51CF               	movf	(??_ClearMemory+1)& (0+255),w,b
 15464  013E98  0100               	movlb	0	; () banked
 15465  013E9A  0100               	movlb	0	; () banked
 15466  013E9C  23C9               	addwfc	(?_strlen+1)& (0+255),f,b
 15467  013E9E  0100               	movlb	0	; () banked
 15468  013EA0  0100               	movlb	0	; () banked
 15469  013EA2  51D8               	movf	ClearMemory@erase_1124& (0+255),w,b
 15470  013EA4  0100               	movlb	0	; () banked
 15471  013EA6  0100               	movlb	0	; () banked
 15472  013EA8  5DC8               	subwf	?_strlen& (0+255),w,b
 15473  013EAA  0100               	movlb	0	; () banked
 15474  013EAC  0100               	movlb	0	; () banked
 15475  013EAE  51D9               	movf	(ClearMemory@erase_1124+1)& (0+255),w,b
 15476  013EB0  0100               	movlb	0	; () banked
 15477  013EB2  0100               	movlb	0	; () banked
 15478  013EB4  59C9               	subwfb	(?_strlen+1)& (0+255),w,b
 15479  013EB6  B0D8               	btfsc	status,0,c
 15480  013EB8  D782               	goto	l7034
 15481                           
 15482                           ; BSR set to: 0
 15483                           ;main.c: 161: }
 15484                           ;main.c: 162: my_FrameReceived[g].receivedDataTimeTDS = 0;
 15485                           
 15486                           ; BSR set to: 0
 15487  013EBA  C0DA  F0C2         	movff	ClearMemory@g,___wmul@multiplier
 15488  013EBE  C0DB  F0C3         	movff	ClearMemory@g+1,___wmul@multiplier+1
 15489  013EC2  0E00               	movlw	0
 15490  013EC4  0100               	movlb	0	; () banked
 15491  013EC6  0100               	movlb	0	; () banked
 15492  013EC8  6FC5               	movwf	(___wmul@multiplicand+1)& (0+255),b
 15493  013ECA  0E1C               	movlw	28
 15494  013ECC  0100               	movlb	0	; () banked
 15495  013ECE  6FC4               	movwf	___wmul@multiplicand& (0+255),b
 15496  013ED0  ECE9  F0A6         	call	___wmul	;wreg free
 15497  013ED4  0E1A               	movlw	26
 15498  013ED6  0100               	movlb	0	; () banked
 15499  013ED8  0100               	movlb	0	; () banked
 15500  013EDA  27C2               	addwf	?___wmul& (0+255),f,b
 15501  013EDC  0E00               	movlw	0
 15502  013EDE  0100               	movlb	0	; () banked
 15503  013EE0  23C3               	addwfc	(?___wmul+1)& (0+255),f,b
 15504  013EE2  0E5C               	movlw	low _my_FrameReceived
 15505  013EE4  0100               	movlb	0	; () banked
 15506  013EE6  0100               	movlb	0	; () banked
 15507  013EE8  25C2               	addwf	?___wmul& (0+255),w,b
 15508  013EEA  6ED9               	movwf	fsr2l,c
 15509  013EEC  0E08               	movlw	high _my_FrameReceived
 15510  013EEE  0100               	movlb	0	; () banked
 15511  013EF0  0100               	movlb	0	; () banked
 15512  013EF2  21C3               	addwfc	(?___wmul+1)& (0+255),w,b
 15513  013EF4  6EDA               	movwf	fsr2h,c
 15514  013EF6  0E00               	movlw	0
 15515  013EF8  6EDE               	movwf	postinc2,c
 15516  013EFA  0E00               	movlw	0
 15517  013EFC  6EDD               	movwf	postdec2,c
 15518                           
 15519                           ; BSR set to: 0
 15520  013EFE  0100               	movlb	0	; () banked
 15521  013F00  0100               	movlb	0	; () banked
 15522  013F02  4BDA               	infsnz	ClearMemory@g& (0+255),f,b
 15523  013F04  2BDB               	incf	(ClearMemory@g+1)& (0+255),f,b
 15524  013F06  D562               	goto	L18
 15525  013F08                     l7046:
 15526                           
 15527                           ; BSR set to: 0
 15528                           ;main.c: 163: }
 15529                           ;main.c: 164: nbFrameDO = 0 ;
 15530  013F08  0E00               	movlw	0
 15531  013F0A  0100               	movlb	0	; () banked
 15532  013F0C  0100               	movlb	0	; () banked
 15533  013F0E  6F85               	movwf	(_nbFrameDO+1)& (0+255),b
 15534  013F10  0E00               	movlw	0
 15535  013F12  0100               	movlb	0	; () banked
 15536  013F14  6F84               	movwf	_nbFrameDO& (0+255),b
 15537                           
 15538                           ;main.c: 165: nbFramePH = 0 ;
 15539  013F16  0E00               	movlw	0
 15540  013F18  0100               	movlb	0	; () banked
 15541  013F1A  0100               	movlb	0	; () banked
 15542  013F1C  6F89               	movwf	(_nbFramePH+1)& (0+255),b
 15543  013F1E  0E00               	movlw	0
 15544  013F20  0100               	movlb	0	; () banked
 15545  013F22  6F88               	movwf	_nbFramePH& (0+255),b
 15546                           
 15547                           ;main.c: 166: nbFrameEC = 0 ;
 15548  013F24  0E00               	movlw	0
 15549  013F26  0100               	movlb	0	; () banked
 15550  013F28  0100               	movlb	0	; () banked
 15551  013F2A  6F87               	movwf	(_nbFrameEC+1)& (0+255),b
 15552  013F2C  0E00               	movlw	0
 15553  013F2E  0100               	movlb	0	; () banked
 15554  013F30  6F86               	movwf	_nbFrameEC& (0+255),b
 15555                           
 15556                           ;main.c: 167: nbFrameTDS = 0 ;
 15557  013F32  0E00               	movlw	0
 15558  013F34  0100               	movlb	0	; () banked
 15559  013F36  0100               	movlb	0	; () banked
 15560  013F38  6F8B               	movwf	(_nbFrameTDS+1)& (0+255),b
 15561  013F3A  0E00               	movlw	0
 15562  013F3C  0100               	movlb	0	; () banked
 15563  013F3E  6F8A               	movwf	_nbFrameTDS& (0+255),b
 15564                           
 15565                           ; BSR set to: 0
 15566                           ;main.c: 168: Vq = 0;
 15567  013F40  0100               	movlb	0	; () banked
 15568  013F42  6FCE               	movwf	??_ClearMemory& (0+255),b
 15569  013F44  0E00               	movlw	0
 15570  013F46  0100               	movlb	0	; () banked
 15571  013F48  0100               	movlb	0	; () banked
 15572  013F4A  6F97               	movwf	_Vq& (0+255),b
 15573  013F4C  0100               	movlb	0	; () banked
 15574  013F4E  51CE               	movf	??_ClearMemory& (0+255),w,b
 15575                           
 15576                           ; BSR set to: 0
 15577  013F50  0012               	return	
 15578  013F52                     __end_of_ClearMemory:
 15579                           	opt stack 0
 15580                           tblptru	equ	0xFF8
 15581                           tblptrh	equ	0xFF7
 15582                           tblptrl	equ	0xFF6
 15583                           tablat	equ	0xFF5
 15584                           prodl	equ	0xFF3
 15585                           intcon	equ	0xFF2
 15586                           intcon2	equ	0xFF1
 15587                           indf0	equ	0xFEF
 15588                           postinc0	equ	0xFEE
 15589                           fsr0h	equ	0xFEA
 15590                           fsr0l	equ	0xFE9
 15591                           wreg	equ	0xFE8
 15592                           indf1	equ	0xFE7
 15593                           postinc1	equ	0xFE6
 15594                           postdec1	equ	0xFE5
 15595                           fsr1h	equ	0xFE2
 15596                           fsr1l	equ	0xFE1
 15597                           indf2	equ	0xFDF
 15598                           postinc2	equ	0xFDE
 15599                           postdec2	equ	0xFDD
 15600                           fsr2h	equ	0xFDA
 15601                           fsr2l	equ	0xFD9
 15602                           status	equ	0xFD8
 15603                           
 15604 ;; *************** function _strlen *****************
 15605 ;; Defined at:
 15606 ;;		line 4 in file "C:\Program Files (x86)\Microchip\xc8\v1.30\sources\common\strlen.c"
 15607 ;; Parameters:    Size  Location     Type
 15608 ;;  s               2    6[BANK0 ] PTR const unsigned char 
 15609 ;;		 -> trameToParse(30), STR_123(12), STR_122(12), STR_121(16), 
 15610 ;;		 -> STR_120(58), STR_119(45), STR_118(20), STR_117(12), 
 15611 ;;		 -> STR_116(13), STR_115(25), STR_114(26), STR_113(28), 
 15612 ;;		 -> STR_112(12), STR_111(12), STrLengh@bufferTEMPO(10), STR_8(16), 
 15613 ;;		 -> STR_7(6), STR_6(13), dataToSend(1500), POST@STrLenghC(4), 
 15614 ;;		 -> STR_5(9), my_FrameReceived.receivedFrameTDS(5), my_FrameReceived.receivedFrameEC(5), my_FrameReceived.receivedFr
      +amePH(5), 
 15615 ;;		 -> my_FrameReceived.receivedFrameDO(5), my_FrameReceived(1400), STR_1(9), 
 15616 ;; Auto vars:     Size  Location     Type
 15617 ;;  cp              2   10[BANK0 ] PTR const unsigned char 
 15618 ;;		 -> trameToParse(30), STR_123(12), STR_122(12), STR_121(16), 
 15619 ;;		 -> STR_120(58), STR_119(45), STR_118(20), STR_117(12), 
 15620 ;;		 -> STR_116(13), STR_115(25), STR_114(26), STR_113(28), 
 15621 ;;		 -> STR_112(12), STR_111(12), STrLengh@bufferTEMPO(10), STR_8(16), 
 15622 ;;		 -> STR_7(6), STR_6(13), dataToSend(1500), POST@STrLenghC(4), 
 15623 ;;		 -> STR_5(9), my_FrameReceived.receivedFrameTDS(5), my_FrameReceived.receivedFrameEC(5), my_FrameReceived.receivedFr
      +amePH(5), 
 15624 ;;		 -> my_FrameReceived.receivedFrameDO(5), my_FrameReceived(1400), STR_1(9), 
 15625 ;; Return value:  Size  Location     Type
 15626 ;;                  2    6[BANK0 ] unsigned int 
 15627 ;; Registers used:
 15628 ;;		wreg, fsr0l, fsr0h, status,2, status,0, tblptrl, tblptrh, tblptru
 15629 ;; Tracked objects:
 15630 ;;		On entry : 0/0
 15631 ;;		On exit  : 0/0
 15632 ;;		Unchanged: 0/0
 15633 ;; Data sizes:     COMRAM   BANK0   BANK1   BANK2   BANK3   BANK4   BANK5   BANK6   BANK7   BANK8   BANK9  BANK10  BANK1
      +1  BANK12  BANK13  BANK14
 15634 ;;      Params:         0       2       0       0       0       0       0       0       0       0       0       0       
      +0       0       0       0
 15635 ;;      Locals:         0       2       0       0       0       0       0       0       0       0       0       0       
      +0       0       0       0
 15636 ;;      Temps:          0       2       0       0       0       0       0       0       0       0       0       0       
      +0       0       0       0
 15637 ;;      Totals:         0       6       0       0       0       0       0       0       0       0       0       0       
      +0       0       0       0
 15638 ;;Total ram usage:        6 bytes
 15639 ;; Hardware stack levels used:    1
 15640 ;; Hardware stack levels required when called:    3
 15641 ;; This function calls:
 15642 ;;		Nothing
 15643 ;; This function is called by:
 15644 ;;		_ClearMemory
 15645 ;;		_POST
 15646 ;;		_readbuffer
 15647 ;;		_executeBuffer
 15648 ;;		_writeUsart2
 15649 ;;		_writeUsart1
 15650 ;;		_STrLengh
 15651 ;; This function uses a non-reentrant model
 15652 ;;
 15653                           
 15654                           	psect	text31
 15655  014BFE                     __ptext31:
 15656                           	opt stack 0
 15657  014BFE                     _strlen:
 15658                           	opt stack 26
 15659                           
 15660                           ; BSR set to: 0
 15661                           ;incstack = 0
 15662  014BFE  0100               	movlb	0	; () banked
 15663  014C00  0100               	movlb	0	; () banked
 15664  014C02  C0C9  F0CD         	movff	strlen@s+1,strlen@cp+1
 15665  014C06  0100               	movlb	0	; () banked
 15666  014C08  0100               	movlb	0	; () banked
 15667  014C0A  C0C8  F0CC         	movff	strlen@s,strlen@cp
 15668  014C0E  D004               	goto	l7856
 15669  014C10                     l7854:
 15670  014C10  0100               	movlb	0	; () banked
 15671  014C12  0100               	movlb	0	; () banked
 15672  014C14  4BCC               	infsnz	strlen@cp& (0+255),f,b
 15673  014C16  2BCD               	incf	(strlen@cp+1)& (0+255),f,b
 15674  014C18                     l7856:
 15675                           
 15676                           ; BSR set to: 0
 15677  014C18  0100               	movlb	0	; () banked
 15678  014C1A  C0CC  FFF6         	movff	strlen@cp,tblptrl
 15679  014C1E  0100               	movlb	0	; () banked
 15680  014C20  C0CD  FFF7         	movff	strlen@cp+1,tblptrh
 15681  014C24  0E00               	movlw	low (__mediumconst shr (0+16))
 15682  014C26  6EF8               	movwf	tblptru,c
 15683  014C28  0E0E               	movlw	(high __ramtop+-1)
 15684  014C2A  64F7               	cpfsgt	tblptrh,c
 15685  014C2C  D003               	bra	u6627
 15686  014C2E  0008               	tblrd		*
 15687  014C30  50F5               	movf	tablat,w,c
 15688  014C32  D005               	bra	u6620
 15689  014C34                     u6627:
 15690  014C34  CFF6 FFE9          	movff	tblptrl,fsr0l
 15691  014C38  CFF7 FFEA          	movff	tblptrh,fsr0h
 15692  014C3C  50EF               	movf	indf0,w,c
 15693  014C3E                     u6620:
 15694  014C3E  0900               	iorlw	0
 15695  014C40  A4D8               	btfss	status,2,c
 15696  014C42  D7E6               	goto	l7854
 15697  014C44  0100               	movlb	0	; () banked
 15698  014C46  C0C8  F0CA         	movff	strlen@s,??_strlen
 15699  014C4A  0100               	movlb	0	; () banked
 15700  014C4C  C0C9  F0CB         	movff	strlen@s+1,??_strlen+1
 15701  014C50  0100               	movlb	0	; () banked
 15702  014C52  1FCA               	comf	??_strlen& (0+255),f,b
 15703  014C54  1FCB               	comf	(??_strlen+1)& (0+255),f,b
 15704  014C56  4BCA               	infsnz	??_strlen& (0+255),f,b
 15705  014C58  2BCB               	incf	(??_strlen+1)& (0+255),f,b
 15706  014C5A  0100               	movlb	0	; () banked
 15707  014C5C  0100               	movlb	0	; () banked
 15708  014C5E  51CC               	movf	strlen@cp& (0+255),w,b
 15709  014C60  0100               	movlb	0	; () banked
 15710  014C62  25CA               	addwf	??_strlen& (0+255),w,b
 15711  014C64  0100               	movlb	0	; () banked
 15712  014C66  0100               	movlb	0	; () banked
 15713  014C68  6FC8               	movwf	?_strlen& (0+255),b
 15714  014C6A  0100               	movlb	0	; () banked
 15715  014C6C  0100               	movlb	0	; () banked
 15716  014C6E  51CD               	movf	(strlen@cp+1)& (0+255),w,b
 15717  014C70  0100               	movlb	0	; () banked
 15718  014C72  21CB               	addwfc	(??_strlen+1)& (0+255),w,b
 15719  014C74  0100               	movlb	0	; () banked
 15720  014C76  6FC9               	movwf	(?_strlen+1)& (0+255),b
 15721  014C78  0012               	return	
 15722  014C7A                     __end_of_strlen:
 15723                           	opt stack 0
 15724                           tblptru	equ	0xFF8
 15725                           tblptrh	equ	0xFF7
 15726                           tblptrl	equ	0xFF6
 15727                           tablat	equ	0xFF5
 15728                           prodl	equ	0xFF3
 15729                           intcon	equ	0xFF2
 15730                           intcon2	equ	0xFF1
 15731                           indf0	equ	0xFEF
 15732                           postinc0	equ	0xFEE
 15733                           fsr0h	equ	0xFEA
 15734                           fsr0l	equ	0xFE9
 15735                           wreg	equ	0xFE8
 15736                           indf1	equ	0xFE7
 15737                           postinc1	equ	0xFE6
 15738                           postdec1	equ	0xFE5
 15739                           fsr1h	equ	0xFE2
 15740                           fsr1l	equ	0xFE1
 15741                           indf2	equ	0xFDF
 15742                           postinc2	equ	0xFDE
 15743                           postdec2	equ	0xFDD
 15744                           fsr2h	equ	0xFDA
 15745                           fsr2l	equ	0xFD9
 15746                           status	equ	0xFD8
 15747                           
 15748 ;; *************** function ___wmul *****************
 15749 ;; Defined at:
 15750 ;;		line 4 in file "C:\Program Files (x86)\Microchip\xc8\v1.30\sources\common\wmul.c"
 15751 ;; Parameters:    Size  Location     Type
 15752 ;;  multiplier      2    0[BANK0 ] unsigned int 
 15753 ;;  multiplicand    2    2[BANK0 ] unsigned int 
 15754 ;; Auto vars:     Size  Location     Type
 15755 ;;  product         2    4[BANK0 ] unsigned int 
 15756 ;; Return value:  Size  Location     Type
 15757 ;;                  2    0[BANK0 ] unsigned int 
 15758 ;; Registers used:
 15759 ;;		wreg, status,2, status,0, prodl, prodh
 15760 ;; Tracked objects:
 15761 ;;		On entry : 0/0
 15762 ;;		On exit  : 0/0
 15763 ;;		Unchanged: 0/0
 15764 ;; Data sizes:     COMRAM   BANK0   BANK1   BANK2   BANK3   BANK4   BANK5   BANK6   BANK7   BANK8   BANK9  BANK10  BANK1
      +1  BANK12  BANK13  BANK14
 15765 ;;      Params:         0       4       0       0       0       0       0       0       0       0       0       0       
      +0       0       0       0
 15766 ;;      Locals:         0       2       0       0       0       0       0       0       0       0       0       0       
      +0       0       0       0
 15767 ;;      Temps:          0       0       0       0       0       0       0       0       0       0       0       0       
      +0       0       0       0
 15768 ;;      Totals:         0       6       0       0       0       0       0       0       0       0       0       0       
      +0       0       0       0
 15769 ;;Total ram usage:        6 bytes
 15770 ;; Hardware stack levels used:    1
 15771 ;; Hardware stack levels required when called:    3
 15772 ;; This function calls:
 15773 ;;		Nothing
 15774 ;; This function is called by:
 15775 ;;		_ClearMemory
 15776 ;;		_sendJsonDO
 15777 ;;		_readbuffer
 15778 ;;		_executeBuffer
 15779 ;;		_STrLengh
 15780 ;; This function uses a non-reentrant model
 15781 ;;
 15782                           
 15783                           	psect	text32
 15784  014DD2                     __ptext32:
 15785                           	opt stack 0
 15786  014DD2                     ___wmul:
 15787                           	opt stack 26
 15788                           
 15789                           ; BSR set to: 0
 15790                           ;incstack = 0
 15791  014DD2  0100               	movlb	0	; () banked
 15792  014DD4  0100               	movlb	0	; () banked
 15793  014DD6  51C2               	movf	___wmul@multiplier& (0+255),w,b
 15794  014DD8  0100               	movlb	0	; () banked
 15795  014DDA  0100               	movlb	0	; () banked
 15796  014DDC  03C4               	mulwf	___wmul@multiplicand& (0+255),b
 15797  014DDE  CFF3 F0C6          	movff	prodl,___wmul@product
 15798  014DE2  CFF4 F0C7          	movff	prodh,___wmul@product+1
 15799  014DE6  0100               	movlb	0	; () banked
 15800  014DE8  0100               	movlb	0	; () banked
 15801  014DEA  51C2               	movf	___wmul@multiplier& (0+255),w,b
 15802  014DEC  0100               	movlb	0	; () banked
 15803  014DEE  0100               	movlb	0	; () banked
 15804  014DF0  03C5               	mulwf	(___wmul@multiplicand+1)& (0+255),b
 15805  014DF2  CFF3 FFF4          	movff	prodl,prodh
 15806  014DF6  6AF3               	clrf	prodl,c
 15807  014DF8  50F3               	movf	prodl,w,c
 15808  014DFA  0100               	movlb	0	; () banked
 15809  014DFC  0100               	movlb	0	; () banked
 15810  014DFE  27C6               	addwf	___wmul@product& (0+255),f,b
 15811  014E00  50F4               	movf	prodh,w,c
 15812  014E02  0100               	movlb	0	; () banked
 15813  014E04  0100               	movlb	0	; () banked
 15814  014E06  23C7               	addwfc	(___wmul@product+1)& (0+255),f,b
 15815  014E08  0100               	movlb	0	; () banked
 15816  014E0A  0100               	movlb	0	; () banked
 15817  014E0C  51C3               	movf	(___wmul@multiplier+1)& (0+255),w,b
 15818  014E0E  0100               	movlb	0	; () banked
 15819  014E10  0100               	movlb	0	; () banked
 15820  014E12  03C4               	mulwf	___wmul@multiplicand& (0+255),b
 15821  014E14  CFF3 FFF4          	movff	prodl,prodh
 15822  014E18  6AF3               	clrf	prodl,c
 15823  014E1A  50F3               	movf	prodl,w,c
 15824  014E1C  0100               	movlb	0	; () banked
 15825  014E1E  0100               	movlb	0	; () banked
 15826  014E20  27C6               	addwf	___wmul@product& (0+255),f,b
 15827  014E22  50F4               	movf	prodh,w,c
 15828  014E24  0100               	movlb	0	; () banked
 15829  014E26  0100               	movlb	0	; () banked
 15830  014E28  23C7               	addwfc	(___wmul@product+1)& (0+255),f,b
 15831                           
 15832                           ; BSR set to: 0
 15833  014E2A  C0C6  F0C2         	movff	___wmul@product,?___wmul
 15834  014E2E  C0C7  F0C3         	movff	___wmul@product+1,?___wmul+1
 15835  014E32  0012               	return	
 15836  014E34                     __end_of___wmul:
 15837                           	opt stack 0
 15838                           tblptru	equ	0xFF8
 15839                           tblptrh	equ	0xFF7
 15840                           tblptrl	equ	0xFF6
 15841                           tablat	equ	0xFF5
 15842                           prodh	equ	0xFF4
 15843                           prodl	equ	0xFF3
 15844                           intcon	equ	0xFF2
 15845                           intcon2	equ	0xFF1
 15846                           indf0	equ	0xFEF
 15847                           postinc0	equ	0xFEE
 15848                           fsr0h	equ	0xFEA
 15849                           fsr0l	equ	0xFE9
 15850                           wreg	equ	0xFE8
 15851                           indf1	equ	0xFE7
 15852                           postinc1	equ	0xFE6
 15853                           postdec1	equ	0xFE5
 15854                           fsr1h	equ	0xFE2
 15855                           fsr1l	equ	0xFE1
 15856                           indf2	equ	0xFDF
 15857                           postinc2	equ	0xFDE
 15858                           postdec2	equ	0xFDD
 15859                           fsr2h	equ	0xFDA
 15860                           fsr2l	equ	0xFD9
 15861                           status	equ	0xFD8
 15862                           
 15863 ;; *************** function _low_isr *****************
 15864 ;; Defined at:
 15865 ;;		line 58 in file "interrupts.c"
 15866 ;; Parameters:    Size  Location     Type
 15867 ;;		None
 15868 ;; Auto vars:     Size  Location     Type
 15869 ;;		None
 15870 ;; Return value:  Size  Location     Type
 15871 ;;		None               void
 15872 ;; Registers used:
 15873 ;;		None
 15874 ;; Tracked objects:
 15875 ;;		On entry : 0/0
 15876 ;;		On exit  : 0/0
 15877 ;;		Unchanged: 0/0
 15878 ;; Data sizes:     COMRAM   BANK0   BANK1   BANK2   BANK3   BANK4   BANK5   BANK6   BANK7   BANK8   BANK9  BANK10  BANK1
      +1  BANK12  BANK13  BANK14
 15879 ;;      Params:         0       0       0       0       0       0       0       0       0       0       0       0       
      +0       0       0       0
 15880 ;;      Locals:         0       0       0       0       0       0       0       0       0       0       0       0       
      +0       0       0       0
 15881 ;;      Temps:         17       0       0       0       0       0       0       0       0       0       0       0       
      +0       0       0       0
 15882 ;;      Totals:        17       0       0       0       0       0       0       0       0       0       0       0       
      +0       0       0       0
 15883 ;;Total ram usage:       17 bytes
 15884 ;; Hardware stack levels used:    1
 15885 ;; Hardware stack levels required when called:    2
 15886 ;; This function calls:
 15887 ;;		Nothing
 15888 ;; This function is called by:
 15889 ;;		Interrupt level 1
 15890 ;; This function uses a non-reentrant model
 15891 ;;
 15892                           
 15893                           	psect	intcodelo
 15894  000018                     __pintcodelo:
 15895                           	opt stack 0
 15896  000018                     _low_isr:
 15897                           	opt stack 24
 15898                           
 15899                           ; BSR set to: 0
 15900                           ;incstack = 0
 15901  000018  CFD8 F001          	movff	status,??_low_isr
 15902  00001C  CFE8 F002          	movff	wreg,??_low_isr+1
 15903  000020  CFE0 F003          	movff	bsr,??_low_isr+2
 15904  000024  CFFA F004          	movff	pclath,??_low_isr+3
 15905  000028  CFFB F005          	movff	pclatu,??_low_isr+4
 15906  00002C  CFE9 F006          	movff	fsr0l,??_low_isr+5
 15907  000030  CFEA F007          	movff	fsr0h,??_low_isr+6
 15908  000034  CFE1 F008          	movff	fsr1l,??_low_isr+7
 15909  000038  CFE2 F009          	movff	fsr1h,??_low_isr+8
 15910  00003C  CFD9 F00A          	movff	fsr2l,??_low_isr+9
 15911  000040  CFDA F00B          	movff	fsr2h,??_low_isr+10
 15912  000044  CFF3 F00C          	movff	prodl,??_low_isr+11
 15913  000048  CFF4 F00D          	movff	prodh,??_low_isr+12
 15914  00004C  CFF6 F00E          	movff	tblptrl,??_low_isr+13
 15915  000050  CFF7 F00F          	movff	tblptrh,??_low_isr+14
 15916  000054  CFF8 F010          	movff	tblptru,??_low_isr+15
 15917  000058  CFF5 F011          	movff	tablat,??_low_isr+16
 15918  00005C  C011  FFF5         	movff	??_low_isr+16,tablat
 15919  000060  C010  FFF8         	movff	??_low_isr+15,tblptru
 15920  000064  C00F  FFF7         	movff	??_low_isr+14,tblptrh
 15921  000068  C00E  FFF6         	movff	??_low_isr+13,tblptrl
 15922  00006C  C00D  FFF4         	movff	??_low_isr+12,prodh
 15923  000070  C00C  FFF3         	movff	??_low_isr+11,prodl
 15924  000074  C00B  FFDA         	movff	??_low_isr+10,fsr2h
 15925  000078  C00A  FFD9         	movff	??_low_isr+9,fsr2l
 15926  00007C  C009  FFE2         	movff	??_low_isr+8,fsr1h
 15927  000080  C008  FFE1         	movff	??_low_isr+7,fsr1l
 15928  000084  C007  FFEA         	movff	??_low_isr+6,fsr0h
 15929  000088  C006  FFE9         	movff	??_low_isr+5,fsr0l
 15930  00008C  C005  FFFB         	movff	??_low_isr+4,pclatu
 15931  000090  C004  FFFA         	movff	??_low_isr+3,pclath
 15932  000094  C003  FFE0         	movff	??_low_isr+2,bsr
 15933  000098  C002  FFE8         	movff	??_low_isr+1,wreg
 15934  00009C  C001  FFD8         	movff	??_low_isr,status
 15935  0000A0  0010               	retfie	
 15936  0000A2                     __end_of_low_isr:
 15937                           	opt stack 0
 15938                           pclatu	equ	0xFFB
 15939                           pclath	equ	0xFFA
 15940                           tblptru	equ	0xFF8
 15941                           tblptrh	equ	0xFF7
 15942                           tblptrl	equ	0xFF6
 15943                           tablat	equ	0xFF5
 15944                           prodh	equ	0xFF4
 15945                           prodl	equ	0xFF3
 15946                           intcon	equ	0xFF2
 15947                           intcon2	equ	0xFF1
 15948                           indf0	equ	0xFEF
 15949                           postinc0	equ	0xFEE
 15950                           fsr0h	equ	0xFEA
 15951                           fsr0l	equ	0xFE9
 15952                           wreg	equ	0xFE8
 15953                           indf1	equ	0xFE7
 15954                           postinc1	equ	0xFE6
 15955                           postdec1	equ	0xFE5
 15956                           fsr1h	equ	0xFE2
 15957                           fsr1l	equ	0xFE1
 15958                           bsr	equ	0xFE0
 15959                           indf2	equ	0xFDF
 15960                           postinc2	equ	0xFDE
 15961                           postdec2	equ	0xFDD
 15962                           fsr2h	equ	0xFDA
 15963                           fsr2l	equ	0xFD9
 15964                           status	equ	0xFD8
 15965                           
 15966 ;; *************** function _high_isr *****************
 15967 ;; Defined at:
 15968 ;;		line 14 in file "interrupts.c"
 15969 ;; Parameters:    Size  Location     Type
 15970 ;;		None
 15971 ;; Auto vars:     Size  Location     Type
 15972 ;;		None
 15973 ;; Return value:  Size  Location     Type
 15974 ;;		None               void
 15975 ;; Registers used:
 15976 ;;		wreg, fsr2l, fsr2h, status,2, status,0, cstack
 15977 ;; Tracked objects:
 15978 ;;		On entry : 0/0
 15979 ;;		On exit  : 0/0
 15980 ;;		Unchanged: 0/0
 15981 ;; Data sizes:     COMRAM   BANK0   BANK1   BANK2   BANK3   BANK4   BANK5   BANK6   BANK7   BANK8   BANK9  BANK10  BANK1
      +1  BANK12  BANK13  BANK14
 15982 ;;      Params:         0       0       0       0       0       0       0       0       0       0       0       0       
      +0       0       0       0
 15983 ;;      Locals:         0       0       0       0       0       0       0       0       0       0       0       0       
      +0       0       0       0
 15984 ;;      Temps:         14       0       0       0       0       0       0       0       0       0       0       0       
      +0       0       0       0
 15985 ;;      Totals:        14       0       0       0       0       0       0       0       0       0       0       0       
      +0       0       0       0
 15986 ;;Total ram usage:       14 bytes
 15987 ;; Hardware stack levels used:    1
 15988 ;; Hardware stack levels required when called:    1
 15989 ;; This function calls:
 15990 ;;		_Read1USART
 15991 ;;		_Read2USART
 15992 ;; This function is called by:
 15993 ;;		Interrupt level 2
 15994 ;; This function uses a non-reentrant model
 15995 ;;
 15996                           
 15997                           	psect	intcode
 15998  000008                     __pintcode:
 15999                           	opt stack 0
 16000  000008                     _high_isr:
 16001                           	opt stack 24
 16002                           
 16003                           ;incstack = 0
 16004  000008  CFFA F013          	movff	pclath,??_high_isr
 16005  00000C  CFFB F014          	movff	pclatu,??_high_isr+1
 16006  000010  EF6B  F0A2         	goto	int_func
 16007                           pclatu	equ	0xFFB
 16008                           pclath	equ	0xFFA
 16009                           tblptru	equ	0xFF8
 16010                           tblptrh	equ	0xFF7
 16011                           tblptrl	equ	0xFF6
 16012                           tablat	equ	0xFF5
 16013                           prodh	equ	0xFF4
 16014                           prodl	equ	0xFF3
 16015                           intcon	equ	0xFF2
 16016                           intcon2	equ	0xFF1
 16017                           indf0	equ	0xFEF
 16018                           postinc0	equ	0xFEE
 16019                           fsr0h	equ	0xFEA
 16020                           fsr0l	equ	0xFE9
 16021                           wreg	equ	0xFE8
 16022                           indf1	equ	0xFE7
 16023                           postinc1	equ	0xFE6
 16024                           postdec1	equ	0xFE5
 16025                           fsr1h	equ	0xFE2
 16026                           fsr1l	equ	0xFE1
 16027                           bsr	equ	0xFE0
 16028                           indf2	equ	0xFDF
 16029                           postinc2	equ	0xFDE
 16030                           postdec2	equ	0xFDD
 16031                           fsr2h	equ	0xFDA
 16032                           fsr2l	equ	0xFD9
 16033                           status	equ	0xFD8
 16034                           
 16035                           	psect	intcode_body
 16036  0144D6                     __pintcode_body:
 16037                           	opt stack 24
 16038  0144D6                     int_func:
 16039                           	opt stack 24
 16040  0144D6  CFE9 F015          	movff	fsr0l,??_high_isr+2
 16041  0144DA  CFEA F016          	movff	fsr0h,??_high_isr+3
 16042  0144DE  CFE1 F017          	movff	fsr1l,??_high_isr+4
 16043  0144E2  CFE2 F018          	movff	fsr1h,??_high_isr+5
 16044  0144E6  CFD9 F019          	movff	fsr2l,??_high_isr+6
 16045  0144EA  CFDA F01A          	movff	fsr2h,??_high_isr+7
 16046  0144EE  CFF3 F01B          	movff	prodl,??_high_isr+8
 16047  0144F2  CFF4 F01C          	movff	prodh,??_high_isr+9
 16048  0144F6  CFF6 F01D          	movff	tblptrl,??_high_isr+10
 16049  0144FA  CFF7 F01E          	movff	tblptrh,??_high_isr+11
 16050  0144FE  CFF8 F01F          	movff	tblptru,??_high_isr+12
 16051  014502  CFF5 F020          	movff	tablat,??_high_isr+13
 16052                           
 16053                           ;interrupts.c: 17: if(PIR1bits.RCIF == 1)
 16054  014506  AA9E               	btfss	3998,5,c	;volatile
 16055  014508  D01C               	goto	i2l4826
 16056                           
 16057                           ;interrupts.c: 18: {
 16058                           ;interrupts.c: 19: rx = Read1USART();
 16059  01450A  ECA8  F0A7         	call	_Read1USART	;wreg free
 16060  01450E  6E3D               	movwf	_rx,c
 16061                           
 16062                           ;interrupts.c: 20: buffer1Write ++;
 16063  014510  4A23               	infsnz	_buffer1Write,f,c
 16064  014512  2A24               	incf	_buffer1Write+1,f,c
 16065                           
 16066                           ;interrupts.c: 21: if(buffer1Write>= 128)
 16067  014514  5024               	movf	_buffer1Write+1,w,c
 16068  014516  0A80               	xorlw	128
 16069  014518  0F80               	addlw	-128
 16070  01451A  0E80               	movlw	128
 16071  01451C  B4D8               	btfsc	status,2,c
 16072  01451E  5C23               	subwf	_buffer1Write,w,c
 16073  014520  A0D8               	btfss	status,0,c
 16074  014522  D004               	goto	i2l4822
 16075                           
 16076                           ;interrupts.c: 22: {
 16077                           ;interrupts.c: 23: buffer1Write = 0;
 16078  014524  0E00               	movlw	0
 16079  014526  6E24               	movwf	_buffer1Write+1,c
 16080  014528  0E00               	movlw	0
 16081  01452A  6E23               	movwf	_buffer1Write,c
 16082  01452C                     i2l4822:
 16083                           
 16084                           ;interrupts.c: 24: }
 16085                           ;interrupts.c: 25: bufferint1[buffer1Write] = rx;
 16086  01452C  0101               	movlb	1	; () banked
 16087  01452E  0E00               	movlw	low _bufferint1
 16088  014530  2423               	addwf	_buffer1Write,w,c
 16089  014532  6ED9               	movwf	fsr2l,c
 16090  014534  0101               	movlb	1	; () banked
 16091  014536  0E01               	movlw	high _bufferint1
 16092  014538  2024               	addwfc	_buffer1Write+1,w,c
 16093  01453A  6EDA               	movwf	fsr2h,c
 16094  01453C  C03D  FFDF         	movff	_rx,indf2
 16095                           
 16096                           ; BSR set to: 1
 16097                           ;interrupts.c: 26: PIR1bits.RCIF = 0;
 16098  014540  9A9E               	bcf	3998,5,c	;volatile
 16099  014542                     i2l4826:
 16100                           
 16101                           ;interrupts.c: 27: }
 16102                           ;interrupts.c: 29: if(PIR3bits.RC2IF == 1)
 16103  014542  AAA4               	btfss	4004,5,c	;volatile
 16104  014544  D01C               	goto	i2l4840
 16105                           
 16106                           ;interrupts.c: 30: {
 16107                           ;interrupts.c: 31: rx2 = Read2USART();
 16108  014546  EC99  F0A7         	call	_Read2USART	;wreg free
 16109  01454A  6E3E               	movwf	_rx2,c
 16110                           
 16111                           ;interrupts.c: 32: buffer2Write ++;
 16112  01454C  4A25               	infsnz	_buffer2Write,f,c
 16113  01454E  2A26               	incf	_buffer2Write+1,f,c
 16114                           
 16115                           ;interrupts.c: 33: if(buffer2Write>= 128)
 16116  014550  5026               	movf	_buffer2Write+1,w,c
 16117  014552  0A80               	xorlw	128
 16118  014554  0F80               	addlw	-128
 16119  014556  0E80               	movlw	128
 16120  014558  B4D8               	btfsc	status,2,c
 16121  01455A  5C25               	subwf	_buffer2Write,w,c
 16122  01455C  A0D8               	btfss	status,0,c
 16123  01455E  D004               	goto	i2l4836
 16124                           
 16125                           ;interrupts.c: 34: {
 16126                           ;interrupts.c: 35: buffer2Write = 0;
 16127  014560  0E00               	movlw	0
 16128  014562  6E26               	movwf	_buffer2Write+1,c
 16129  014564  0E00               	movlw	0
 16130  014566  6E25               	movwf	_buffer2Write,c
 16131  014568                     i2l4836:
 16132                           
 16133                           ;interrupts.c: 36: }
 16134                           ;interrupts.c: 37: bufferint2[buffer2Write] = rx2;
 16135  014568  0102               	movlb	2	; () banked
 16136  01456A  0E00               	movlw	low _bufferint2
 16137  01456C  2425               	addwf	_buffer2Write,w,c
 16138  01456E  6ED9               	movwf	fsr2l,c
 16139  014570  0102               	movlb	2	; () banked
 16140  014572  0E02               	movlw	high _bufferint2
 16141  014574  2026               	addwfc	_buffer2Write+1,w,c
 16142  014576  6EDA               	movwf	fsr2h,c
 16143  014578  C03E  FFDF         	movff	_rx2,indf2
 16144                           
 16145                           ; BSR set to: 2
 16146                           ;interrupts.c: 38: PIR3bits.RC2IF = 0;
 16147  01457C  9AA4               	bcf	4004,5,c	;volatile
 16148  01457E                     i2l4840:
 16149                           
 16150                           ;interrupts.c: 39: }
 16151                           ;interrupts.c: 41: if (INTCONbits.TMR0IF)
 16152  01457E  A4F2               	btfss	intcon,2,c	;volatile
 16153  014580  D013               	goto	i2l279
 16154                           
 16155                           ;interrupts.c: 42: {
 16156                           ;interrupts.c: 43: INTCONbits.TMR0IF = 0;
 16157  014582  94F2               	bcf	intcon,2,c	;volatile
 16158                           
 16159                           ;interrupts.c: 46: TMR0L = 0xED;
 16160  014584  0EED               	movlw	237
 16161  014586  6ED6               	movwf	4054,c	;volatile
 16162                           
 16163                           ;interrupts.c: 47: TMR0H = 0x85;
 16164  014588  0E85               	movlw	133
 16165  01458A  6ED7               	movwf	4055,c	;volatile
 16166                           
 16167                           ;interrupts.c: 48: readingTime++;
 16168  01458C  0100               	movlb	0	; () banked
 16169  01458E  0100               	movlb	0	; () banked
 16170  014590  4B8C               	infsnz	_readingTime& (0+255),f,b
 16171  014592  2B8D               	incf	(_readingTime+1)& (0+255),f,b
 16172                           
 16173                           ; BSR set to: 0
 16174                           ;interrupts.c: 50: if(compteurTimer0 > 9)
 16175  014594  5028               	movf	_compteurTimer0+1,w,c
 16176  014596  0A80               	xorlw	128
 16177  014598  0F80               	addlw	-128
 16178  01459A  0E0A               	movlw	10
 16179  01459C  B4D8               	btfsc	status,2,c
 16180  01459E  5C27               	subwf	_compteurTimer0,w,c
 16181  0145A0  A0D8               	btfss	status,0,c
 16182  0145A2  D002               	goto	i2l279
 16183                           
 16184                           ; BSR set to: 0
 16185                           ;interrupts.c: 51: {
 16186                           ;interrupts.c: 52: compteurTimer0++;
 16187  0145A4  4A27               	infsnz	_compteurTimer0,f,c
 16188  0145A6  2A28               	incf	_compteurTimer0+1,f,c
 16189  0145A8                     i2l279:
 16190  0145A8  C020  FFF5         	movff	??_high_isr+13,tablat
 16191  0145AC  C01F  FFF8         	movff	??_high_isr+12,tblptru
 16192  0145B0  C01E  FFF7         	movff	??_high_isr+11,tblptrh
 16193  0145B4  C01D  FFF6         	movff	??_high_isr+10,tblptrl
 16194  0145B8  C01C  FFF4         	movff	??_high_isr+9,prodh
 16195  0145BC  C01B  FFF3         	movff	??_high_isr+8,prodl
 16196  0145C0  C01A  FFDA         	movff	??_high_isr+7,fsr2h
 16197  0145C4  C019  FFD9         	movff	??_high_isr+6,fsr2l
 16198  0145C8  C018  FFE2         	movff	??_high_isr+5,fsr1h
 16199  0145CC  C017  FFE1         	movff	??_high_isr+4,fsr1l
 16200  0145D0  C016  FFEA         	movff	??_high_isr+3,fsr0h
 16201  0145D4  C015  FFE9         	movff	??_high_isr+2,fsr0l
 16202  0145D8  C014  FFFB         	movff	??_high_isr+1,pclatu
 16203  0145DC  C013  FFFA         	movff	??_high_isr,pclath
 16204  0145E0  0011               	retfie		f
 16205  0145E2                     __end_of_high_isr:
 16206                           	opt stack 0
 16207                           pclatu	equ	0xFFB
 16208                           pclath	equ	0xFFA
 16209                           tblptru	equ	0xFF8
 16210                           tblptrh	equ	0xFF7
 16211                           tblptrl	equ	0xFF6
 16212                           tablat	equ	0xFF5
 16213                           prodh	equ	0xFF4
 16214                           prodl	equ	0xFF3
 16215                           intcon	equ	0xFF2
 16216                           intcon2	equ	0xFF1
 16217                           indf0	equ	0xFEF
 16218                           postinc0	equ	0xFEE
 16219                           fsr0h	equ	0xFEA
 16220                           fsr0l	equ	0xFE9
 16221                           wreg	equ	0xFE8
 16222                           indf1	equ	0xFE7
 16223                           postinc1	equ	0xFE6
 16224                           postdec1	equ	0xFE5
 16225                           fsr1h	equ	0xFE2
 16226                           fsr1l	equ	0xFE1
 16227                           bsr	equ	0xFE0
 16228                           indf2	equ	0xFDF
 16229                           postinc2	equ	0xFDE
 16230                           postdec2	equ	0xFDD
 16231                           fsr2h	equ	0xFDA
 16232                           fsr2l	equ	0xFD9
 16233                           status	equ	0xFD8
 16234                           
 16235 ;; *************** function _Read2USART *****************
 16236 ;; Defined at:
 16237 ;;		line 17 in file "C:\Program Files (x86)\Microchip\xc8\v1.30\sources\pic18\plib\USART\u2read.c"
 16238 ;; Parameters:    Size  Location     Type
 16239 ;;		None
 16240 ;; Auto vars:     Size  Location     Type
 16241 ;;  data            1   17[COMRAM] unsigned char 
 16242 ;; Return value:  Size  Location     Type
 16243 ;;                  1    wreg      unsigned char 
 16244 ;; Registers used:
 16245 ;;		wreg, status,2, status,0
 16246 ;; Tracked objects:
 16247 ;;		On entry : 0/0
 16248 ;;		On exit  : 0/0
 16249 ;;		Unchanged: 0/0
 16250 ;; Data sizes:     COMRAM   BANK0   BANK1   BANK2   BANK3   BANK4   BANK5   BANK6   BANK7   BANK8   BANK9  BANK10  BANK1
      +1  BANK12  BANK13  BANK14
 16251 ;;      Params:         0       0       0       0       0       0       0       0       0       0       0       0       
      +0       0       0       0
 16252 ;;      Locals:         1       0       0       0       0       0       0       0       0       0       0       0       
      +0       0       0       0
 16253 ;;      Temps:          0       0       0       0       0       0       0       0       0       0       0       0       
      +0       0       0       0
 16254 ;;      Totals:         1       0       0       0       0       0       0       0       0       0       0       0       
      +0       0       0       0
 16255 ;;Total ram usage:        1 bytes
 16256 ;; Hardware stack levels used:    1
 16257 ;; This function calls:
 16258 ;;		Nothing
 16259 ;; This function is called by:
 16260 ;;		_high_isr
 16261 ;; This function uses a non-reentrant model
 16262 ;;
 16263                           
 16264                           	psect	text35
 16265  014F32                     __ptext35:
 16266                           	opt stack 0
 16267  014F32                     _Read2USART:
 16268                           	opt stack 24
 16269                           
 16270                           ;incstack = 0
 16271  014F32  0EF2               	movlw	242
 16272  014F34  1630               	andwf	_USART2_Status,f,c
 16273  014F36  AC9C               	btfss	3996,6,c	;volatile
 16274  014F38  D003               	goto	i2l1271
 16275  014F3A  9030               	bcf	_USART2_Status,0,c
 16276  014F3C  B09C               	btfsc	3996,0,c	;volatile
 16277  014F3E  8030               	bsf	_USART2_Status,0,c
 16278  014F40                     i2l1271:
 16279  014F40  B49C               	btfsc	3996,2,c	;volatile
 16280  014F42  8430               	bsf	_USART2_Status,2,c
 16281  014F44  B29C               	btfsc	3996,1,c	;volatile
 16282  014F46  8630               	bsf	_USART2_Status,3,c
 16283  014F48  CFAA F012          	movff	4010,Read2USART@data	;volatile
 16284  014F4C  5012               	movf	Read2USART@data,w,c
 16285  014F4E  0012               	return	
 16286  014F50                     __end_of_Read2USART:
 16287                           	opt stack 0
 16288                           pclatu	equ	0xFFB
 16289                           pclath	equ	0xFFA
 16290                           tblptru	equ	0xFF8
 16291                           tblptrh	equ	0xFF7
 16292                           tblptrl	equ	0xFF6
 16293                           tablat	equ	0xFF5
 16294                           prodh	equ	0xFF4
 16295                           prodl	equ	0xFF3
 16296                           intcon	equ	0xFF2
 16297                           intcon2	equ	0xFF1
 16298                           indf0	equ	0xFEF
 16299                           postinc0	equ	0xFEE
 16300                           fsr0h	equ	0xFEA
 16301                           fsr0l	equ	0xFE9
 16302                           wreg	equ	0xFE8
 16303                           indf1	equ	0xFE7
 16304                           postinc1	equ	0xFE6
 16305                           postdec1	equ	0xFE5
 16306                           fsr1h	equ	0xFE2
 16307                           fsr1l	equ	0xFE1
 16308                           bsr	equ	0xFE0
 16309                           indf2	equ	0xFDF
 16310                           postinc2	equ	0xFDE
 16311                           postdec2	equ	0xFDD
 16312                           fsr2h	equ	0xFDA
 16313                           fsr2l	equ	0xFD9
 16314                           status	equ	0xFD8
 16315                           
 16316 ;; *************** function _Read1USART *****************
 16317 ;; Defined at:
 16318 ;;		line 17 in file "C:\Program Files (x86)\Microchip\xc8\v1.30\sources\pic18\plib\USART\u1read.c"
 16319 ;; Parameters:    Size  Location     Type
 16320 ;;		None
 16321 ;; Auto vars:     Size  Location     Type
 16322 ;;  data            1   17[COMRAM] unsigned char 
 16323 ;; Return value:  Size  Location     Type
 16324 ;;                  1    wreg      unsigned char 
 16325 ;; Registers used:
 16326 ;;		wreg, status,2, status,0
 16327 ;; Tracked objects:
 16328 ;;		On entry : 0/0
 16329 ;;		On exit  : 0/0
 16330 ;;		Unchanged: 0/0
 16331 ;; Data sizes:     COMRAM   BANK0   BANK1   BANK2   BANK3   BANK4   BANK5   BANK6   BANK7   BANK8   BANK9  BANK10  BANK1
      +1  BANK12  BANK13  BANK14
 16332 ;;      Params:         0       0       0       0       0       0       0       0       0       0       0       0       
      +0       0       0       0
 16333 ;;      Locals:         1       0       0       0       0       0       0       0       0       0       0       0       
      +0       0       0       0
 16334 ;;      Temps:          0       0       0       0       0       0       0       0       0       0       0       0       
      +0       0       0       0
 16335 ;;      Totals:         1       0       0       0       0       0       0       0       0       0       0       0       
      +0       0       0       0
 16336 ;;Total ram usage:        1 bytes
 16337 ;; Hardware stack levels used:    1
 16338 ;; This function calls:
 16339 ;;		Nothing
 16340 ;; This function is called by:
 16341 ;;		_high_isr
 16342 ;; This function uses a non-reentrant model
 16343 ;;
 16344                           
 16345                           	psect	text36
 16346  014F50                     __ptext36:
 16347                           	opt stack 0
 16348  014F50                     _Read1USART:
 16349                           	opt stack 24
 16350                           
 16351                           ;incstack = 0
 16352  014F50  0EF2               	movlw	242
 16353  014F52  162F               	andwf	_USART1_Status,f,c
 16354  014F54  ACAC               	btfss	4012,6,c	;volatile
 16355  014F56  D003               	goto	i2l1218
 16356  014F58  902F               	bcf	_USART1_Status,0,c
 16357  014F5A  B0AC               	btfsc	4012,0,c	;volatile
 16358  014F5C  802F               	bsf	_USART1_Status,0,c
 16359  014F5E                     i2l1218:
 16360  014F5E  B4AC               	btfsc	4012,2,c	;volatile
 16361  014F60  842F               	bsf	_USART1_Status,2,c
 16362  014F62  B2AC               	btfsc	4012,1,c	;volatile
 16363  014F64  862F               	bsf	_USART1_Status,3,c
 16364  014F66  CFAF F012          	movff	4015,Read1USART@data	;volatile
 16365  014F6A  5012               	movf	Read1USART@data,w,c
 16366  014F6C  0012               	return	
 16367  014F6E                     __end_of_Read1USART:
 16368                           	opt stack 0
 16369                           pclatu	equ	0xFFB
 16370                           pclath	equ	0xFFA
 16371                           tblptru	equ	0xFF8
 16372                           tblptrh	equ	0xFF7
 16373                           tblptrl	equ	0xFF6
 16374                           tablat	equ	0xFF5
 16375                           prodh	equ	0xFF4
 16376                           prodl	equ	0xFF3
 16377                           intcon	equ	0xFF2
 16378                           intcon2	equ	0xFF1
 16379                           indf0	equ	0xFEF
 16380                           postinc0	equ	0xFEE
 16381                           fsr0h	equ	0xFEA
 16382                           fsr0l	equ	0xFE9
 16383                           wreg	equ	0xFE8
 16384                           indf1	equ	0xFE7
 16385                           postinc1	equ	0xFE6
 16386                           postdec1	equ	0xFE5
 16387                           fsr1h	equ	0xFE2
 16388                           fsr1l	equ	0xFE1
 16389                           bsr	equ	0xFE0
 16390                           indf2	equ	0xFDF
 16391                           postinc2	equ	0xFDE
 16392                           postdec2	equ	0xFDD
 16393                           fsr2h	equ	0xFDA
 16394                           fsr2l	equ	0xFD9
 16395                           status	equ	0xFD8
 16396                           pclatu	equ	0xFFB
 16397                           pclath	equ	0xFFA
 16398                           tblptru	equ	0xFF8
 16399                           tblptrh	equ	0xFF7
 16400                           tblptrl	equ	0xFF6
 16401                           tablat	equ	0xFF5
 16402                           prodh	equ	0xFF4
 16403                           prodl	equ	0xFF3
 16404                           intcon	equ	0xFF2
 16405                           intcon2	equ	0xFF1
 16406                           indf0	equ	0xFEF
 16407                           postinc0	equ	0xFEE
 16408                           fsr0h	equ	0xFEA
 16409                           fsr0l	equ	0xFE9
 16410                           wreg	equ	0xFE8
 16411                           indf1	equ	0xFE7
 16412                           postinc1	equ	0xFE6
 16413                           postdec1	equ	0xFE5
 16414                           fsr1h	equ	0xFE2
 16415                           fsr1l	equ	0xFE1
 16416                           bsr	equ	0xFE0
 16417                           indf2	equ	0xFDF
 16418                           postinc2	equ	0xFDE
 16419                           postdec2	equ	0xFDD
 16420                           fsr2h	equ	0xFDA
 16421                           fsr2l	equ	0xFD9
 16422                           status	equ	0xFD8
 16423                           
 16424                           	psect	rparam
 16425  0000                     pclatu	equ	0xFFB
 16426                           pclath	equ	0xFFA
 16427                           tblptru	equ	0xFF8
 16428                           tblptrh	equ	0xFF7
 16429                           tblptrl	equ	0xFF6
 16430                           tablat	equ	0xFF5
 16431                           prodh	equ	0xFF4
 16432                           prodl	equ	0xFF3
 16433                           intcon	equ	0xFF2
 16434                           intcon2	equ	0xFF1
 16435                           indf0	equ	0xFEF
 16436                           postinc0	equ	0xFEE
 16437                           fsr0h	equ	0xFEA
 16438                           fsr0l	equ	0xFE9
 16439                           wreg	equ	0xFE8
 16440                           indf1	equ	0xFE7
 16441                           postinc1	equ	0xFE6
 16442                           postdec1	equ	0xFE5
 16443                           fsr1h	equ	0xFE2
 16444                           fsr1l	equ	0xFE1
 16445                           bsr	equ	0xFE0
 16446                           indf2	equ	0xFDF
 16447                           postinc2	equ	0xFDE
 16448                           postdec2	equ	0xFDD
 16449                           fsr2h	equ	0xFDA
 16450                           fsr2l	equ	0xFD9
 16451                           status	equ	0xFD8


Data Sizes:
    Strings     622
    Constant    0
    Data        3
    BSS         3345
    Persistent  0
    Stack       0

Auto Spaces:
    Space          Size  Autos    Used
    COMRAM           95     32      64
    BANK0           160     46     146
    BANK1           256     42     230
    BANK2           256      0     128
    BANK3           256      0       0
    BANK4           256      0       0
    BANK5           256      0       0
    BANK6           256      0       0
    BANK7           256      0       0
    BANK8           256      0       0
    BANK9           256      0       0
    BANK10          256      0       0
    BANK11          256      0       0
    BANK12          256      0       0
    BANK13          256      0       0
    BANK14          176      0       0

Pointer List with Targets:

    strlen@s	PTR const unsigned char  size(2) Largest target is 1500
		 -> trameToParse(BANK1[30]), STR_123(CODE[12]), STR_122(CODE[12]), STR_121(CODE[16]), 
		 -> STR_120(CODE[58]), STR_119(CODE[45]), STR_118(CODE[20]), STR_117(CODE[12]), 
		 -> STR_116(CODE[13]), STR_115(CODE[25]), STR_114(CODE[26]), STR_113(CODE[28]), 
		 -> STR_112(CODE[12]), STR_111(CODE[12]), STrLengh@bufferTEMPO(COMRAM[10]), STR_8(CODE[16]), 
		 -> STR_7(CODE[6]), STR_6(CODE[13]), dataToSend(BIGRAM[1500]), POST@STrLenghC(BANK0[4]), 
		 -> STR_5(CODE[9]), my_FrameReceived.receivedFrameTDS(BIGRAM[5]), my_FrameReceived.receivedFrameEC(BIGRAM[5]), my_FrameReceived.receivedFramePH(BIGRAM[5]), 
		 -> my_FrameReceived.receivedFrameDO(BIGRAM[5]), my_FrameReceived(BIGRAM[1400]), STR_1(CODE[9]), 

    strlen@cp	PTR const unsigned char  size(2) Largest target is 1500
		 -> trameToParse(BANK1[30]), STR_123(CODE[12]), STR_122(CODE[12]), STR_121(CODE[16]), 
		 -> STR_120(CODE[58]), STR_119(CODE[45]), STR_118(CODE[20]), STR_117(CODE[12]), 
		 -> STR_116(CODE[13]), STR_115(CODE[25]), STR_114(CODE[26]), STR_113(CODE[28]), 
		 -> STR_112(CODE[12]), STR_111(CODE[12]), STrLengh@bufferTEMPO(COMRAM[10]), STR_8(CODE[16]), 
		 -> STR_7(CODE[6]), STR_6(CODE[13]), dataToSend(BIGRAM[1500]), POST@STrLenghC(BANK0[4]), 
		 -> STR_5(CODE[9]), my_FrameReceived.receivedFrameTDS(BIGRAM[5]), my_FrameReceived.receivedFrameEC(BIGRAM[5]), my_FrameReceived.receivedFramePH(BIGRAM[5]), 
		 -> my_FrameReceived.receivedFrameDO(BIGRAM[5]), my_FrameReceived(BIGRAM[1400]), STR_1(CODE[9]), 

    utoa@buf	PTR unsigned char  size(2) Largest target is 10
		 -> STrLengh@bufferTEMPO(COMRAM[10]), POST@STrLenghC(BANK0[4]), 

    sp__utoa	PTR unsigned char  size(2) Largest target is 10
		 -> STrLengh@bufferTEMPO(COMRAM[10]), POST@STrLenghC(BANK0[4]), 

    itoa@buf	PTR unsigned char  size(2) Largest target is 10
		 -> STrLengh@bufferTEMPO(COMRAM[10]), POST@STrLenghC(BANK0[4]), 

    itoa@cp	PTR unsigned char  size(2) Largest target is 10
		 -> STrLengh@bufferTEMPO(COMRAM[10]), POST@STrLenghC(BANK0[4]), 

    sprintf@f	PTR const unsigned char  size(2) Largest target is 6
		 -> STR_109(CODE[5]), STR_108(CODE[5]), STR_106(CODE[5]), STR_105(CODE[5]), 
		 -> STR_103(CODE[5]), STR_101(CODE[5]), STR_99(CODE[5]), STR_98(CODE[5]), 
		 -> STR_96(CODE[5]), STR_94(CODE[5]), STR_92(CODE[5]), STR_90(CODE[5]), 
		 -> STR_89(CODE[5]), STR_87(CODE[5]), STR_85(CODE[5]), STR_83(CODE[5]), 
		 -> STR_82(CODE[5]), STR_80(CODE[5]), STR_78(CODE[5]), STR_76(CODE[5]), 
		 -> STR_74(CODE[5]), STR_72(CODE[5]), STR_70(CODE[5]), STR_69(CODE[6]), 
		 -> STR_67(CODE[5]), STR_66(CODE[5]), STR_64(CODE[5]), STR_62(CODE[5]), 
		 -> STR_60(CODE[5]), STR_59(CODE[5]), STR_57(CODE[5]), STR_55(CODE[5]), 
		 -> STR_53(CODE[5]), STR_51(CODE[5]), STR_49(CODE[5]), STR_47(CODE[5]), 
		 -> STR_46(CODE[6]), STR_44(CODE[5]), STR_43(CODE[5]), STR_41(CODE[5]), 
		 -> STR_39(CODE[5]), STR_37(CODE[5]), STR_36(CODE[5]), STR_34(CODE[5]), 
		 -> STR_32(CODE[5]), STR_30(CODE[5]), STR_28(CODE[5]), STR_26(CODE[5]), 
		 -> STR_24(CODE[5]), STR_22(CODE[5]), STR_20(CODE[5]), STR_18(CODE[5]), 
		 -> STR_16(CODE[5]), STR_14(CODE[5]), STR_13(CODE[5]), STR_11(CODE[5]), 
		 -> STR_9(CODE[5]), 

    sprintf@_val._cp	PTR const unsigned char  size(2) Largest target is 1500
		 -> STR_124(CODE[7]), STR_110(CODE[22]), STR_107(CODE[4]), STR_104(CODE[12]), 
		 -> STR_102(CODE[5]), STR_100(CODE[16]), STR_97(CODE[15]), STR_95(CODE[10]), 
		 -> STR_93(CODE[8]), STR_91(CODE[4]), STR_88(CODE[12]), STR_86(CODE[5]), 
		 -> STR_84(CODE[16]), STR_81(CODE[15]), STR_79(CODE[10]), STR_77(CODE[8]), 
		 -> STR_75(CODE[11]), STR_73(CODE[7]), STR_71(CODE[16]), STR_68(CODE[4]), 
		 -> STR_65(CODE[12]), STR_63(CODE[5]), STR_61(CODE[16]), STR_58(CODE[15]), 
		 -> STR_56(CODE[10]), STR_54(CODE[8]), STR_52(CODE[11]), STR_50(CODE[7]), 
		 -> STR_48(CODE[16]), STR_45(CODE[4]), STR_42(CODE[12]), STR_40(CODE[5]), 
		 -> STR_38(CODE[16]), STR_35(CODE[15]), STR_33(CODE[10]), STR_31(CODE[8]), 
		 -> STR_29(CODE[11]), STR_27(CODE[7]), STR_25(CODE[16]), STR_23(CODE[12]), 
		 -> STR_21(CODE[15]), STR_19(CODE[16]), STR_17(CODE[7]), STR_15(CODE[16]), 
		 -> STR_12(CODE[13]), STR_10(CODE[25]), dataToSend(BIGRAM[1500]), timetoPost2(BANK0[10]), 
		 -> timetoPost(BANK0[27]), my_FrameReceived.receivedFrameTDS(BIGRAM[5]), my_FrameReceived.receivedFrameEC(BIGRAM[5]), my_FrameReceived.receivedFramePH(BIGRAM[5]), 
		 -> my_FrameReceived.receivedFrameDO(BIGRAM[5]), my_FrameReceived(BIGRAM[1400]), 

    sprintf@sp	PTR unsigned char  size(2) Largest target is 1500
		 -> dataToSend(BIGRAM[1500]), 

    sprintf@ap	PTR void [1] size(2) Largest target is 2
		 -> ?_sprintf(BANK0[2]), 

    S1917$_cp	PTR const unsigned char  size(2) Largest target is 1500
		 -> STR_124(CODE[7]), STR_110(CODE[22]), STR_107(CODE[4]), STR_104(CODE[12]), 
		 -> STR_102(CODE[5]), STR_100(CODE[16]), STR_97(CODE[15]), STR_95(CODE[10]), 
		 -> STR_93(CODE[8]), STR_91(CODE[4]), STR_88(CODE[12]), STR_86(CODE[5]), 
		 -> STR_84(CODE[16]), STR_81(CODE[15]), STR_79(CODE[10]), STR_77(CODE[8]), 
		 -> STR_75(CODE[11]), STR_73(CODE[7]), STR_71(CODE[16]), STR_68(CODE[4]), 
		 -> STR_65(CODE[12]), STR_63(CODE[5]), STR_61(CODE[16]), STR_58(CODE[15]), 
		 -> STR_56(CODE[10]), STR_54(CODE[8]), STR_52(CODE[11]), STR_50(CODE[7]), 
		 -> STR_48(CODE[16]), STR_45(CODE[4]), STR_42(CODE[12]), STR_40(CODE[5]), 
		 -> STR_38(CODE[16]), STR_35(CODE[15]), STR_33(CODE[10]), STR_31(CODE[8]), 
		 -> STR_29(CODE[11]), STR_27(CODE[7]), STR_25(CODE[16]), STR_23(CODE[12]), 
		 -> STR_21(CODE[15]), STR_19(CODE[16]), STR_17(CODE[7]), STR_15(CODE[16]), 
		 -> STR_12(CODE[13]), STR_10(CODE[25]), dataToSend(BIGRAM[1500]), timetoPost2(BANK0[10]), 
		 -> timetoPost(BANK0[27]), my_FrameReceived(BIGRAM[1400]), 

    _val._str._cp	PTR const unsigned char  size(2) Largest target is 1500
		 -> STR_124(CODE[7]), STR_110(CODE[22]), STR_107(CODE[4]), STR_104(CODE[12]), 
		 -> STR_102(CODE[5]), STR_100(CODE[16]), STR_97(CODE[15]), STR_95(CODE[10]), 
		 -> STR_93(CODE[8]), STR_91(CODE[4]), STR_88(CODE[12]), STR_86(CODE[5]), 
		 -> STR_84(CODE[16]), STR_81(CODE[15]), STR_79(CODE[10]), STR_77(CODE[8]), 
		 -> STR_75(CODE[11]), STR_73(CODE[7]), STR_71(CODE[16]), STR_68(CODE[4]), 
		 -> STR_65(CODE[12]), STR_63(CODE[5]), STR_61(CODE[16]), STR_58(CODE[15]), 
		 -> STR_56(CODE[10]), STR_54(CODE[8]), STR_52(CODE[11]), STR_50(CODE[7]), 
		 -> STR_48(CODE[16]), STR_45(CODE[4]), STR_42(CODE[12]), STR_40(CODE[5]), 
		 -> STR_38(CODE[16]), STR_35(CODE[15]), STR_33(CODE[10]), STR_31(CODE[8]), 
		 -> STR_29(CODE[11]), STR_27(CODE[7]), STR_25(CODE[16]), STR_23(CODE[12]), 
		 -> STR_21(CODE[15]), STR_19(CODE[16]), STR_17(CODE[7]), STR_15(CODE[16]), 
		 -> STR_12(CODE[13]), STR_10(CODE[25]), dataToSend(BIGRAM[1500]), timetoPost2(BANK0[10]), 
		 -> timetoPost(BANK0[27]), my_FrameReceived(BIGRAM[1400]), 

    writeUsart1Trame@datas2	PTR unsigned char  size(2) Largest target is 2
		 -> CtoS(BANK0[2]), STR_4(CODE[2]), STR_3(CODE[2]), STR_2(CODE[2]), 

    writeUsart1@datas1	PTR unsigned char  size(2) Largest target is 9
		 -> STR_1(CODE[9]), 

    writeUsart2@datas	PTR unsigned char  size(2) Largest target is 1500
		 -> STR_123(CODE[12]), STR_122(CODE[12]), STR_121(CODE[16]), STR_120(CODE[58]), 
		 -> STR_119(CODE[45]), STR_118(CODE[20]), STR_117(CODE[12]), STR_116(CODE[13]), 
		 -> STR_115(CODE[25]), STR_114(CODE[26]), STR_113(CODE[28]), STR_112(CODE[12]), 
		 -> STR_111(CODE[12]), STR_8(CODE[16]), STR_7(CODE[6]), STR_6(CODE[13]), 
		 -> dataToSend(BIGRAM[1500]), POST@STrLenghC(BANK0[4]), STR_5(CODE[9]), 

    sp__itoa	PTR unsigned char  size(2) Largest target is 10
		 -> STrLengh@bufferTEMPO(COMRAM[10]), POST@STrLenghC(BANK0[4]), 


Critical Paths under _main in COMRAM

    None.

Critical Paths under _high_isr in COMRAM

    _high_isr->_Read1USART
    _high_isr->_Read2USART

Critical Paths under _low_isr in COMRAM

    None.

Critical Paths under _main in BANK0

    _main->_POST
    _writeUsart1->_strlen
    _usartConfig2->_Open2USART
    _usartConfig->_Open1USART
    _startGSM->_writeUsart2
    _sendGSM->_writeUsart1Trame
    _readbuffer->_strlen
    _executeBuffer->_strlen
    _POST->_sendJsonDO
    _writeUsart2->_strlen
    _writeUsart1Trame->_send_char1USART
    _send_char1USART->_Write1USART
    _send_char2USART->_Write2USART
    _sendJsonDO->_sprintf
    _sprintf->___wmul
    _send_cr->_Write2USART
    _itoa->_utoa
    _utoa->___lwdiv
    _commun_delaiMS->___lwdiv
    _ClearMemory->_strlen
    _strlen->___wmul

Critical Paths under _high_isr in BANK0

    None.

Critical Paths under _low_isr in BANK0

    None.

Critical Paths under _main in BANK1

    _POST->_sendJsonDO

Critical Paths under _high_isr in BANK1

    None.

Critical Paths under _low_isr in BANK1

    None.

Critical Paths under _main in BANK2

    None.

Critical Paths under _high_isr in BANK2

    None.

Critical Paths under _low_isr in BANK2

    None.

Critical Paths under _main in BANK3

    None.

Critical Paths under _high_isr in BANK3

    None.

Critical Paths under _low_isr in BANK3

    None.

Critical Paths under _main in BANK4

    None.

Critical Paths under _high_isr in BANK4

    None.

Critical Paths under _low_isr in BANK4

    None.

Critical Paths under _main in BANK5

    None.

Critical Paths under _high_isr in BANK5

    None.

Critical Paths under _low_isr in BANK5

    None.

Critical Paths under _main in BANK6

    None.

Critical Paths under _high_isr in BANK6

    None.

Critical Paths under _low_isr in BANK6

    None.

Critical Paths under _main in BANK7

    None.

Critical Paths under _high_isr in BANK7

    None.

Critical Paths under _low_isr in BANK7

    None.

Critical Paths under _main in BANK8

    None.

Critical Paths under _high_isr in BANK8

    None.

Critical Paths under _low_isr in BANK8

    None.

Critical Paths under _main in BANK9

    None.

Critical Paths under _high_isr in BANK9

    None.

Critical Paths under _low_isr in BANK9

    None.

Critical Paths under _main in BANK10

    None.

Critical Paths under _high_isr in BANK10

    None.

Critical Paths under _low_isr in BANK10

    None.

Critical Paths under _main in BANK11

    None.

Critical Paths under _high_isr in BANK11

    None.

Critical Paths under _low_isr in BANK11

    None.

Critical Paths under _main in BANK12

    None.

Critical Paths under _high_isr in BANK12

    None.

Critical Paths under _low_isr in BANK12

    None.

Critical Paths under _main in BANK13

    None.

Critical Paths under _high_isr in BANK13

    None.

Critical Paths under _low_isr in BANK13

    None.

Critical Paths under _main in BANK14

    None.

Critical Paths under _high_isr in BANK14

    None.

Critical Paths under _low_isr in BANK14

    None.

Call Graph Tables:

 ---------------------------------------------------------------------------------
 (Depth) Function   	        Calls       Base Space   Used Autos Params    Refs
 ---------------------------------------------------------------------------------
 (0) _main                                                 6     1      5   71518
                                             40 BANK0      6     1      5
                        _ClearMemory
                               _POST
                      _RtccInitClock
     _commun_initialisationRegistres
                      _executeBuffer
                      _firstStartGSM
       _initialisation_ActiverTimer0
                         _readbuffer
                            _sendGSM
                           _startGSM
                        _usartConfig
                       _usartConfig2
                        _writeUsart1
 ---------------------------------------------------------------------------------
 (1) _writeUsart1                                          6     4      2    1950
                                             12 BANK0      6     4      2
                        _Write1USART
                             _strlen
 ---------------------------------------------------------------------------------
 (1) _usartConfig2                                         3     3      0     446
                                              6 BANK0      3     3      0
                         _Open2USART
 ---------------------------------------------------------------------------------
 (2) _Open2USART                                           6     4      2     375
                                              0 BANK0      6     4      2
 ---------------------------------------------------------------------------------
 (1) _usartConfig                                          3     3      0     446
                                              6 BANK0      3     3      0
                         _Open1USART
 ---------------------------------------------------------------------------------
 (2) _Open1USART                                           6     4      2     375
                                              0 BANK0      6     4      2
 ---------------------------------------------------------------------------------
 (1) _startGSM                                             1     1      0    4760
                                             18 BANK0      1     1      0
                        _Write1USART
                     _commun_delaiMS
                            _send_cr
                        _writeUsart2
 ---------------------------------------------------------------------------------
 (1) _sendGSM                                              1     1      0    3351
                                             19 BANK0      1     1      0
                     _commun_delaiMS
                   _writeUsart1Trame
 ---------------------------------------------------------------------------------
 (1) _readbuffer                                          17    17      0   11316
                                             12 BANK0     17    17      0
                        _Write1USART
                             ___wmul
                             _strlen
 ---------------------------------------------------------------------------------
 (1) _initialisation_ActiverTimer0                         0     0      0       0
 ---------------------------------------------------------------------------------
 (1) _firstStartGSM                                        1     1      0       0
                                              0 BANK0      1     1      0
 ---------------------------------------------------------------------------------
 (1) _executeBuffer                                        9     9      0   10575
                                             12 BANK0      9     9      0
                        _Write1USART
                             ___wmul
                             _strlen
 ---------------------------------------------------------------------------------
 (1) _commun_initialisationRegistres                       0     0      0       0
 ---------------------------------------------------------------------------------
 (1) _RtccInitClock                                        0     0      0       0
                           _RtccWrOn
 ---------------------------------------------------------------------------------
 (2) _RtccWrOn                                             2     2      0       0
 ---------------------------------------------------------------------------------
 (1) _POST                                                11    11      0   28240
                                             29 BANK0     11    11      0
                     _commun_delaiMS
                               _itoa
                         _sendJsonDO
                    _send_char2USART
                            _send_cr
                             _strlen
                   _writeUsart1Trame
                        _writeUsart2
 ---------------------------------------------------------------------------------
 (2) _writeUsart2                                          6     4      2    3089
                                             12 BANK0      6     4      2
                        _Write2USART
                             _strlen
 ---------------------------------------------------------------------------------
 (2) _writeUsart1Trame                                    17    11      6    1742
                                              2 BANK0     17    11      6
                    _send_char1USART
 ---------------------------------------------------------------------------------
 (3) _send_char1USART                                      1     1      0      62
                                              1 BANK0      1     1      0
                        _Write1USART
 ---------------------------------------------------------------------------------
 (2) _Write1USART                                          1     1      0      31
                                              0 BANK0      1     1      0
 ---------------------------------------------------------------------------------
 (2) _send_char2USART                                      1     1      0      62
                                              1 BANK0      1     1      0
                        _Write2USART
 ---------------------------------------------------------------------------------
 (2) _sendJsonDO                                          47    47      0   16823
                                             24 BANK0      5     5      0
                                              0 BANK1     42    42      0
                             ___wmul
                            _send_cr
                            _sprintf
 ---------------------------------------------------------------------------------
 (3) _sprintf                                             19    11      8    7781
                                              6 BANK0     18    10      8
                             ___wmul (ARG)
 ---------------------------------------------------------------------------------
 (2) _send_cr                                              0     0      0      31
                        _Write2USART
 ---------------------------------------------------------------------------------
 (3) _Write2USART                                          1     1      0      31
                                              0 BANK0      1     1      0
 ---------------------------------------------------------------------------------
 (2) _itoa                                                 8     2      6    2836
                                             17 BANK0      8     2      6
                               _utoa
 ---------------------------------------------------------------------------------
 (3) _utoa                                                 9     3      6    1628
                                              8 BANK0      9     3      6
                            ___lwdiv
                            ___lwmod
 ---------------------------------------------------------------------------------
 (4) ___lwmod                                              6     2      4     362
                                              0 BANK0      6     2      4
 ---------------------------------------------------------------------------------
 (2) _commun_delaiMS                                       5     3      2    1609
                                              8 BANK0      5     3      2
                            ___lwdiv
 ---------------------------------------------------------------------------------
 (3) ___lwdiv                                              8     4      4     631
                                              0 BANK0      8     4      4
 ---------------------------------------------------------------------------------
 (1) _ClearMemory                                         14    14      0   10434
                                             12 BANK0     14    14      0
                             ___wmul
                             _strlen
 ---------------------------------------------------------------------------------
 (2) _strlen                                               6     4      2    1690
                                              6 BANK0      6     4      2
                             ___wmul (ARG)
 ---------------------------------------------------------------------------------
 (2) ___wmul                                               6     2      4    8032
                                              0 BANK0      6     2      4
 ---------------------------------------------------------------------------------
 Estimated maximum stack depth 4
 ---------------------------------------------------------------------------------
 (Depth) Function   	        Calls       Base Space   Used Autos Params    Refs
 ---------------------------------------------------------------------------------
 (5) _low_isr                                             17    17      0       0
                                              0 COMRAM    17    17      0
 ---------------------------------------------------------------------------------
 Estimated maximum stack depth 5
 ---------------------------------------------------------------------------------
 (Depth) Function   	        Calls       Base Space   Used Autos Params    Refs
 ---------------------------------------------------------------------------------
 (6) _high_isr                                            14    14      0      46
                                             18 COMRAM    14    14      0
                         _Read1USART
                         _Read2USART
 ---------------------------------------------------------------------------------
 (7) _Read2USART                                           1     1      0      23
                                             17 COMRAM     1     1      0
 ---------------------------------------------------------------------------------
 (7) _Read1USART                                           1     1      0      23
                                             17 COMRAM     1     1      0
 ---------------------------------------------------------------------------------
 Estimated maximum stack depth 7
 ---------------------------------------------------------------------------------

 Call Graph Graphs:

 _main (ROOT)
   _ClearMemory
     ___wmul
     _strlen
       ___wmul (ARG)
   _POST
     _commun_delaiMS
       ___lwdiv
     _itoa
       _utoa
         ___lwdiv
         ___lwmod
     _sendJsonDO
       ___wmul
       _send_cr
         _Write2USART
       _sprintf
         ___wmul (ARG)
     _send_char2USART
       _Write2USART
     _send_cr
       _Write2USART
     _strlen
       ___wmul (ARG)
     _writeUsart1Trame
       _send_char1USART
         _Write1USART
     _writeUsart2
       _Write2USART
       _strlen
         ___wmul (ARG)
   _RtccInitClock
     _RtccWrOn
   _commun_initialisationRegistres
   _executeBuffer
     _Write1USART
     ___wmul
     _strlen
       ___wmul (ARG)
   _firstStartGSM
   _initialisation_ActiverTimer0
   _readbuffer
     _Write1USART
     ___wmul
     _strlen
       ___wmul (ARG)
   _sendGSM
     _commun_delaiMS
       ___lwdiv
     _writeUsart1Trame
       _send_char1USART
         _Write1USART
   _startGSM
     _Write1USART
     _commun_delaiMS
       ___lwdiv
     _send_cr
       _Write2USART
     _writeUsart2
       _Write2USART
       _strlen
         ___wmul (ARG)
   _usartConfig
     _Open1USART
   _usartConfig2
     _Open2USART
   _writeUsart1
     _Write1USART
     _strlen
       ___wmul (ARG)

 _low_isr (ROOT)

 _high_isr (ROOT)
   _Read1USART
   _Read2USART

 Address spaces:
Name               Size   Autos  Total    Cost      Usage
BIGRAM             EAF      0     B54      35       77.1%
BITBANK13          100      0       0      31        0.0%
BANK13             100      0       0      32        0.0%
BITBANK12          100      0       0      29        0.0%
BANK12             100      0       0      30        0.0%
BITBANK11          100      0       0      27        0.0%
BANK11             100      0       0      28        0.0%
BITBANK10          100      0       0      25        0.0%
BANK10             100      0       0      26        0.0%
BITBANK9           100      0       0      23        0.0%
BANK9              100      0       0      24        0.0%
BITBANK8           100      0       0      21        0.0%
BANK8              100      0       0      22        0.0%
BITBANK7           100      0       0      19        0.0%
BANK7              100      0       0      20        0.0%
BITBANK6           100      0       0      17        0.0%
BANK6              100      0       0      18        0.0%
BITBANK5           100      0       0      15        0.0%
BANK5              100      0       0      16        0.0%
BITBANK4           100      0       0      13        0.0%
BANK4              100      0       0      14        0.0%
BITBANK3           100      0       0      11        0.0%
BANK3              100      0       0      12        0.0%
BITBANK2           100      0       0       9        0.0%
BANK2              100      0      80      10       50.0%
BITBANK1           100      0       0       7        0.0%
BANK1              100     2A      E6       8       89.8%
BITBANK14           B0      0       0      33        0.0%
BANK14              B0      0       0      34        0.0%
BITBANK0            A0      0       0       4        0.0%
BANK0               A0     2E      92       5       91.3%
BITCOMRAM           5F      0       0       0        0.0%
COMRAM              5F     20      40       1       67.4%
BITSFR_2             0      0       0      40        0.0%
SFR_2                0      0       0      40        0.0%
BITSFR_1             0      0       0      40        0.0%
SFR_1                0      0       0      40        0.0%
BITSFR               0      0       0      40        0.0%
SFR                  0      0       0      40        0.0%
STACK                0      0       0       2        0.0%
NULL                 0      0       0       0        0.0%
ABS                  0      0     238       6        0.0%
DATA                 0      0     D8C       3        0.0%
CODE                 0      0       0       0        0.0%


Microchip Technology PIC18 Macro Assembler V1.30 build 55553 
Symbol Table                                                                                   Tue Jun 10 16:06:42 2014

               __size_of_send_char1USART 0014                 __size_of_send_char2USART 0014  
                          readbuffer@br1 00DB                            readbuffer@br2 00DE  
                       _writeUsart1Trame 3F52                                       _VO 0035  
                                     _Vg 0095                                       _Vo 0096  
                                     _Vq 0097                                       _Vu 0099  
                                     _Vy 009A                                       _rx 003D  
                                     bsr 000FE0                      ___wmul@multiplicand 00C4  
   __end_of_initialisation_ActiverTimer0 4F32    __size_of_initialisation_ActiverTimer0 0022  
           _initialisation_ActiverTimer0 4F10                             __CFG_CP0$OFF 000000  
                            __CFG_OSC$HS 000000                                      l704 351E  
                                    l642 07CA                                      l714 358E  
                                    l651 0CC2                                      l709 3556  
                                    l690 3472                                      l694 34AE  
                                    l699 34E6                                      l980 2C94  
                                    l975 2C92                                      l976 2C80  
                                    l897 1992                                      _VFC 0092  
                                    _VKA 0034                                      _VPH 0093  
                                    _VOK 00F0                    __size_of_usartConfig2 0074  
                                    _rx2 003E                   __size_of_firstStartGSM 0084  
                                    wreg 000FE8                          readbuffer@erase 00D3  
                             _TXSTA1bits 000FAD                             __CFG_IESO$ON 000000  
                             _TXSTA2bits 000FA8                         _valuTestCheckSum 008E  
                            _virguleRecu 0090                              _usartConfig 4E94  
                                   l1111 4FEE                                     l1201 4BB2  
                                   l1123 4FCA                                     l1131 489E  
                                   l1117 4FA2                                     l1205 4BD0  
                                   l1141 4644                                     l1207 4BDE  
                                   l1208 4BE0                                     l1260 4ADA  
                                   l1261 4ADC                                     l1253 4AA8  
                                   l1255 4AB6                                     l1258 4ACC  
                                   l1730 4778                                     l1830 49E0  
                                   l1840 4A6A                                     l7004 39F0  
                                   l7014 3B40                                     l7024 3C6E  
                                   l7008 3A60                                     l8000 06E0  
                                   l7034 3DBE                                     l7018 3B9C  
                                   l7130 3572                                     l7106 3502  
                                   l7028 3CDE                                     l7300 398C  
                                   l7038 3E2E                                     l7046 3F08  
                                   l8102 118A                                     l8006 0734  
                                   l7214 3770                                     l7142 35AA  
                                   l7118 353A                                     l8040 0BBE  
                                   l8016 08A6                                     l8008 077E  
                                   l7320 2E34                                     l7232 37E0  
                                   l7160 3620                                     l7080 348C  
                                   l8202 4428                                     l8210 44C8  
                                   l7066 344A                                     l8132 1518  
                                   l8060 0D9E                                     l8052 0C76  
                                   l7412 3052                                     l6710 4E5C  
                                   l8206 4456                                     l8126 14C4  
                                   l8134 1562                                     l8046 0C12  
                                   l7094 34CA                                     l8208 4494  
                                   l8056 0C8E                                     l8048 0C5C  
                                   l7264 389C                                     l7248 383E  
                                   l6706 4E44                                     l8170 4DAC  
                                   l7514 339E                                     l7426 30CE  
                                   l7282 390C                                     l7178 3690  
                                   l8324 46DC                                     l8308 4FE8  
                                   l8180 4372                                     l8092 10DC  
                                   l6900 267C                                     l7540 1714  
                                   l7196 3700                                     l6740 420A  
                                   l8334 4726                                     l7470 323A  
                                   l6902 2684                                     l7606 191E  
                                   l6750 425C                                     l8360 497E  
                                   l6912 27E0                                     l7704 1C9A  
                                   l7640 1A0E                                     l7616 1972  
                                   l7552 176E                                     l7536 16E4  
                                   l7608 1932                                     l6840 4684  
                                   l8370 49CC                                     l8362 4986  
                                   l8186 4396                                     l8098 1130  
                                   l7722 1DC4                                     l7546 173C  
                                   l7538 1706                                     l7802 4BD2  
                                   l8380 4A1A                                     l8196 43E8  
                                   l8188 43A8                                     l8276 4FC0  
                                   l7900 4018                                     l7484 329E  
                                   l6828 4F08                                     l6940 2A64  
                                   l6924 28CA                                     l6916 2816  
                                   l7732 1F00                                     l7636 19FA  
                                   l7628 19C6                                     l7580 1872  
                                   l6772 4322                                     l6756 427A  
                                   l8358 496C                                     l8382 4A22  
                                   l7902 4058                                     l7398 2FD6  
                                   l6950 2B20                                     l6926 28D2  
                                   l7742 2042                                     l7718 1D54  
                                   l7670 1B54                                     l7654 1AA2  
                                   l7574 183E                                     l7582 1878  
                                   l7566 17CA                                     l7558 1796  
                                   l7830 4AAA                                     l7822 4A94  
                                   l6766 4304                                     l6960 2C6C  
                                   l6936 2A2E                                     l7752 2192  
                                   l7728 1EA4                                     l7760 226C  
                                   l7680 1BBA                                     l7664 1B08  
                                   l7648 1A62                                     l8386 4A56  
                                   l8378 4A08                                     l7914 412E  
                                   l7770 22FE                                     l7738 1FD2  
                                   l7674 1B7E                                     l7658 1ACC  
                                   l7842 4ACE                                     l7834 4AB8  
                                   l7908 408A                                     l7940 48F0  
                                   l6980 2D14                                     l6964 2C78  
                                   l6948 2B18                                     l6892 25C8  
                                   l6876 242E                                     l6868 238E  
                                   l7748 2122                                     l7764 22B6  
                                   l7692 1C56                                     l7588 189E  
                                   l6788 4356                                     l7854 4C10  
                                   l6982 2D22                                     l6878 2436  
                                   l7686 1C02                                     l7598 18F4  
                                   l7790 4BB4                                     l7782 4B9E  
                                   l7856 4C18                                     l7880 3FBA  
                                   l7872 3F8A                                     l6976 2CA8  
                                   l6992 2DB4                                     l6888 2592  
                                   l7696 1C80                                     l7890 3FE8  
                                   l6978 2CB6                                     l6994 2DDE  
                                   l7884 3FD4                                     l7876 3FA2  
                                   l7868 3F7C                                     l6988 2DA2  
                                   l7894 4000                                     l7976 03A6  
                                   STR_1 FFA6                                     STR_2 FFFB  
                                   STR_3 FFF9                                     STR_4 FFFD  
                                   STR_5 FF9D                                     STR_6 FF15  
                                   STR_7 FFE0                                     STR_8 FEDA  
                                   STR_9 FFE6                                     u6085 18DE  
                                   u6095 1944                                     u6620 4C3E  
                                   u6711 007A                                     u6640 40CC  
                                   u7257 4E4C                                     u4945 421C  
                                   u6650 4112                                     u6627 4C34  
                                   u4955 4232                                     u6647 40C2  
                                   u6657 4108                                     u6690 48E4  
                                   u6950 4416                                     u6960 444E  
                                   u6697 48DA                                     u5985 16B6  
                                   u6957 440C                                     u6967 4444  
                                   _POST 2DE8                                     _VSOH 0036  
                                   _CtoS 00C0                            __CFG_FCMEN$ON 000000  
                         Read1USART@data 0012                                     _main 41DE  
                                   _itoa 4D62                                     fsr0h 000FEA  
                                   fsr1h 000FE2                                     indf0 000FEF  
                                   fsr0l 000FE9                                     fsr2h 000FDA  
                                   indf1 000FE7                                     fsr1l 000FE1  
                                   indf2 000FDF                                     fsr2l 000FD9  
                                   _utoa 46D4                                     pclat 000FFA  
                         _commun_delaiMS 4E34                                     prodh 000FF4  
                                   prodl 000FF3                                     start 00A2  
                         Read2USART@data 0012                 writeUsart1Trame@checksum 00D1  
                           _usartConfig2 4CEE                 writeUsart1Trame@datatime 00C6  
                                  ?_POST 0001                            __CFG_PLLDIV$1 000000  
                                  POST@v 00E8                                    ?_main 00EA  
                                  ?_itoa 00D3                                    STR_10 FE47  
                                  STR_11 FFE6                                    STR_12 FEEC  
                                  STR_20 FFE6                                    STR_13 FFE6  
                                  STR_21 FEF9                                    STR_30 FFE6  
                                  STR_22 FFE6                                    STR_14 FFE6  
                                  STR_31 FFAF                                    STR_23 FF5E  
                                  STR_15 FE8A                                    STR_32 FFE6  
                                  STR_24 FFE6                                    STR_16 FFE6  
                                  STR_40 FFEB                                    STR_41 FFE6  
                                  STR_17 FFC5                                    STR_33 FF75  
                                  STR_25 FEBA                                    STR_34 FFE6  
                                  STR_26 FFE6                                    STR_18 FFE6  
                                  STR_50 FFBE                                    STR_42 FF22  
                                  STR_51 FFE6                                    STR_43 FFE6  
                                  STR_27 FFCC                                    STR_35 FEEA  
                                  STR_19 FEAA                                    STR_52 FF6A  
                                  STR_60 FFE6                                    STR_44 FFE6  
                                  STR_36 FFE6                                    STR_28 FFE6  
                                  STR_61 FE9A                                    STR_53 FFE6  
                                  STR_37 FFE6                                    STR_45 FFF5  
                                  STR_29 FF6A                                    STR_54 FFAF  
                                  STR_70 FFE6                                    STR_62 FFE6  
                                  STR_46 FFDA                                    STR_38 FE9A  
                                  STR_71 FEBA                                    STR_55 FFE6  
                                  STR_47 FFE6                                    STR_39 FFE6  
                                  STR_63 FFEB                                    STR_48 FEBA  
                                  STR_80 FFE6                                    STR_72 FFE6  
                                  STR_64 FFE6                                    STR_56 FF7F  
                                  STR_81 FEEA                                    STR_65 FF22  
                                  STR_57 FFE6                                    STR_49 FFE6  
                                  STR_73 FFD3                                    STR_58 FEEA  
                                  STR_90 FFE6                                    STR_82 FFE6  
                                  STR_74 FFE6                                    STR_66 FFE6  
                                  STR_91 FFF5                                    STR_75 FF6A  
                                  STR_83 FFE6                                    STR_67 FFE6  
                                  STR_59 FFE6                                    STR_84 FE9A  
                                  STR_68 FFF5                                    STR_92 FFE6  
                                  STR_76 FFE6                                    STR_93 FFAF  
                                  STR_77 FFAF                                    STR_69 FFDA  
                                  STR_85 FFE6                                    STR_94 FFE6  
                                  STR_78 FFE6                                    STR_86 FFEB  
                                  STR_87 FFE6                                    STR_95 FF93  
                                  STR_79 FF89                                    STR_88 FF22  
                                  STR_96 FFE6                                    STR_97 FEEA  
                                  STR_89 FFE6                                    STR_98 FFE6  
                                  STR_99 FFE6            ?_initialisation_ActiverTimer0 0001  
                                  ?_utoa 00CA                                    _T0CON 000FD5  
                        __end_of___lwdiv 49EA                          __end_of___lwmod 4A74  
                                  i2l279 45A8                                    _TMR0H 000FD7  
                                  _TMR0L 000FD6                                    _RPOR8 000EC8  
                            _writeUsart1 45E2                              _writeUsart2 4880  
                                  _VPOST 0094                                    _VSOok 0037  
                                  _Ctime 0021                     send_char1USART@text1 00C3  
                         __CFG_CLKOEC$ON 000000                          __end_of_sendGSM 4880  
                             _Read1USART 4F50                               _Read2USART 4F32  
                        __end_of_send_cr 4FFA                          __end_of_low_isr 00A2  
                                  tablat 000FF5                              _ClearMemory 39BE  
                         _compteurTimer0 0027                   __end_of_commun_delaiMS 4E94  
                           _VpowerSensor 0040                                    utoa@c 00D2  
                                  utoa@v 00D0                                    status 000FD8  
                      __CFG_DSWDTPS$8192 000000                          __end_of_sprintf 44D6  
                          _firstStartGSM 4AFA                  __CFG_DSWDTOSC$INTOSCREF 000000  
                           __end_of_POST 33E2                          __initialization 4C7A  
                   send_char2USART@text2 00C3                             __end_of_main 435C  
                           __end_of_itoa 4DD2                             __end_of_utoa 47AE  
                                 ??_POST 00DF                    __end_of_RtccInitClock 4F10  
                             _Open1USART 4B7E                               _Open2USART 4A74  
                                 ??_main 00EF                                   ??_itoa 00D9  
                      ??_send_char1USART 00C3                                   ??_utoa 00D0  
                 __size_of_executeBuffer 0AAC                        ??_send_char2USART 00C3  
                          __activetblptr 000003                         __end_of_RtccWrOn 4F9E  
                       _ChecksumReceived 0078                         writeUsart2@datas 00CE  
                       writeUsart1@lengh 00D2                                   STR_100 FE9A  
                                 STR_101 FFE6                                   STR_102 FFEB  
                                 STR_110 FE60                                   STR_103 FFE6  
                                 STR_111 FF2E                                   STR_104 FF22  
                                 STR_112 FF2E                                   STR_120 FD91  
                                 STR_105 FFE6                                   STR_121 FECA  
                                 STR_113 FDF8                                   STR_106 FFE6  
                                 STR_122 FF3A                                   STR_114 FE14  
                                 STR_107 FFF5                                   STR_123 FF46  
                                 STR_115 FE2E                                   STR_108 FFF0  
                                 STR_124 FFB7                                   STR_116 FF08  
                                 STR_109 FFE6                                   STR_117 FF52  
                                 STR_118 FE76                                   STR_119 FDCB  
                       writeUsart2@lengh 00D2                                   _EECON2 000FA7  
                                 i2l1218 4F5E                                   i2l1271 4F40  
                         __CFG_WDTEN$OFF 000000                                   i2l4822 452C  
                                 i2l4840 457E                                   i2l4826 4542  
                                 i2l4836 4568                                   _RCREG1 000FAF  
                                 _RCREG2 000FAA                                   _RCSTA1 000FAC  
                                 _RCSTA2 000F9C                          ?_commun_delaiMS 00CA  
                                 _RTCCAL 000F3E                                   _SPBRG1 000FB0  
                                 _RTCCFG 000F3F                                   _SPBRG2 000FAB  
                                 _PPSCON 000EBF                           __CFG_WPCFG$OFF 000000  
                                 _TXREG1 000FAE                                   _TXREG2 000FA9  
                         ?_firstStartGSM 0001                                   _TXSTA1 000FAD  
                                 _TXSTA2 000FA8                           __CFG_WPDIS$OFF 000000  
                         __CFG_XINST$OFF 000000                         __end_of_high_isr 45E2  
                                 ___wmul 4DD2                           __CFG_STVREN$ON 000000  
                              ??___lwdiv 00C6                                ??___lwmod 00C6  
                                 clear_0 4C82                                   clear_1 4C94  
                                 clear_2 4CA0                                   clear_3 4CAC  
                                 clear_4 4CB8                                   _timeRE 00F1  
 __end_of_commun_initialisationRegistres 4F8A  __size_of_commun_initialisationRegistres 001C  
         _commun_initialisationRegistres 4F6E                                   _strlen 4BFE  
                                 itoa@cp 00D9                             __pdataCOMRAM 0040  
                              ??_sendGSM 00D5                             __mediumconst FD90  
                              ??_send_cr 00C3                                ??_low_isr 0001  
                                 tblptrh 000FF7                                   tblptrl 000FF6  
                                 tblptru 000FF8                         __end_of_startGSM 39BE  
         ??_initialisation_ActiverTimer0 00C2                                ??_sprintf 00D0  
                            ?_Read1USART 0001                              ?_Read2USART 0001  
               __end_of_writeUsart1Trame 41DE                               __accesstop 0060  
                __end_of__initialization 4CE8                              readbuffer@g 00DC  
                          _executeBuffer 233C                          __CFG_IOL1WAY$ON 000000  
                   __CFG_WPEND$PAGE_WPFP 000000                           __pcstackCOMRAM 0001  
                           __pidataBANK0 4FFA                    sendJsonDO@bufferTEMPO 01BC  
                            ?_Open1USART 00C2                              ?_Open2USART 00C2  
                           ?_usartConfig 0001                               _idReceived 0029  
                        commun_delaiMS@i 00CD                      usartConfig@baudRate 00C9  
                             _dataToSend 0280                               __pbssBANK0 0060  
                             __pbssBANK1 0100                               __pbssBANK2 0200  
                        ??_firstStartGSM 00C2                            ??_Write1USART 00C2  
                         ?_executeBuffer 0001                            ??_Write2USART 00C2  
                             _nbFrameTDS 008A                        __CFG_PLLSEL$PLL4X 000000  
                              ?_RtccWrOn 0001                                  ?___wmul 00C2  
                      writeUsart1@datas1 00CE                              sendJsonDO@l 01CE  
                              POST@F9759 0074                      __size_of_Read1USART 001E  
                    __size_of_Read2USART 001E                     usartConfig2@baudRate 00C9  
                                ?_strlen 00C8                               _mcStartGSM 002B  
                       Open1USART@config 00C7                             ?_writeUsart1 00CE  
                           ?_writeUsart2 00CE                                POST@erase 00E6  
                             _bufferint1 0100                               _bufferint2 0200  
                                _SPBRGH1 000F7F                                  _SPBRGH2 000F7D  
                                _RPINR16 000EF7                                ?_high_isr 0001  
                           ?_ClearMemory 0001                      __size_of_Open1USART 0080  
                    __size_of_Open2USART 0086                 usartConfig2@USART2config 00CA  
                                __Hparam 0000                                  __Lparam 0000  
                        _send_char1USART 4F9E                          _send_char2USART 4FC6  
                             ??_RtccWrOn 00C2                      __end_of_Write1USART 4FC6  
                    __end_of_Write2USART 4FEE                                ?_startGSM 0001  
                        __size_of___wmul 0062                                  ___lwdiv 4940  
                                ___lwmod 49EA                                  _Vstarta 0039  
                                _Vstartd 003A                                  _Vstarte 003B  
                  __CFG_RTCOSC$INTOSCREF 000000                                  __pcinit 4C7A  
                                __ramtop 0F00                                  __ptext0 41DE  
                                __ptext1 45E2                                  __ptext2 4CEE  
                                __ptext3 4A74                                  __ptext4 4E94  
                                __ptext5 4B7E                                  __ptext6 33E2  
                                __ptext7 47AE                                  __ptext8 1684  
                                __ptext9 4F10                               _readbuffer 1684  
                              _T0CONbits 000FD5                          __size_of_strlen 007C  
                              _T1CONbits 000FCD                         Open2USART@config 00C7  
                                _sendGSM 47AE                                  _send_cr 4FEE  
                                _low_isr 0018                         ??_commun_delaiMS 00CC  
                           _buffer1Write 0023                             _buffer2Write 0025  
                                _sprintf 435C                               ??_high_isr 0013  
                         __pintcode_body 44D6                          ??_executeBuffer 00CE  
                   end_of_initialization 4CE8                               _sendJsonDO 0000  
                                itoa@buf 00D3                                  itoa@val 00D5  
                                int_func 44D6                         ClearMemory@erase 00D2  
                        sendJsonDO@F9779 006A                           _VtrameReceived 0098  
                                postdec1 000FE5                                  postdec2 000FDD  
                                postinc0 000FEE                                  postinc1 000FE6  
                                postinc2 000FDE                               ??_startGSM 00D4  
                                utoa@buf 00CA                                  utoa@val 00CC  
                                strlen@s 00C8                                _PORTBbits 000F81  
                              _PORTCbits 000F82                               _timetoPost 009B  
                       __CFG_DSBOREN$OFF 000000                          sendJsonDO@erase 01D6  
                              _TRISAbits 000F92                                _TRISBbits 000F93  
                              _TRISCbits 000F94                             ??_Read1USART 0012  
                      __CFG_SOSCSEL$HIGH 000000                             ??_Read2USART 0012  
        ?_commun_initialisationRegistres 0001         ??_commun_initialisationRegistres 00C2  
                   __size_of_usartConfig 004E                        ?_writeUsart1Trame 00C4  
                __end_of_send_char1USART 4FB2                  __end_of_send_char2USART 4FDA  
                 __size_of_RtccInitClock 002E                              _Write1USART 4FB2  
                            _Write2USART 4FDA                        __CFG_WPFP$PAGE_63 000000  
                     ??_writeUsart1Trame 00CA                      __CFG_MSSP7B_EN$MSK7 000000  
                         __end_of___wmul 4E34                            __pidataCOMRAM 4FFC  
                           ??_Open1USART 00C4                             ??_Open2USART 00C4  
                     __end_of_Read1USART 4F6E                       __end_of_Read2USART 4F50  
                            ?_readbuffer 0001                         __CFG_DSWDTEN$OFF 000000  
                         executeBuffer@w 00D3                           executeBuffer@y 00D5  
                         __end_of_strlen 4C7A                      start_initialization 4C7A  
                       _checksumtoChesck 007E                     __size_of_writeUsart1 00F2  
                   __size_of_writeUsart2 00C0                              _VstartReady 0038  
                            ?_sendJsonDO 0001                         _my_FrameReceived 085C  
                   __size_of_ClearMemory 0594                       __end_of_Open1USART 4BFE  
                           ClearMemory@g 00DA                       __end_of_Open2USART 4AFA  
                          ?_usartConfig2 0001                                 ??___wmul 00C6  
                      __CFG_ADCSEL$BIT12 000000                              __pdataBANK0 00F0  
                      __size_of_RtccWrOn 0014                            _RtccInitClock 4EE2  
                       commun_delaiMS@ms 00CA                                 ??_strlen 00CA  
                            __pbssBIGRAM 0280                              __pbssCOMRAM 0021  
                          __pcstackBANK0 00C2                            __pcstackBANK1 01BC  
                    __end_of__stringdata FFFF                     sendJsonDO@erase_1454 01D8  
                   sendJsonDO@erase_1479 01DA                     sendJsonDO@erase_1497 01DC  
                       ?_send_char1USART 0001                        __size_of_high_isr 45DA  
                       ?_send_char2USART 0001                              sprintf@_val 00D6  
                            sprintf@flag 00D2                    __end_of_firstStartGSM 4B7E  
                   sendJsonDO@nbdataITDS 01CC                      __size_of_readbuffer 0CB8  
                              _nbFrameEC 0086                                _nbFrameDO 0084  
                              _nbFramePH 0088                         ___lwdiv@dividend 00C2  
                         ??_usartConfig2 00C8                                __pintcode 0008  
                          __pmediumconst FD90                                _mcPostGSM 0082  
                               ?___lwdiv 00C2                                 ?___lwmod 00C2  
                            __pintcodelo 0018                           ?_RtccInitClock 0001  
                    __size_of_sendJsonDO 1684                          Open1USART@spbrg 00C2  
                      __size_of_startGSM 05DC                                 ?_sendGSM 0001  
                               ?_send_cr 0001                                 ?_low_isr 0001  
                          POST@STrLenghC 00E0                            POST@STrLenghI 00E4  
                       ___lwdiv@quotient 00C8                                 ?_sprintf 00C8  
                        Write1USART@data 00C2                          Open2USART@spbrg 00C2  
                            _buffer1Read 007A                              _buffer2Read 007C  
                         ___wmul@product 00C6                          Write2USART@data 00C2  
                               _PIE1bits 000F9D                                 _PIE3bits 000FA3  
              writeUsart1Trame@dataLengh 00CF                                 _PIR1bits 000F9E  
                               _PIR3bits 000FA4                       writeUsart1Trame@id 00C8  
                               _RCONbits 000FD0                  usartConfig@USART1config 00CA  
                       __CFG_WDTPS$32768 000000                                 _VERROR_E 0031  
                               _VERROR_O 0032                                 _VERROR_R 0033  
                            __stringdata FD91                        ___wmul@multiplier 00C2  
                      __CFG_CFGPLLEN$OFF 000000                   writeUsart1Trame@datas2 00C4  
                            _INTCON2bits 000FF1                    __end_of_executeBuffer 2DE8  
                           ?_Write1USART 0001                             ?_Write2USART 0001  
                          STrLengh@F9790 0060                               _ANCON0bits 000F48  
                               __Hrparam 0000                                 __Lrparam 0000  
                               _RtccWrOn 4F8A                          ??_RtccInitClock 00C2  
              __size_of_writeUsart1Trame 028C                         __size_of___lwdiv 00AA  
                       __size_of___lwmod 008A                             ??_readbuffer 00CE  
                    sendJsonDO@nbdataIEC 01CA                      sendJsonDO@nbdataIPH 01C8  
                               _nbOfChar 002D                         __size_of_sendGSM 00D2  
                        ___lwdiv@divisor 00C4                            ??_usartConfig 00C8  
                        ___lwdiv@counter 00C7                         __size_of_send_cr 000C  
                       __size_of_low_isr 008A                                 __ptext10 4AFA  
                               __ptext11 233C                                 __ptext20 4FC6  
                               __ptext12 4F6E                                 __ptext21 0000  
                               __ptext13 4EE2                                 __ptext30 39BE  
                               __ptext22 435C                                 __ptext14 4F8A  
                               __ptext31 4BFE                                 __ptext23 4FEE  
                               __ptext15 2DE8                                 __ptext32 4DD2  
                               __ptext24 4FDA                                 __ptext16 4880  
                               __ptext25 4D62                                 __ptext17 3F52  
                               __ptext26 46D4                                 __ptext18 4F9E  
                               __ptext35 4F32                                 __ptext27 49EA  
                               __ptext19 4FB2                                 __ptext36 4F50  
                               __ptext28 4E34                                 __ptext29 4940  
                   __end_of_usartConfig2 4D62                    ClearMemory@erase_1122 00D4  
                  ClearMemory@erase_1123 00D6                    ClearMemory@erase_1124 00D8  
                               _high_isr 0008                             ??_sendJsonDO 00DA  
                            _readingTime 008C                         __size_of_sprintf 017A  
                          __size_of_POST 05FA                            __size_of_main 017E  
                          __size_of_itoa 0070                            __size_of_utoa 00DA  
                               _takeTime 003F                  __size_of_commun_delaiMS 0060  
                     __end_of_readbuffer 233C                             _timeReceived 0180  
                               _startGSM 33E2                                 main@argc 00EA  
                               main@argv 00EC                              _howtimeIsIt 003C  
                     __end_of_sendJsonDO 1684                      _dataLenghtoReceived 0080  
                  writeUsart1Trame@lengh 00D3                            _USART1_Status 002F  
                          _USART2_Status 0030                            ??_writeUsart1 00D0  
                          ??_writeUsart2 00D0                               _INTCONbits 000FF2  
                               itoa@base 00D7                       sendJsonDO@boardTDS 01E4  
                          ??_ClearMemory 00CE                                 intlevel1 0000  
                               intlevel2 0000                                sprintf@ap 00D3  
                              sprintf@sp 00C8                         ___lwmod@dividend 00C2  
                    __end_of_usartConfig 4EE2                               _RCSTA1bits 000FAC  
                             _RCSTA2bits 000F9C                        sendJsonDO@boardEC 01E2  
                      sendJsonDO@boardDO 01DE                        sendJsonDO@boardPH 01E0  
                               utoa@base 00CE                               _RTCCFGbits 000F3F  
                               sprintf@c 00D5                                 sprintf@f 00CA  
                      sendJsonDO@nbdataI 01C6                     readbuffer@erase_1712 00D5  
                   readbuffer@erase_1713 00D7                     readbuffer@erase_1714 00D9  
                        ___lwmod@divisor 00C4                                 strlen@cp 00CC  
                        ___lwmod@counter 00C7                         sendJsonDO@l_1439 01D0  
                       sendJsonDO@l_1464 01D2                         sendJsonDO@l_1482 01D4  
                            _timetoPost2 00B6                      __end_of_writeUsart1 46D4  
                    __end_of_writeUsart2 4940                             _trameToParse 019E  
                   __size_of_Write1USART 0014                     __size_of_Write2USART 0014  
                    __end_of_ClearMemory 3F52  
